ARM GAS  C:\Users\Matuesz\AppData\Local\Temp\ccSJWVN7.s 			page 1


   1              		.syntax unified
   2              		.cpu cortex-m4
   3              		.fpu softvfp
   4              		.eabi_attribute 20, 1
   5              		.eabi_attribute 21, 1
   6              		.eabi_attribute 23, 3
   7              		.eabi_attribute 24, 1
   8              		.eabi_attribute 25, 1
   9              		.eabi_attribute 26, 1
  10              		.eabi_attribute 30, 2
  11              		.eabi_attribute 34, 1
  12              		.eabi_attribute 18, 4
  13              		.thumb
  14              		.file	"ff.c"
  15              		.text
  16              	.Ltext0:
  17              		.cfi_sections	.debug_frame
  18              		.section	.text.get_fileinfo,"ax",%progbits
  19              		.align	2
  20              		.p2align 4,,15
  21              		.thumb
  22              		.thumb_func
  23              		.type	get_fileinfo, %function
  24              	get_fileinfo:
  25              	.LFB32:
  26              		.file 1 "../../ext/fatfs/src/ff.c"
  27              		.loc 1 1841 0
  28              		.cfi_startproc
  29              		@ args = 0, pretend = 0, frame = 0
  30              		@ frame_needed = 0, uses_anonymous_args = 0
  31              	.LVL0:
  32 0000 F8B5     		push	{r3, r4, r5, r6, r7, lr}
  33              	.LCFI0:
  34              		.cfi_def_cfa_offset 24
  35              		.cfi_offset 3, -24
  36              		.cfi_offset 4, -20
  37              		.cfi_offset 5, -16
  38              		.cfi_offset 6, -12
  39              		.cfi_offset 7, -8
  40              		.cfi_offset 14, -4
  41              		.loc 1 1848 0
  42 0002 0369     		ldr	r3, [r0, #16]
  43              		.loc 1 1841 0
  44 0004 0C46     		mov	r4, r1
  45              		.loc 1 1847 0
  46 0006 01F10902 		add	r2, r1, #9
  47              	.LVL1:
  48              		.loc 1 1848 0
  49 000a 002B     		cmp	r3, #0
  50 000c 00F0C980 		beq	.L2
  51              		.loc 1 1849 0
  52 0010 4369     		ldr	r3, [r0, #20]
  53              	.LVL2:
  54              		.loc 1 1852 0
  55 0012 1978     		ldrb	r1, [r3, #0]	@ zero_extendqisi2
  56              	.LVL3:
  57              		.loc 1 1850 0
ARM GAS  C:\Users\Matuesz\AppData\Local\Temp\ccSJWVN7.s 			page 2


  58 0014 1E7B     		ldrb	r6, [r3, #12]	@ zero_extendqisi2
  59              	.LVL4:
  60              		.loc 1 1853 0
  61 0016 2029     		cmp	r1, #32
  62 0018 7DD0     		beq	.L19
  63              		.loc 1 1855 0
  64 001a 06F00805 		and	r5, r6, #8
  65              		.loc 1 1854 0
  66 001e 0529     		cmp	r1, #5
  67 0020 14BF     		ite	ne
  68 0022 0A46     		movne	r2, r1
  69 0024 E522     		moveq	r2, #229
  70              	.LVL5:
  71              		.loc 1 1855 0
  72 0026 05F0FF07 		and	r7, r5, #255
  73 002a 25B1     		cbz	r5, .L5
  74 002c A2F14101 		sub	r1, r2, #65
  75              	.LVL6:
  76 0030 1929     		cmp	r1, #25
  77 0032 40F2DB80 		bls	.L117
  78              	.LVL7:
  79              	.L5:
  80              		.loc 1 1862 0
  81 0036 6272     		strb	r2, [r4, #9]
  82              		.loc 1 1852 0
  83 0038 5D78     		ldrb	r5, [r3, #1]	@ zero_extendqisi2
  84              		.loc 1 1853 0
  85 003a 202D     		cmp	r5, #32
  86              		.loc 1 1862 0
  87 003c 04F10A02 		add	r2, r4, #10
  88              	.LVL8:
  89              		.loc 1 1853 0
  90 0040 69D0     		beq	.L19
  91              		.loc 1 1854 0
  92 0042 052D     		cmp	r5, #5
  93 0044 08BF     		it	eq
  94 0046 E525     		moveq	r5, #229
  95              		.loc 1 1855 0
  96 0048 27B1     		cbz	r7, .L7
  97 004a A5F14101 		sub	r1, r5, #65
  98 004e 1929     		cmp	r1, #25
  99 0050 40F2CF80 		bls	.L118
 100              	.LVL9:
 101              	.L7:
 102              		.loc 1 1862 0
 103 0054 A572     		strb	r5, [r4, #10]
 104              		.loc 1 1852 0
 105 0056 9978     		ldrb	r1, [r3, #2]	@ zero_extendqisi2
 106              		.loc 1 1853 0
 107 0058 2029     		cmp	r1, #32
 108              		.loc 1 1862 0
 109 005a 04F10B02 		add	r2, r4, #11
 110              	.LVL10:
 111              		.loc 1 1853 0
 112 005e 5AD0     		beq	.L19
 113              		.loc 1 1854 0
 114 0060 0529     		cmp	r1, #5
ARM GAS  C:\Users\Matuesz\AppData\Local\Temp\ccSJWVN7.s 			page 3


 115 0062 08BF     		it	eq
 116 0064 E521     		moveq	r1, #229
 117              		.loc 1 1855 0
 118 0066 27B1     		cbz	r7, .L9
 119 0068 A1F14102 		sub	r2, r1, #65
 120              	.LVL11:
 121 006c 192A     		cmp	r2, #25
 122 006e 40F2C380 		bls	.L119
 123              	.LVL12:
 124              	.L9:
 125              		.loc 1 1862 0
 126 0072 E172     		strb	r1, [r4, #11]
 127              		.loc 1 1852 0
 128 0074 DD78     		ldrb	r5, [r3, #3]	@ zero_extendqisi2
 129              		.loc 1 1853 0
 130 0076 202D     		cmp	r5, #32
 131              		.loc 1 1862 0
 132 0078 04F10C02 		add	r2, r4, #12
 133              	.LVL13:
 134              		.loc 1 1853 0
 135 007c 4BD0     		beq	.L19
 136              		.loc 1 1854 0
 137 007e 052D     		cmp	r5, #5
 138 0080 08BF     		it	eq
 139 0082 E525     		moveq	r5, #229
 140              		.loc 1 1855 0
 141 0084 27B1     		cbz	r7, .L11
 142 0086 A5F14102 		sub	r2, r5, #65
 143              	.LVL14:
 144 008a 192A     		cmp	r2, #25
 145 008c 40F2B780 		bls	.L120
 146              	.LVL15:
 147              	.L11:
 148              		.loc 1 1862 0
 149 0090 2573     		strb	r5, [r4, #12]
 150              		.loc 1 1852 0
 151 0092 1D79     		ldrb	r5, [r3, #4]	@ zero_extendqisi2
 152              		.loc 1 1853 0
 153 0094 202D     		cmp	r5, #32
 154              		.loc 1 1862 0
 155 0096 04F10D02 		add	r2, r4, #13
 156              	.LVL16:
 157              		.loc 1 1853 0
 158 009a 3CD0     		beq	.L19
 159              		.loc 1 1854 0
 160 009c 052D     		cmp	r5, #5
 161 009e 08BF     		it	eq
 162 00a0 E525     		moveq	r5, #229
 163              		.loc 1 1855 0
 164 00a2 2FB1     		cbz	r7, .L13
 165 00a4 A5F14101 		sub	r1, r5, #65
 166 00a8 1929     		cmp	r1, #25
 167 00aa 01D8     		bhi	.L13
 168 00ac 2035     		adds	r5, r5, #32
 169 00ae EDB2     		uxtb	r5, r5
 170              	.LVL17:
 171              	.L13:
ARM GAS  C:\Users\Matuesz\AppData\Local\Temp\ccSJWVN7.s 			page 4


 172              		.loc 1 1862 0
 173 00b0 6573     		strb	r5, [r4, #13]
 174              		.loc 1 1852 0
 175 00b2 5979     		ldrb	r1, [r3, #5]	@ zero_extendqisi2
 176              		.loc 1 1853 0
 177 00b4 2029     		cmp	r1, #32
 178              		.loc 1 1862 0
 179 00b6 04F10E02 		add	r2, r4, #14
 180              	.LVL18:
 181              		.loc 1 1853 0
 182 00ba 2CD0     		beq	.L19
 183              		.loc 1 1854 0
 184 00bc 0529     		cmp	r1, #5
 185 00be 08BF     		it	eq
 186 00c0 E521     		moveq	r1, #229
 187              		.loc 1 1855 0
 188 00c2 2FB1     		cbz	r7, .L15
 189 00c4 A1F14102 		sub	r2, r1, #65
 190              	.LVL19:
 191 00c8 192A     		cmp	r2, #25
 192 00ca 01D8     		bhi	.L15
 193 00cc 2031     		adds	r1, r1, #32
 194 00ce C9B2     		uxtb	r1, r1
 195              	.LVL20:
 196              	.L15:
 197              		.loc 1 1862 0
 198 00d0 A173     		strb	r1, [r4, #14]
 199              		.loc 1 1852 0
 200 00d2 9D79     		ldrb	r5, [r3, #6]	@ zero_extendqisi2
 201              		.loc 1 1853 0
 202 00d4 202D     		cmp	r5, #32
 203              		.loc 1 1862 0
 204 00d6 04F10F02 		add	r2, r4, #15
 205              	.LVL21:
 206              		.loc 1 1853 0
 207 00da 1CD0     		beq	.L19
 208              		.loc 1 1854 0
 209 00dc 052D     		cmp	r5, #5
 210 00de 08BF     		it	eq
 211 00e0 E525     		moveq	r5, #229
 212              		.loc 1 1855 0
 213 00e2 2FB1     		cbz	r7, .L17
 214 00e4 A5F14102 		sub	r2, r5, #65
 215              	.LVL22:
 216 00e8 192A     		cmp	r2, #25
 217 00ea 01D8     		bhi	.L17
 218 00ec 2035     		adds	r5, r5, #32
 219 00ee EDB2     		uxtb	r5, r5
 220              	.LVL23:
 221              	.L17:
 222              		.loc 1 1862 0
 223 00f0 E573     		strb	r5, [r4, #15]
 224              		.loc 1 1852 0
 225 00f2 D979     		ldrb	r1, [r3, #7]	@ zero_extendqisi2
 226              		.loc 1 1853 0
 227 00f4 2029     		cmp	r1, #32
 228              		.loc 1 1862 0
ARM GAS  C:\Users\Matuesz\AppData\Local\Temp\ccSJWVN7.s 			page 5


 229 00f6 04F11002 		add	r2, r4, #16
 230              	.LVL24:
 231              		.loc 1 1853 0
 232 00fa 0CD0     		beq	.L19
 233              		.loc 1 1854 0
 234 00fc 0529     		cmp	r1, #5
 235 00fe 08BF     		it	eq
 236 0100 E521     		moveq	r1, #229
 237              		.loc 1 1855 0
 238 0102 2FB1     		cbz	r7, .L21
 239              		.loc 1 1855 0 is_stmt 0 discriminator 1
 240 0104 A1F14107 		sub	r7, r1, #65
 241 0108 192F     		cmp	r7, #25
 242 010a 01D8     		bhi	.L21
 243 010c 2031     		adds	r1, r1, #32
 244 010e C9B2     		uxtb	r1, r1
 245              	.LVL25:
 246              	.L21:
 247              		.loc 1 1862 0 is_stmt 1
 248 0110 2174     		strb	r1, [r4, #16]
 249 0112 04F11102 		add	r2, r4, #17
 250              	.LVL26:
 251              	.L19:
 252              		.loc 1 1864 0
 253 0116 1D7A     		ldrb	r5, [r3, #8]	@ zero_extendqisi2
 254 0118 202D     		cmp	r5, #32
 255 011a 2BD0     		beq	.L22
 256              		.loc 1 1865 0
 257 011c 1746     		mov	r7, r2
 258 011e 2E21     		movs	r1, #46
 259 0120 07F8011B 		strb	r1, [r7], #1
 260              	.LVL27:
 261              		.loc 1 1867 0
 262 0124 197A     		ldrb	r1, [r3, #8]	@ zero_extendqisi2
 263              	.LVL28:
 264              		.loc 1 1868 0
 265 0126 2029     		cmp	r1, #32
 266 0128 6ED0     		beq	.L41
 267              		.loc 1 1869 0
 268 012a 06F01006 		and	r6, r6, #16
 269 012e 06F0FF05 		and	r5, r6, #255
 270 0132 2EB1     		cbz	r6, .L24
 271 0134 A1F14107 		sub	r7, r1, #65
 272              	.LVL29:
 273 0138 192F     		cmp	r7, #25
 274 013a 01D8     		bhi	.L24
 275 013c 2031     		adds	r1, r1, #32
 276 013e C9B2     		uxtb	r1, r1
 277              	.LVL30:
 278              	.L24:
 279              		.loc 1 1876 0
 280 0140 5170     		strb	r1, [r2, #1]
 281              		.loc 1 1867 0
 282 0142 5F7A     		ldrb	r7, [r3, #9]	@ zero_extendqisi2
 283              		.loc 1 1876 0
 284 0144 961C     		adds	r6, r2, #2
 285              	.LVL31:
ARM GAS  C:\Users\Matuesz\AppData\Local\Temp\ccSJWVN7.s 			page 6


 286              		.loc 1 1868 0
 287 0146 202F     		cmp	r7, #32
 288 0148 5CD0     		beq	.L42
 289              		.loc 1 1869 0
 290 014a 2DB1     		cbz	r5, .L25
 291 014c A7F14106 		sub	r6, r7, #65
 292              	.LVL32:
 293 0150 192E     		cmp	r6, #25
 294 0152 01D8     		bhi	.L25
 295 0154 2037     		adds	r7, r7, #32
 296 0156 FFB2     		uxtb	r7, r7
 297              	.LVL33:
 298              	.L25:
 299              		.loc 1 1876 0
 300 0158 9770     		strb	r7, [r2, #2]
 301              		.loc 1 1867 0
 302 015a 997A     		ldrb	r1, [r3, #10]	@ zero_extendqisi2
 303              		.loc 1 1876 0
 304 015c D61C     		adds	r6, r2, #3
 305              	.LVL34:
 306              		.loc 1 1868 0
 307 015e 2029     		cmp	r1, #32
 308 0160 50D0     		beq	.L42
 309              		.loc 1 1869 0
 310 0162 2DB1     		cbz	r5, .L27
 311              		.loc 1 1869 0 is_stmt 0 discriminator 1
 312 0164 A1F14105 		sub	r5, r1, #65
 313 0168 192D     		cmp	r5, #25
 314 016a 01D8     		bhi	.L27
 315 016c 2031     		adds	r1, r1, #32
 316 016e C9B2     		uxtb	r1, r1
 317              	.LVL35:
 318              	.L27:
 319              		.loc 1 1876 0 is_stmt 1
 320 0170 D170     		strb	r1, [r2, #3]
 321 0172 0432     		adds	r2, r2, #4
 322              	.LVL36:
 323              	.L22:
 324              		.loc 1 1879 0
 325 0174 DF7A     		ldrb	r7, [r3, #11]	@ zero_extendqisi2
 326 0176 2772     		strb	r7, [r4, #8]
 327              		.loc 1 1880 0
 328 0178 997F     		ldrb	r1, [r3, #30]	@ zero_extendqisi2
 329 017a DF7F     		ldrb	r7, [r3, #31]	@ zero_extendqisi2
 330 017c 1E7F     		ldrb	r6, [r3, #28]	@ zero_extendqisi2
 331 017e 5D7F     		ldrb	r5, [r3, #29]	@ zero_extendqisi2
 332 0180 0904     		lsls	r1, r1, #16
 333 0182 41EA0761 		orr	r1, r1, r7, lsl #24
 334 0186 3143     		orrs	r1, r1, r6
 335 0188 41EA0526 		orr	r6, r1, r5, lsl #8
 336 018c 2660     		str	r6, [r4, #0]
 337              		.loc 1 1881 0
 338 018e 5D7E     		ldrb	r5, [r3, #25]	@ zero_extendqisi2
 339 0190 197E     		ldrb	r1, [r3, #24]	@ zero_extendqisi2
 340 0192 41EA0526 		orr	r6, r1, r5, lsl #8
 341 0196 A680     		strh	r6, [r4, #4]	@ movhi
 342              		.loc 1 1882 0
ARM GAS  C:\Users\Matuesz\AppData\Local\Temp\ccSJWVN7.s 			page 7


 343 0198 DD7D     		ldrb	r5, [r3, #23]	@ zero_extendqisi2
 344 019a 9B7D     		ldrb	r3, [r3, #22]	@ zero_extendqisi2
 345              	.LVL37:
 346 019c 43EA0521 		orr	r1, r3, r5, lsl #8
 347 01a0 E180     		strh	r1, [r4, #6]	@ movhi
 348              	.LVL38:
 349              	.L2:
 350              		.loc 1 1884 0
 351 01a2 0025     		movs	r5, #0
 352 01a4 1570     		strb	r5, [r2, #0]
 353              		.loc 1 1887 0
 354 01a6 A669     		ldr	r6, [r4, #24]
 355 01a8 36B1     		cbz	r6, .L1
 356              		.loc 1 1887 0 is_stmt 0 discriminator 1
 357 01aa E269     		ldr	r2, [r4, #28]
 358              	.LVL39:
 359 01ac 22B1     		cbz	r2, .L1
 360              	.LVL40:
 361              	.LBB74:
 362              		.loc 1 1892 0 is_stmt 1
 363 01ae 0369     		ldr	r3, [r0, #16]
 364 01b0 1BB9     		cbnz	r3, .L29
 365              	.LVL41:
 366              	.L31:
 367              		.loc 1 1891 0
 368 01b2 0025     		movs	r5, #0
 369              	.L30:
 370              	.LVL42:
 371              		.loc 1 1905 0
 372 01b4 0020     		movs	r0, #0
 373 01b6 7055     		strb	r0, [r6, r5]
 374              	.LVL43:
 375              	.L1:
 376 01b8 F8BD     		pop	{r3, r4, r5, r6, r7, pc}
 377              	.LVL44:
 378              	.L29:
 379              		.loc 1 1892 0 discriminator 1
 380 01ba 018C     		ldrh	r1, [r0, #32]
 381 01bc 4FF6FF72 		movw	r2, #65535
 382 01c0 9142     		cmp	r1, r2
 383 01c2 F6D0     		beq	.L31
 384              		.loc 1 1893 0
 385 01c4 C769     		ldr	r7, [r0, #28]
 386              	.LVL45:
 387              		.loc 1 1894 0
 388 01c6 3888     		ldrh	r0, [r7, #0]
 389              	.LVL46:
 390 01c8 50B9     		cbnz	r0, .L32
 391 01ca F2E7     		b	.L31
 392              	.LVL47:
 393              	.L121:
 394              		.loc 1 1901 0
 395 01cc E369     		ldr	r3, [r4, #28]
 396 01ce 591E     		subs	r1, r3, #1
 397 01d0 8D42     		cmp	r5, r1
 398 01d2 EED2     		bcs	.L31
 399              		.loc 1 1902 0
ARM GAS  C:\Users\Matuesz\AppData\Local\Temp\ccSJWVN7.s 			page 8


 400 01d4 7055     		strb	r0, [r6, r5]
 401              		.loc 1 1894 0
 402 01d6 37F8020F 		ldrh	r0, [r7, #2]!
 403              	.LVL48:
 404              		.loc 1 1902 0
 405 01da 0135     		adds	r5, r5, #1
 406              	.LVL49:
 407              		.loc 1 1894 0
 408 01dc 0028     		cmp	r0, #0
 409 01de E9D0     		beq	.L30
 410              	.LVL50:
 411              	.L32:
 412              		.loc 1 1896 0
 413 01e0 0021     		movs	r1, #0
 414 01e2 FFF7FEFF 		bl	ff_convert
 415              	.LVL51:
 416              		.loc 1 1897 0
 417 01e6 0028     		cmp	r0, #0
 418 01e8 F0D1     		bne	.L121
 419 01ea E2E7     		b	.L31
 420              	.LVL52:
 421              	.L117:
 422              	.LBE74:
 423              		.loc 1 1855 0
 424 01ec 2032     		adds	r2, r2, #32
 425 01ee D2B2     		uxtb	r2, r2
 426              	.LVL53:
 427 01f0 21E7     		b	.L5
 428              	.LVL54:
 429              	.L118:
 430 01f2 2035     		adds	r5, r5, #32
 431 01f4 EDB2     		uxtb	r5, r5
 432              	.LVL55:
 433 01f6 2DE7     		b	.L7
 434              	.LVL56:
 435              	.L119:
 436 01f8 2031     		adds	r1, r1, #32
 437 01fa C9B2     		uxtb	r1, r1
 438              	.LVL57:
 439 01fc 39E7     		b	.L9
 440              	.LVL58:
 441              	.L120:
 442 01fe 2035     		adds	r5, r5, #32
 443 0200 EDB2     		uxtb	r5, r5
 444              	.LVL59:
 445 0202 45E7     		b	.L11
 446              	.LVL60:
 447              	.L42:
 448              		.loc 1 1876 0
 449 0204 3246     		mov	r2, r6
 450 0206 B5E7     		b	.L22
 451              	.LVL61:
 452              	.L41:
 453              		.loc 1 1865 0
 454 0208 3A46     		mov	r2, r7
 455 020a B3E7     		b	.L22
 456              		.cfi_endproc
ARM GAS  C:\Users\Matuesz\AppData\Local\Temp\ccSJWVN7.s 			page 9


 457              	.LFE32:
 458              		.size	get_fileinfo, .-get_fileinfo
 459 020c AFF30080 		.section	.text.move_window,"ax",%progbits
 460              		.align	2
 461              		.p2align 4,,15
 462              		.thumb
 463              		.thumb_func
 464              		.type	move_window, %function
 465              	move_window:
 466              	.LFB13:
 467              		.loc 1 723 0
 468              		.cfi_startproc
 469              		@ args = 0, pretend = 0, frame = 0
 470              		@ frame_needed = 0, uses_anonymous_args = 0
 471              	.LVL62:
 472 0000 2DE9F041 		push	{r4, r5, r6, r7, r8, lr}
 473              	.LCFI1:
 474              		.cfi_def_cfa_offset 24
 475              		.cfi_offset 4, -24
 476              		.cfi_offset 5, -20
 477              		.cfi_offset 6, -16
 478              		.cfi_offset 7, -12
 479              		.cfi_offset 8, -8
 480              		.cfi_offset 14, -4
 481              		.loc 1 727 0
 482 0004 056B     		ldr	r5, [r0, #48]
 483              	.LVL63:
 484              		.loc 1 728 0
 485 0006 8D42     		cmp	r5, r1
 486              		.loc 1 723 0
 487 0008 0446     		mov	r4, r0
 488 000a 0E46     		mov	r6, r1
 489              		.loc 1 728 0
 490 000c 02D0     		beq	.L127
 491              		.loc 1 730 0
 492 000e 0379     		ldrb	r3, [r0, #4]	@ zero_extendqisi2
 493 0010 73B9     		cbnz	r3, .L125
 494              	.LVL64:
 495              	.L129:
 496              		.loc 1 743 0
 497 0012 16B9     		cbnz	r6, .L144
 498              	.LVL65:
 499              	.L127:
 500              		.loc 1 750 0
 501 0014 0020     		movs	r0, #0
 502 0016 BDE8F081 		pop	{r4, r5, r6, r7, r8, pc}
 503              	.L144:
 504              		.loc 1 744 0
 505 001a 6078     		ldrb	r0, [r4, #1]	@ zero_extendqisi2
 506 001c 04F13401 		add	r1, r4, #52
 507 0020 3246     		mov	r2, r6
 508 0022 0123     		movs	r3, #1
 509 0024 FFF7FEFF 		bl	disk_read
 510              	.LVL66:
 511 0028 E0B9     		cbnz	r0, .L131
 512              		.loc 1 746 0
 513 002a 2663     		str	r6, [r4, #48]
ARM GAS  C:\Users\Matuesz\AppData\Local\Temp\ccSJWVN7.s 			page 10


 514              		.loc 1 751 0
 515 002c BDE8F081 		pop	{r4, r5, r6, r7, r8, pc}
 516              	.LVL67:
 517              	.L125:
 518              		.loc 1 731 0
 519 0030 00F13407 		add	r7, r0, #52
 520 0034 3946     		mov	r1, r7
 521              	.LVL68:
 522 0036 4078     		ldrb	r0, [r0, #1]	@ zero_extendqisi2
 523              	.LVL69:
 524 0038 2A46     		mov	r2, r5
 525 003a 0123     		movs	r3, #1
 526 003c FFF7FEFF 		bl	disk_write
 527              	.LVL70:
 528 0040 80B9     		cbnz	r0, .L131
 529              		.loc 1 734 0
 530 0042 226A     		ldr	r2, [r4, #32]
 531 0044 616A     		ldr	r1, [r4, #36]
 532              		.loc 1 733 0
 533 0046 2071     		strb	r0, [r4, #4]
 534              		.loc 1 734 0
 535 0048 5018     		adds	r0, r2, r1
 536 004a 8542     		cmp	r5, r0
 537 004c E1D2     		bcs	.L129
 538              	.LBB75:
 539              		.loc 1 736 0
 540 004e 94F80380 		ldrb	r8, [r4, #3]	@ zero_extendqisi2
 541              	.LVL71:
 542 0052 B8F1010F 		cmp	r8, #1
 543 0056 DCD9     		bls	.L129
 544 0058 18F0010F 		tst	r8, #1
 545 005c 12D0     		beq	.L138
 546              		.loc 1 737 0
 547 005e AD18     		adds	r5, r5, r2
 548              	.LVL72:
 549              		.loc 1 738 0
 550 0060 6078     		ldrb	r0, [r4, #1]	@ zero_extendqisi2
 551 0062 05E0     		b	.L142
 552              	.LVL73:
 553              	.L131:
 554              	.LBE75:
 555              		.loc 1 732 0
 556 0064 0120     		movs	r0, #1
 557 0066 BDE8F081 		pop	{r4, r5, r6, r7, r8, pc}
 558              	.LVL74:
 559              	.L145:
 560 006a 216A     		ldr	r1, [r4, #32]
 561              	.LBB76:
 562              		.loc 1 738 0
 563 006c 6078     		ldrb	r0, [r4, #1]	@ zero_extendqisi2
 564              		.loc 1 737 0
 565 006e 6D18     		adds	r5, r5, r1
 566              	.LVL75:
 567              	.L142:
 568              		.loc 1 738 0
 569 0070 2A46     		mov	r2, r5
 570 0072 3946     		mov	r1, r7
ARM GAS  C:\Users\Matuesz\AppData\Local\Temp\ccSJWVN7.s 			page 11


 571 0074 0123     		movs	r3, #1
 572 0076 FFF7FEFF 		bl	disk_write
 573              	.LVL76:
 574              		.loc 1 736 0
 575 007a 08F1FF38 		add	r8, r8, #-1
 576 007e 226A     		ldr	r2, [r4, #32]
 577 0080 5FFA88F8 		uxtb	r8, r8
 578              	.LVL77:
 579              	.L138:
 580              		.loc 1 737 0 discriminator 2
 581 0084 AD18     		adds	r5, r5, r2
 582              	.LVL78:
 583              		.loc 1 738 0 discriminator 2
 584 0086 0123     		movs	r3, #1
 585 0088 3946     		mov	r1, r7
 586 008a 2A46     		mov	r2, r5
 587 008c 6078     		ldrb	r0, [r4, #1]	@ zero_extendqisi2
 588 008e FFF7FEFF 		bl	disk_write
 589              	.LVL79:
 590              		.loc 1 736 0 discriminator 2
 591 0092 08F1FF33 		add	r3, r8, #-1
 592 0096 5FFA83F8 		uxtb	r8, r3
 593              	.LVL80:
 594 009a B8F1010F 		cmp	r8, #1
 595 009e E4D1     		bne	.L145
 596              	.LBE76:
 597              		.loc 1 743 0
 598 00a0 002E     		cmp	r6, #0
 599 00a2 B7D0     		beq	.L127
 600 00a4 B9E7     		b	.L144
 601              		.cfi_endproc
 602              	.LFE13:
 603              		.size	move_window, .-move_window
 604 00a6 00BFAFF3 		.section	.text.sync,"ax",%progbits
 604      0080AFF3 
 604      0080
 605              		.align	2
 606              		.p2align 4,,15
 607              		.thumb
 608              		.thumb_func
 609              		.type	sync, %function
 610              	sync:
 611              	.LFB14:
 612              		.loc 1 764 0
 613              		.cfi_startproc
 614              		@ args = 0, pretend = 0, frame = 0
 615              		@ frame_needed = 0, uses_anonymous_args = 0
 616              	.LVL81:
 617 0000 2DE9F84F 		push	{r3, r4, r5, r6, r7, r8, r9, sl, fp, lr}
 618              	.LCFI2:
 619              		.cfi_def_cfa_offset 40
 620              		.cfi_offset 3, -40
 621              		.cfi_offset 4, -36
 622              		.cfi_offset 5, -32
 623              		.cfi_offset 6, -28
 624              		.cfi_offset 7, -24
 625              		.cfi_offset 8, -20
ARM GAS  C:\Users\Matuesz\AppData\Local\Temp\ccSJWVN7.s 			page 12


 626              		.cfi_offset 9, -16
 627              		.cfi_offset 10, -12
 628              		.cfi_offset 11, -8
 629              		.cfi_offset 14, -4
 630              		.loc 1 768 0
 631 0004 0021     		movs	r1, #0
 632              		.loc 1 764 0
 633 0006 0546     		mov	r5, r0
 634              		.loc 1 768 0
 635 0008 FFF7FEFF 		bl	move_window
 636              	.LVL82:
 637 000c 0446     		mov	r4, r0
 638              	.LVL83:
 639              		.loc 1 769 0
 640 000e 54B9     		cbnz	r4, .L147
 641              		.loc 1 771 0
 642 0010 2B78     		ldrb	r3, [r5, #0]	@ zero_extendqisi2
 643 0012 032B     		cmp	r3, #3
 644 0014 09D0     		beq	.L155
 645              	.LVL84:
 646              	.L148:
 647              		.loc 1 785 0
 648 0016 0021     		movs	r1, #0
 649 0018 6878     		ldrb	r0, [r5, #1]	@ zero_extendqisi2
 650 001a 0A46     		mov	r2, r1
 651 001c FFF7FEFF 		bl	disk_ioctl
 652              	.LVL85:
 653 0020 0030     		adds	r0, r0, #0
 654 0022 18BF     		it	ne
 655 0024 0120     		movne	r0, #1
 656              	.L147:
 657              	.LVL86:
 658              		.loc 1 790 0
 659 0026 BDE8F88F 		pop	{r3, r4, r5, r6, r7, r8, r9, sl, fp, pc}
 660              	.L155:
 661              		.loc 1 771 0 discriminator 1
 662 002a 6879     		ldrb	r0, [r5, #5]	@ zero_extendqisi2
 663              	.LVL87:
 664 002c 0028     		cmp	r0, #0
 665 002e F2D0     		beq	.L148
 666              		.loc 1 774 0
 667 0030 05F13401 		add	r1, r5, #52
 668              	.LVL88:
 669              		.loc 1 772 0
 670 0034 2C63     		str	r4, [r5, #48]
 671              		.loc 1 761 0
 672 0036 05F50D76 		add	r6, r5, #564
 673              		.loc 1 547 0
 674 003a 0F46     		mov	r7, r1
 675              	.LVL89:
 676              	.L149:
 677              	.LBB77:
 678              	.LBB78:
 679              		.loc 1 550 0
 680 003c 3A46     		mov	r2, r7
 681 003e 02F8014B 		strb	r4, [r2], #1
 682 0042 7C70     		strb	r4, [r7, #1]
ARM GAS  C:\Users\Matuesz\AppData\Local\Temp\ccSJWVN7.s 			page 13


 683 0044 571C     		adds	r7, r2, #1
 684              	.LVL90:
 685              		.loc 1 549 0
 686 0046 B742     		cmp	r7, r6
 687 0048 F8D1     		bne	.L149
 688              	.LBE78:
 689              	.LBE77:
 690              		.loc 1 779 0
 691 004a 2B69     		ldr	r3, [r5, #16]
 692              		.loc 1 778 0
 693 004c 6A69     		ldr	r2, [r5, #20]
 694              		.loc 1 779 0
 695 004e 85F82032 		strb	r3, [r5, #544]
 696              		.loc 1 775 0
 697 0052 4FF0550B 		mov	fp, #85
 698              		.loc 1 776 0
 699 0056 6120     		movs	r0, #97
 700              		.loc 1 779 0
 701 0058 4FEA134C 		lsr	ip, r3, #16
 702 005c 4FEA136E 		lsr	lr, r3, #24
 703              		.loc 1 778 0
 704 0060 85F81C22 		strb	r2, [r5, #540]
 705              		.loc 1 776 0
 706 0064 5227     		movs	r7, #82
 707              	.LVL91:
 708 0066 4124     		movs	r4, #65
 709              	.LVL92:
 710              		.loc 1 777 0
 711 0068 7226     		movs	r6, #114
 712              		.loc 1 778 0
 713 006a C2F3072A 		ubfx	sl, r2, #8, #8
 714 006e 4FEA1249 		lsr	r9, r2, #16
 715              		.loc 1 779 0
 716 0072 C3F30728 		ubfx	r8, r3, #8, #8
 717              		.loc 1 778 0
 718 0076 120E     		lsrs	r2, r2, #24
 719              		.loc 1 775 0
 720 0078 85F832B2 		strb	fp, [r5, #562]
 721 007c 4FF0AA0B 		mov	fp, #170
 722              		.loc 1 776 0
 723 0080 85F83600 		strb	r0, [r5, #54]
 724              		.loc 1 777 0
 725 0084 85F81B02 		strb	r0, [r5, #539]
 726              		.loc 1 778 0
 727 0088 85F81F22 		strb	r2, [r5, #543]
 728              		.loc 1 775 0
 729 008c 85F833B2 		strb	fp, [r5, #563]
 730              		.loc 1 776 0
 731 0090 85F83470 		strb	r7, [r5, #52]
 732 0094 85F83570 		strb	r7, [r5, #53]
 733 0098 85F83740 		strb	r4, [r5, #55]
 734              		.loc 1 777 0
 735 009c 85F81862 		strb	r6, [r5, #536]
 736 00a0 85F81962 		strb	r6, [r5, #537]
 737 00a4 85F81A42 		strb	r4, [r5, #538]
 738              		.loc 1 778 0
 739 00a8 85F81DA2 		strb	sl, [r5, #541]
ARM GAS  C:\Users\Matuesz\AppData\Local\Temp\ccSJWVN7.s 			page 14


 740 00ac 85F81E92 		strb	r9, [r5, #542]
 741              		.loc 1 779 0
 742 00b0 85F82182 		strb	r8, [r5, #545]
 743 00b4 85F822C2 		strb	ip, [r5, #546]
 744 00b8 85F823E2 		strb	lr, [r5, #547]
 745              		.loc 1 781 0
 746 00bc 6878     		ldrb	r0, [r5, #1]	@ zero_extendqisi2
 747 00be AA69     		ldr	r2, [r5, #24]
 748 00c0 0123     		movs	r3, #1
 749 00c2 FFF7FEFF 		bl	disk_write
 750              	.LVL93:
 751              		.loc 1 782 0
 752 00c6 0021     		movs	r1, #0
 753 00c8 6971     		strb	r1, [r5, #5]
 754 00ca A4E7     		b	.L148
 755              		.cfi_endproc
 756              	.LFE14:
 757              		.size	sync, .-sync
 758 00cc AFF30080 		.section	.text.check_fs,"ax",%progbits
 759              		.align	2
 760              		.p2align 4,,15
 761              		.thumb
 762              		.thumb_func
 763              		.type	check_fs, %function
 764              	check_fs:
 765              	.LFB34:
 766              		.loc 1 1986 0
 767              		.cfi_startproc
 768              		@ args = 0, pretend = 0, frame = 0
 769              		@ frame_needed = 0, uses_anonymous_args = 0
 770              	.LVL94:
 771 0000 38B5     		push	{r3, r4, r5, lr}
 772              	.LCFI3:
 773              		.cfi_def_cfa_offset 16
 774              		.cfi_offset 3, -16
 775              		.cfi_offset 4, -12
 776              		.cfi_offset 5, -8
 777              		.cfi_offset 14, -4
 778              		.loc 1 1986 0
 779 0002 0446     		mov	r4, r0
 780 0004 0A46     		mov	r2, r1
 781              		.loc 1 1987 0
 782 0006 4078     		ldrb	r0, [r0, #1]	@ zero_extendqisi2
 783              	.LVL95:
 784 0008 04F13401 		add	r1, r4, #52
 785              	.LVL96:
 786 000c 0123     		movs	r3, #1
 787 000e FFF7FEFF 		bl	disk_read
 788              	.LVL97:
 789 0012 08B1     		cbz	r0, .L161
 790              		.loc 1 1988 0
 791 0014 0320     		movs	r0, #3
 792 0016 38BD     		pop	{r3, r4, r5, pc}
 793              	.L161:
 794              		.loc 1 1989 0
 795 0018 94F83222 		ldrb	r2, [r4, #562]	@ zero_extendqisi2
 796 001c 94F83312 		ldrb	r1, [r4, #563]	@ zero_extendqisi2
ARM GAS  C:\Users\Matuesz\AppData\Local\Temp\ccSJWVN7.s 			page 15


 797 0020 4AF65523 		movw	r3, #43605
 798 0024 42EA0121 		orr	r1, r2, r1, lsl #8
 799 0028 0AB2     		sxth	r2, r1
 800 002a CFF6FF73 		movt	r3, 65535
 801 002e 9A42     		cmp	r2, r3
 802 0030 01D0     		beq	.L162
 803              		.loc 1 1990 0
 804 0032 0220     		movs	r0, #2
 805              	.L157:
 806              		.loc 1 1998 0
 807 0034 38BD     		pop	{r3, r4, r5, pc}
 808              	.L162:
 809              		.loc 1 1992 0
 810 0036 94F86C30 		ldrb	r3, [r4, #108]	@ zero_extendqisi2
 811 003a 94F86D50 		ldrb	r5, [r4, #109]	@ zero_extendqisi2
 812 003e 94F86A10 		ldrb	r1, [r4, #106]	@ zero_extendqisi2
 813 0042 94F86B20 		ldrb	r2, [r4, #107]	@ zero_extendqisi2
 814 0046 1B04     		lsls	r3, r3, #16
 815 0048 43EA0563 		orr	r3, r3, r5, lsl #24
 816 004c 0B43     		orrs	r3, r3, r1
 817 004e 43EA0221 		orr	r1, r3, r2, lsl #8
 818 0052 44F24613 		movw	r3, #16710
 819 0056 21F07F42 		bic	r2, r1, #-16777216
 820 005a C0F25403 		movt	r3, 84
 821 005e 9A42     		cmp	r2, r3
 822 0060 E8D0     		beq	.L157
 823              	.LVL98:
 824              	.LBB81:
 825              	.LBB82:
 826              		.loc 1 1994 0
 827 0062 94F88820 		ldrb	r2, [r4, #136]	@ zero_extendqisi2
 828 0066 94F88950 		ldrb	r5, [r4, #137]	@ zero_extendqisi2
 829 006a 94F88610 		ldrb	r1, [r4, #134]	@ zero_extendqisi2
 830 006e 94F88700 		ldrb	r0, [r4, #135]	@ zero_extendqisi2
 831 0072 1204     		lsls	r2, r2, #16
 832 0074 42EA0562 		orr	r2, r2, r5, lsl #24
 833 0078 0A43     		orrs	r2, r2, r1
 834 007a 42EA0021 		orr	r1, r2, r0, lsl #8
 835 007e 21F07F40 		bic	r0, r1, #-16777216
 836              	.LBE82:
 837              	.LBE81:
 838              		.loc 1 1995 0
 839 0082 C01A     		subs	r0, r0, r3
 840 0084 18BF     		it	ne
 841 0086 0120     		movne	r0, #1
 842 0088 38BD     		pop	{r3, r4, r5, pc}
 843              		.cfi_endproc
 844              	.LFE34:
 845              		.size	check_fs, .-check_fs
 846 008a 00BFAFF3 		.section	.text.validate,"ax",%progbits
 846      0080
 847              		.align	2
 848              		.p2align 4,,15
 849              		.thumb
 850              		.thumb_func
 851              		.type	validate, %function
 852              	validate:
ARM GAS  C:\Users\Matuesz\AppData\Local\Temp\ccSJWVN7.s 			page 16


 853              	.LFB36:
 854              		.loc 1 2176 0
 855              		.cfi_startproc
 856              		@ args = 0, pretend = 0, frame = 0
 857              		@ frame_needed = 0, uses_anonymous_args = 0
 858              	.LVL99:
 859 0000 10B5     		push	{r4, lr}
 860              	.LCFI4:
 861              		.cfi_def_cfa_offset 8
 862              		.cfi_offset 4, -8
 863              		.cfi_offset 14, -4
 864              		.loc 1 2177 0
 865 0002 0446     		mov	r4, r0
 866 0004 08B1     		cbz	r0, .L168
 867              		.loc 1 2177 0 is_stmt 0 discriminator 1
 868 0006 0378     		ldrb	r3, [r0, #0]	@ zero_extendqisi2
 869 0008 0BB9     		cbnz	r3, .L171
 870              	.LVL100:
 871              	.L168:
 872              		.loc 1 2178 0 is_stmt 1
 873 000a 0920     		movs	r0, #9
 874 000c 10BD     		pop	{r4, pc}
 875              	.LVL101:
 876              	.L171:
 877              		.loc 1 2177 0 discriminator 1
 878 000e C088     		ldrh	r0, [r0, #6]
 879              	.LVL102:
 880 0010 8842     		cmp	r0, r1
 881 0012 FAD1     		bne	.L168
 882              	.LVL103:
 883              	.LBB87:
 884              	.LBB88:
 885              		.loc 1 582 0
 886 0014 E068     		ldr	r0, [r4, #12]
 887 0016 FFF7FEFF 		bl	ff_req_grant
 888              	.LVL104:
 889              	.LBE88:
 890              	.LBE87:
 891              		.loc 1 2180 0
 892 001a 08B9     		cbnz	r0, .L172
 893 001c 0F20     		movs	r0, #15
 894              		.loc 1 2186 0
 895 001e 10BD     		pop	{r4, pc}
 896              	.L172:
 897              	.LVL105:
 898              	.LBB89:
 899              	.LBB90:
 900              		.loc 1 2182 0
 901 0020 6078     		ldrb	r0, [r4, #1]	@ zero_extendqisi2
 902 0022 FFF7FEFF 		bl	disk_status
 903              	.LVL106:
 904 0026 10F0010F 		tst	r0, #1
 905              		.loc 1 2183 0
 906 002a 0CBF     		ite	eq
 907 002c 0020     		moveq	r0, #0
 908 002e 0320     		movne	r0, #3
 909 0030 10BD     		pop	{r4, pc}
ARM GAS  C:\Users\Matuesz\AppData\Local\Temp\ccSJWVN7.s 			page 17


 910              	.LBE90:
 911              	.LBE89:
 912              		.cfi_endproc
 913              	.LFE36:
 914              		.size	validate, .-validate
 915 0032 00BFAFF3 		.section	.text.unlock_fs,"ax",%progbits
 915      0080AFF3 
 915      0080AFF3 
 915      0080
 916              		.align	2
 917              		.p2align 4,,15
 918              		.thumb
 919              		.thumb_func
 920              		.type	unlock_fs, %function
 921              	unlock_fs:
 922              	.LFB12:
 923              		.loc 1 591 0
 924              		.cfi_startproc
 925              		@ args = 0, pretend = 0, frame = 0
 926              		@ frame_needed = 0, uses_anonymous_args = 0
 927              		@ link register save eliminated.
 928              	.LVL107:
 929              		.loc 1 592 0
 930 0000 A1F10B03 		sub	r3, r1, #11
 931 0004 012B     		cmp	r3, #1
 932 0006 06D9     		bls	.L173
 933              		.loc 1 593 0
 934 0008 0929     		cmp	r1, #9
 935 000a 04D0     		beq	.L173
 936              	.LVL108:
 937              	.LBB93:
 938              	.LBB94:
 939              		.loc 1 594 0
 940 000c 0F29     		cmp	r1, #15
 941 000e 02D0     		beq	.L173
 942              		.loc 1 596 0
 943 0010 C068     		ldr	r0, [r0, #12]
 944              	.LVL109:
 945              	.LBE94:
 946              	.LBE93:
 947              		.loc 1 598 0
 948              	.LBB96:
 949              	.LBB95:
 950              		.loc 1 596 0
 951 0012 FFF7FEBF 		b	ff_rel_grant
 952              	.LVL110:
 953              	.L173:
 954 0016 7047     		bx	lr
 955              	.LBE95:
 956              	.LBE96:
 957              		.cfi_endproc
 958              	.LFE12:
 959              		.size	unlock_fs, .-unlock_fs
 960 0018 AFF30080 		.section	.text.chk_mounted,"ax",%progbits
 960      AFF30080 
 961              		.align	2
 962              		.p2align 4,,15
ARM GAS  C:\Users\Matuesz\AppData\Local\Temp\ccSJWVN7.s 			page 18


 963              		.thumb
 964              		.thumb_func
 965              		.type	chk_mounted, %function
 966              	chk_mounted:
 967              	.LFB35:
 968              		.loc 1 2013 0
 969              		.cfi_startproc
 970              		@ args = 0, pretend = 0, frame = 0
 971              		@ frame_needed = 0, uses_anonymous_args = 0
 972              	.LVL111:
 973 0000 2DE9F041 		push	{r4, r5, r6, r7, r8, lr}
 974              	.LCFI5:
 975              		.cfi_def_cfa_offset 24
 976              		.cfi_offset 4, -24
 977              		.cfi_offset 5, -20
 978              		.cfi_offset 6, -16
 979              		.cfi_offset 7, -12
 980              		.cfi_offset 8, -8
 981              		.cfi_offset 14, -4
 982              		.loc 1 2019 0
 983 0004 0368     		ldr	r3, [r0, #0]
 984              	.LVL112:
 985              		.loc 1 2023 0
 986 0006 1C78     		ldrb	r4, [r3, #0]	@ zero_extendqisi2
 987 0008 303C     		subs	r4, r4, #48
 988              	.LVL113:
 989              		.loc 1 2024 0
 990 000a 092C     		cmp	r4, #9
 991              		.loc 1 2013 0
 992 000c 1546     		mov	r5, r2
 993              		.loc 1 2024 0
 994 000e 02D8     		bhi	.L185
 995              		.loc 1 2024 0 is_stmt 0 discriminator 1
 996 0010 5A78     		ldrb	r2, [r3, #1]	@ zero_extendqisi2
 997              	.LVL114:
 998 0012 3A2A     		cmp	r2, #58
 999 0014 0DD0     		beq	.L234
 1000              	.L185:
 1001              		.loc 1 2037 0 is_stmt 1
 1002 0016 B248     		ldr	r0, .L242
 1003              	.LVL115:
 1004 0018 0468     		ldr	r4, [r0, #0]
 1005              	.LVL116:
 1006 001a 0C60     		str	r4, [r1, #0]
 1007              		.loc 1 2038 0
 1008 001c 34B1     		cbz	r4, .L235
 1009              	.LVL117:
 1010              	.LBB99:
 1011              	.LBB100:
 1012              		.loc 1 582 0
 1013 001e E068     		ldr	r0, [r4, #12]
 1014 0020 FFF7FEFF 		bl	ff_req_grant
 1015              	.LVL118:
 1016              	.LBE100:
 1017              	.LBE99:
 1018              		.loc 1 2040 0
 1019 0024 60B9     		cbnz	r0, .L236
ARM GAS  C:\Users\Matuesz\AppData\Local\Temp\ccSJWVN7.s 			page 19


 1020 0026 0F20     		movs	r0, #15
 1021 0028 BDE8F081 		pop	{r4, r5, r6, r7, r8, pc}
 1022              	.LVL119:
 1023              	.L235:
 1024              		.loc 1 2038 0
 1025 002c 0C20     		movs	r0, #12
 1026 002e BDE8F081 		pop	{r4, r5, r6, r7, r8, pc}
 1027              	.LVL120:
 1028              	.L234:
 1029              		.loc 1 2025 0
 1030 0032 0233     		adds	r3, r3, #2
 1031              	.LVL121:
 1032 0034 0360     		str	r3, [r0, #0]
 1033              		.loc 1 2035 0
 1034 0036 002C     		cmp	r4, #0
 1035 0038 EDD0     		beq	.L185
 1036              		.loc 1 2036 0
 1037 003a 0B20     		movs	r0, #11
 1038              	.LVL122:
 1039 003c BDE8F081 		pop	{r4, r5, r6, r7, r8, pc}
 1040              	.LVL123:
 1041              	.L236:
 1042              		.loc 1 2042 0
 1043 0040 2178     		ldrb	r1, [r4, #0]	@ zero_extendqisi2
 1044 0042 71B1     		cbz	r1, .L186
 1045              		.loc 1 2043 0
 1046 0044 6078     		ldrb	r0, [r4, #1]	@ zero_extendqisi2
 1047 0046 FFF7FEFF 		bl	disk_status
 1048              	.LVL124:
 1049              		.loc 1 2044 0
 1050 004a C207     		lsls	r2, r0, #31
 1051 004c 09D4     		bmi	.L186
 1052              		.loc 1 2045 0
 1053 004e 45B3     		cbz	r5, .L205
 1054              		.loc 1 2045 0 is_stmt 0 discriminator 1
 1055 0050 00F00400 		and	r0, r0, #4
 1056              	.LVL125:
 1057 0054 C2B2     		uxtb	r2, r0
 1058              		.loc 1 2046 0 is_stmt 1 discriminator 1
 1059 0056 002A     		cmp	r2, #0
 1060 0058 14BF     		ite	ne
 1061 005a 0A20     		movne	r0, #10
 1062 005c 0020     		moveq	r0, #0
 1063 005e BDE8F081 		pop	{r4, r5, r6, r7, r8, pc}
 1064              	.L186:
 1065              		.loc 1 2054 0
 1066 0062 0020     		movs	r0, #0
 1067 0064 2070     		strb	r0, [r4, #0]
 1068              		.loc 1 2055 0
 1069 0066 6070     		strb	r0, [r4, #1]
 1070              		.loc 1 2056 0
 1071 0068 FFF7FEFF 		bl	disk_initialize
 1072              	.LVL126:
 1073              		.loc 1 2057 0
 1074 006c C307     		lsls	r3, r0, #31
 1075 006e 02D5     		bpl	.L237
 1076              		.loc 1 2058 0
ARM GAS  C:\Users\Matuesz\AppData\Local\Temp\ccSJWVN7.s 			page 20


 1077 0070 0320     		movs	r0, #3
 1078              	.LVL127:
 1079 0072 BDE8F081 		pop	{r4, r5, r6, r7, r8, pc}
 1080              	.LVL128:
 1081              	.L237:
 1082              		.loc 1 2059 0
 1083 0076 35B1     		cbz	r5, .L187
 1084              		.loc 1 2059 0 is_stmt 0 discriminator 1
 1085 0078 00F00402 		and	r2, r0, #4
 1086 007c D3B2     		uxtb	r3, r2
 1087 007e 13B1     		cbz	r3, .L187
 1088              		.loc 1 2060 0 is_stmt 1
 1089 0080 0A20     		movs	r0, #10
 1090              	.LVL129:
 1091 0082 BDE8F081 		pop	{r4, r5, r6, r7, r8, pc}
 1092              	.LVL130:
 1093              	.L187:
 1094              		.loc 1 2066 0
 1095 0086 0021     		movs	r1, #0
 1096 0088 2046     		mov	r0, r4
 1097              	.LVL131:
 1098 008a FFF7FEFF 		bl	check_fs
 1099              	.LVL132:
 1100              		.loc 1 2068 0
 1101 008e 0128     		cmp	r0, #1
 1102 0090 0AD0     		beq	.L238
 1103              		.loc 1 2066 0
 1104 0092 0025     		movs	r5, #0
 1105              	.LVL133:
 1106              	.L188:
 1107              		.loc 1 2078 0
 1108 0094 0328     		cmp	r0, #3
 1109 0096 00F0B880 		beq	.L210
 1110              		.loc 1 2079 0
 1111 009a E8B1     		cbz	r0, .L239
 1112              	.LVL134:
 1113              	.L190:
 1114 009c 0D20     		movs	r0, #13
 1115 009e BDE8F081 		pop	{r4, r5, r6, r7, r8, pc}
 1116              	.LVL135:
 1117              	.L205:
 1118              		.loc 1 2047 0
 1119 00a2 2846     		mov	r0, r5
 1120              	.LVL136:
 1121 00a4 BDE8F081 		pop	{r4, r5, r6, r7, r8, pc}
 1122              	.LVL137:
 1123              	.L238:
 1124              		.loc 1 2073 0
 1125 00a8 94F8F601 		ldrb	r0, [r4, #502]	@ zero_extendqisi2
 1126              	.LVL138:
 1127 00ac 0028     		cmp	r0, #0
 1128 00ae F5D0     		beq	.L190
 1129              		.loc 1 2074 0
 1130 00b0 94F8FC21 		ldrb	r2, [r4, #508]	@ zero_extendqisi2
 1131 00b4 94F8FD11 		ldrb	r1, [r4, #509]	@ zero_extendqisi2
 1132 00b8 94F8FA31 		ldrb	r3, [r4, #506]	@ zero_extendqisi2
 1133 00bc 94F8FB51 		ldrb	r5, [r4, #507]	@ zero_extendqisi2
ARM GAS  C:\Users\Matuesz\AppData\Local\Temp\ccSJWVN7.s 			page 21


 1134 00c0 1004     		lsls	r0, r2, #16
 1135 00c2 40EA0162 		orr	r2, r0, r1, lsl #24
 1136 00c6 42EA0301 		orr	r1, r2, r3
 1137 00ca 41EA0525 		orr	r5, r1, r5, lsl #8
 1138              	.LVL139:
 1139              		.loc 1 2075 0
 1140 00ce 2046     		mov	r0, r4
 1141 00d0 2946     		mov	r1, r5
 1142 00d2 FFF7FEFF 		bl	check_fs
 1143              	.LVL140:
 1144 00d6 DDE7     		b	.L188
 1145              	.LVL141:
 1146              	.L239:
 1147              		.loc 1 2083 0
 1148 00d8 94F84000 		ldrb	r0, [r4, #64]	@ zero_extendqisi2
 1149              	.LVL142:
 1150 00dc 94F83F30 		ldrb	r3, [r4, #63]	@ zero_extendqisi2
 1151 00e0 43EA0022 		orr	r2, r3, r0, lsl #8
 1152 00e4 B2F5007F 		cmp	r2, #512
 1153 00e8 D8D1     		bne	.L190
 1154              		.loc 1 2086 0
 1155 00ea 94F84B10 		ldrb	r1, [r4, #75]	@ zero_extendqisi2
 1156 00ee 94F84A00 		ldrb	r0, [r4, #74]	@ zero_extendqisi2
 1157              	.LVL143:
 1158              		.loc 1 2087 0
 1159 00f2 50EA0122 		orrs	r2, r0, r1, lsl #8
 1160              	.LVL144:
 1161 00f6 0DD1     		bne	.L191
 1162              		.loc 1 2087 0 is_stmt 0 discriminator 1
 1163 00f8 94F85A10 		ldrb	r1, [r4, #90]	@ zero_extendqisi2
 1164 00fc 94F85B00 		ldrb	r0, [r4, #91]	@ zero_extendqisi2
 1165 0100 94F85830 		ldrb	r3, [r4, #88]	@ zero_extendqisi2
 1166 0104 94F85920 		ldrb	r2, [r4, #89]	@ zero_extendqisi2
 1167              	.LVL145:
 1168 0108 0904     		lsls	r1, r1, #16
 1169 010a 41EA0060 		orr	r0, r1, r0, lsl #24
 1170 010e 0343     		orrs	r3, r3, r0
 1171 0110 43EA0222 		orr	r2, r3, r2, lsl #8
 1172              	.LVL146:
 1173              	.L191:
 1174              		.loc 1 2090 0 is_stmt 1
 1175 0114 94F84410 		ldrb	r1, [r4, #68]	@ zero_extendqisi2
 1176              	.LVL147:
 1177              		.loc 1 2088 0
 1178 0118 2262     		str	r2, [r4, #32]
 1179              		.loc 1 2091 0
 1180 011a 481E     		subs	r0, r1, #1
 1181 011c 0128     		cmp	r0, #1
 1182              		.loc 1 2090 0
 1183 011e E170     		strb	r1, [r4, #3]
 1184              		.loc 1 2091 0
 1185 0120 BCD8     		bhi	.L190
 1186              		.loc 1 2094 0
 1187 0122 94F84130 		ldrb	r3, [r4, #65]	@ zero_extendqisi2
 1188              		.loc 1 2092 0
 1189 0126 01FB02FC 		mul	ip, r1, r2
 1190              	.LVL148:
ARM GAS  C:\Users\Matuesz\AppData\Local\Temp\ccSJWVN7.s 			page 22


 1191              		.loc 1 2094 0
 1192 012a A370     		strb	r3, [r4, #2]
 1193              		.loc 1 2095 0
 1194 012c 002B     		cmp	r3, #0
 1195 012e B5D0     		beq	.L190
 1196              		.loc 1 2095 0 is_stmt 0 discriminator 2
 1197 0130 591E     		subs	r1, r3, #1
 1198 0132 1942     		tst	r1, r3
 1199 0134 B2D1     		bne	.L190
 1200              		.loc 1 2097 0 is_stmt 1
 1201 0136 94F84510 		ldrb	r1, [r4, #69]	@ zero_extendqisi2
 1202 013a 94F84600 		ldrb	r0, [r4, #70]	@ zero_extendqisi2
 1203 013e 41EA0020 		orr	r0, r1, r0, lsl #8
 1204 0142 81B2     		uxth	r1, r0
 1205              		.loc 1 2098 0
 1206 0144 0007     		lsls	r0, r0, #28
 1207              		.loc 1 2097 0
 1208 0146 2181     		strh	r1, [r4, #8]	@ movhi
 1209              		.loc 1 2098 0
 1210 0148 A8D1     		bne	.L190
 1211              		.loc 1 2100 0
 1212 014a 94F84860 		ldrb	r6, [r4, #72]	@ zero_extendqisi2
 1213 014e 94F84770 		ldrb	r7, [r4, #71]	@ zero_extendqisi2
 1214              	.LVL149:
 1215              		.loc 1 2101 0
 1216 0152 57EA0626 		orrs	r6, r7, r6, lsl #8
 1217              	.LVL150:
 1218 0156 0DD1     		bne	.L192
 1219              		.loc 1 2101 0 is_stmt 0 discriminator 1
 1220 0158 94F85670 		ldrb	r7, [r4, #86]	@ zero_extendqisi2
 1221 015c 94F85780 		ldrb	r8, [r4, #87]	@ zero_extendqisi2
 1222 0160 94F85400 		ldrb	r0, [r4, #84]	@ zero_extendqisi2
 1223 0164 94F85560 		ldrb	r6, [r4, #85]	@ zero_extendqisi2
 1224              	.LVL151:
 1225 0168 3F04     		lsls	r7, r7, #16
 1226 016a 47EA0867 		orr	r7, r7, r8, lsl #24
 1227 016e 3843     		orrs	r0, r0, r7
 1228 0170 40EA0626 		orr	r6, r0, r6, lsl #8
 1229              	.LVL152:
 1230              	.L192:
 1231              		.loc 1 2103 0 is_stmt 1
 1232 0174 94F84370 		ldrb	r7, [r4, #67]	@ zero_extendqisi2
 1233 0178 94F84200 		ldrb	r0, [r4, #66]	@ zero_extendqisi2
 1234              	.LVL153:
 1235              		.loc 1 2104 0
 1236 017c 50EA0727 		orrs	r7, r0, r7, lsl #8
 1237              	.LVL154:
 1238 0180 8CD0     		beq	.L190
 1239              		.loc 1 2107 0
 1240 0182 07EB1110 		add	r0, r7, r1, lsr #4
 1241              	.LVL155:
 1242 0186 6044     		add	r0, r0, ip
 1243              	.LVL156:
 1244              		.loc 1 2108 0
 1245 0188 8642     		cmp	r6, r0
 1246 018a 87D3     		bcc	.L190
 1247              		.loc 1 2109 0
ARM GAS  C:\Users\Matuesz\AppData\Local\Temp\ccSJWVN7.s 			page 23


 1248 018c 361A     		subs	r6, r6, r0
 1249              	.LVL157:
 1250 018e B6FBF3F3 		udiv	r3, r6, r3
 1251              	.LVL158:
 1252              		.loc 1 2110 0
 1253 0192 002B     		cmp	r3, #0
 1254 0194 82D0     		beq	.L190
 1255              	.LVL159:
 1256              		.loc 1 2112 0
 1257 0196 40F6F576 		movw	r6, #4085
 1258 019a B342     		cmp	r3, r6
 1259 019c 40F2BF80 		bls	.L211
 1260              	.LVL160:
 1261              		.loc 1 2113 0
 1262 01a0 06F57046 		add	r6, r6, #61440
 1263 01a4 B342     		cmp	r3, r6
 1264 01a6 00F29F80 		bhi	.L194
 1265              		.loc 1 2112 0
 1266 01aa 0226     		movs	r6, #2
 1267              	.LVL161:
 1268              	.L193:
 1269              		.loc 1 2116 0
 1270 01ac 0233     		adds	r3, r3, #2
 1271              	.LVL162:
 1272              		.loc 1 2117 0
 1273 01ae 4019     		adds	r0, r0, r5
 1274              	.LVL163:
 1275              		.loc 1 2118 0
 1276 01b0 EF19     		adds	r7, r5, r7
 1277              	.LVL164:
 1278              		.loc 1 2116 0
 1279 01b2 E361     		str	r3, [r4, #28]
 1280              		.loc 1 2117 0
 1281 01b4 E062     		str	r0, [r4, #44]
 1282              		.loc 1 2118 0
 1283 01b6 6762     		str	r7, [r4, #36]
 1284              		.loc 1 2124 0
 1285 01b8 0029     		cmp	r1, #0
 1286 01ba 3FF46FAF 		beq	.L190
 1287              		.loc 1 2125 0
 1288 01be 6744     		add	r7, ip, r7
 1289              		.loc 1 2127 0
 1290 01c0 022E     		cmp	r6, #2
 1291              		.loc 1 2125 0
 1292 01c2 A762     		str	r7, [r4, #40]
 1293              		.loc 1 2127 0
 1294 01c4 00F08980 		beq	.L240
 1295              		.loc 1 2127 0 is_stmt 0 discriminator 2
 1296 01c8 0321     		movs	r1, #3
 1297              	.LVL165:
 1298 01ca 01FB03F6 		mul	r6, r1, r3
 1299              	.LVL166:
 1300 01ce 03F00103 		and	r3, r3, #1
 1301              	.LVL167:
 1302 01d2 03EB5600 		add	r0, r3, r6, lsr #1
 1303 01d6 0126     		movs	r6, #1
 1304              	.LVL168:
ARM GAS  C:\Users\Matuesz\AppData\Local\Temp\ccSJWVN7.s 			page 24


 1305              	.L195:
 1306              		.loc 1 2129 0 is_stmt 1
 1307 01d8 00F2FF13 		addw	r3, r0, #511
 1308 01dc B2EB532F 		cmp	r2, r3, lsr #9
 1309 01e0 FFF45CAF 		bcc	.L190
 1310              		.loc 1 2135 0
 1311 01e4 0020     		movs	r0, #0
 1312              	.LVL169:
 1313              		.loc 1 2134 0
 1314 01e6 4FF0FF32 		mov	r2, #-1
 1315              		.loc 1 2138 0
 1316 01ea 032E     		cmp	r6, #3
 1317              		.loc 1 2134 0
 1318 01ec 6261     		str	r2, [r4, #20]
 1319              		.loc 1 2135 0
 1320 01ee 2061     		str	r0, [r4, #16]
 1321              		.loc 1 2138 0
 1322 01f0 0ED0     		beq	.L241
 1323              	.LVL170:
 1324              	.L198:
 1325              		.loc 1 2151 0
 1326 01f2 3C4A     		ldr	r2, .L242+4
 1327              		.loc 1 2150 0
 1328 01f4 2670     		strb	r6, [r4, #0]
 1329              		.loc 1 2151 0
 1330 01f6 1388     		ldrh	r3, [r2, #0]
 1331 01f8 591C     		adds	r1, r3, #1
 1332              		.loc 1 2152 0
 1333 01fa 0020     		movs	r0, #0
 1334              		.loc 1 2151 0
 1335 01fc 8BB2     		uxth	r3, r1
 1336 01fe 1380     		strh	r3, [r2, #0]	@ movhi
 1337 0200 E380     		strh	r3, [r4, #6]	@ movhi
 1338              		.loc 1 2152 0
 1339 0202 2063     		str	r0, [r4, #48]
 1340              		.loc 1 2153 0
 1341 0204 2071     		strb	r0, [r4, #4]
 1342              		.loc 1 2161 0
 1343 0206 BDE8F081 		pop	{r4, r5, r6, r7, r8, pc}
 1344              	.LVL171:
 1345              	.L210:
 1346              		.loc 1 2078 0
 1347 020a 0120     		movs	r0, #1
 1348              	.LVL172:
 1349 020c BDE8F081 		pop	{r4, r5, r6, r7, r8, pc}
 1350              	.LVL173:
 1351              	.L241:
 1352              		.loc 1 2140 0
 1353 0210 94F86510 		ldrb	r1, [r4, #101]	@ zero_extendqisi2
 1354 0214 94F86430 		ldrb	r3, [r4, #100]	@ zero_extendqisi2
 1355              	.LVL174:
 1356              		.loc 1 2139 0
 1357 0218 6071     		strb	r0, [r4, #5]
 1358              		.loc 1 2140 0
 1359 021a 43EA0120 		orr	r0, r3, r1, lsl #8
 1360 021e 2A18     		adds	r2, r5, r0
 1361 0220 A261     		str	r2, [r4, #24]
ARM GAS  C:\Users\Matuesz\AppData\Local\Temp\ccSJWVN7.s 			page 25


 1362              		.loc 1 2141 0
 1363 0222 6078     		ldrb	r0, [r4, #1]	@ zero_extendqisi2
 1364 0224 04F13401 		add	r1, r4, #52
 1365 0228 0123     		movs	r3, #1
 1366 022a FFF7FEFF 		bl	disk_read
 1367              	.LVL175:
 1368 022e 0028     		cmp	r0, #0
 1369 0230 DFD1     		bne	.L198
 1370              		.loc 1 2142 0 discriminator 1
 1371 0232 94F83312 		ldrb	r1, [r4, #563]	@ zero_extendqisi2
 1372 0236 94F83222 		ldrb	r2, [r4, #562]	@ zero_extendqisi2
 1373              		.loc 1 2141 0 discriminator 1
 1374 023a 4AF65523 		movw	r3, #43605
 1375              		.loc 1 2142 0 discriminator 1
 1376 023e 42EA0120 		orr	r0, r2, r1, lsl #8
 1377              		.loc 1 2141 0 discriminator 1
 1378 0242 01B2     		sxth	r1, r0
 1379 0244 CFF6FF73 		movt	r3, 65535
 1380 0248 9942     		cmp	r1, r3
 1381 024a D2D1     		bne	.L198
 1382              		.loc 1 2143 0
 1383 024c 94F83620 		ldrb	r2, [r4, #54]	@ zero_extendqisi2
 1384 0250 94F83700 		ldrb	r0, [r4, #55]	@ zero_extendqisi2
 1385 0254 94F83430 		ldrb	r3, [r4, #52]	@ zero_extendqisi2
 1386 0258 94F83510 		ldrb	r1, [r4, #53]	@ zero_extendqisi2
 1387 025c 1204     		lsls	r2, r2, #16
 1388 025e 42EA0060 		orr	r0, r2, r0, lsl #24
 1389 0262 1843     		orrs	r0, r0, r3
 1390              		.loc 1 2142 0
 1391 0264 45F25223 		movw	r3, #21074
 1392              		.loc 1 2143 0
 1393 0268 40EA0121 		orr	r1, r0, r1, lsl #8
 1394              		.loc 1 2142 0
 1395 026c C4F26113 		movt	r3, 16737
 1396 0270 9942     		cmp	r1, r3
 1397 0272 BED1     		bne	.L198
 1398              		.loc 1 2144 0
 1399 0274 94F81A22 		ldrb	r2, [r4, #538]	@ zero_extendqisi2
 1400 0278 94F81B02 		ldrb	r0, [r4, #539]	@ zero_extendqisi2
 1401 027c 94F81832 		ldrb	r3, [r4, #536]	@ zero_extendqisi2
 1402 0280 94F81912 		ldrb	r1, [r4, #537]	@ zero_extendqisi2
 1403 0284 1204     		lsls	r2, r2, #16
 1404 0286 42EA0060 		orr	r0, r2, r0, lsl #24
 1405 028a 1843     		orrs	r0, r0, r3
 1406              		.loc 1 2143 0
 1407 028c 47F27223 		movw	r3, #29298
 1408              		.loc 1 2144 0
 1409 0290 40EA0121 		orr	r1, r0, r1, lsl #8
 1410              		.loc 1 2143 0
 1411 0294 C6F24113 		movt	r3, 24897
 1412 0298 9942     		cmp	r1, r3
 1413 029a AAD1     		bne	.L198
 1414              		.loc 1 2145 0
 1415 029c 94F82272 		ldrb	r7, [r4, #546]	@ zero_extendqisi2
 1416              		.loc 1 2146 0
 1417 02a0 94F81E52 		ldrb	r5, [r4, #542]	@ zero_extendqisi2
 1418              	.LVL176:
ARM GAS  C:\Users\Matuesz\AppData\Local\Temp\ccSJWVN7.s 			page 26


 1419              		.loc 1 2145 0
 1420 02a4 94F82382 		ldrb	r8, [r4, #547]	@ zero_extendqisi2
 1421              		.loc 1 2146 0
 1422 02a8 94F81FE2 		ldrb	lr, [r4, #543]	@ zero_extendqisi2
 1423              		.loc 1 2145 0
 1424 02ac 94F82022 		ldrb	r2, [r4, #544]	@ zero_extendqisi2
 1425              		.loc 1 2146 0
 1426 02b0 94F81C32 		ldrb	r3, [r4, #540]	@ zero_extendqisi2
 1427              		.loc 1 2145 0
 1428 02b4 94F82102 		ldrb	r0, [r4, #545]	@ zero_extendqisi2
 1429              		.loc 1 2146 0
 1430 02b8 94F81D12 		ldrb	r1, [r4, #541]	@ zero_extendqisi2
 1431              		.loc 1 2145 0
 1432 02bc 3F04     		lsls	r7, r7, #16
 1433              		.loc 1 2146 0
 1434 02be 2D04     		lsls	r5, r5, #16
 1435              		.loc 1 2145 0
 1436 02c0 47EA0867 		orr	r7, r7, r8, lsl #24
 1437              		.loc 1 2146 0
 1438 02c4 45EA0E65 		orr	r5, r5, lr, lsl #24
 1439              		.loc 1 2145 0
 1440 02c8 3A43     		orrs	r2, r2, r7
 1441              		.loc 1 2146 0
 1442 02ca 2B43     		orrs	r3, r3, r5
 1443              		.loc 1 2145 0
 1444 02cc 42EA0020 		orr	r0, r2, r0, lsl #8
 1445              		.loc 1 2146 0
 1446 02d0 43EA0121 		orr	r1, r3, r1, lsl #8
 1447              		.loc 1 2145 0
 1448 02d4 2061     		str	r0, [r4, #16]
 1449              		.loc 1 2146 0
 1450 02d6 6161     		str	r1, [r4, #20]
 1451 02d8 8BE7     		b	.L198
 1452              	.LVL177:
 1453              	.L240:
 1454              		.loc 1 2127 0 discriminator 1
 1455 02da 5800     		lsls	r0, r3, #1
 1456 02dc 7CE7     		b	.L195
 1457              	.L243:
 1458 02de 00BF     		.align	2
 1459              	.L242:
 1460 02e0 00000000 		.word	.LANCHOR0
 1461 02e4 00000000 		.word	.LANCHOR1
 1462              	.LVL178:
 1463              	.L194:
 1464              		.loc 1 2116 0
 1465 02e8 0233     		adds	r3, r3, #2
 1466              	.LVL179:
 1467              		.loc 1 2117 0
 1468 02ea 4019     		adds	r0, r0, r5
 1469              	.LVL180:
 1470              		.loc 1 2118 0
 1471 02ec EF19     		adds	r7, r5, r7
 1472              	.LVL181:
 1473              		.loc 1 2116 0
 1474 02ee E361     		str	r3, [r4, #28]
 1475              		.loc 1 2117 0
ARM GAS  C:\Users\Matuesz\AppData\Local\Temp\ccSJWVN7.s 			page 27


 1476 02f0 E062     		str	r0, [r4, #44]
 1477              		.loc 1 2118 0
 1478 02f2 6762     		str	r7, [r4, #36]
 1479              		.loc 1 2120 0
 1480 02f4 0029     		cmp	r1, #0
 1481 02f6 7FF4D1AE 		bne	.L190
 1482              		.loc 1 2121 0
 1483 02fa 94F86260 		ldrb	r6, [r4, #98]	@ zero_extendqisi2
 1484 02fe 94F86370 		ldrb	r7, [r4, #99]	@ zero_extendqisi2
 1485 0302 94F86010 		ldrb	r1, [r4, #96]	@ zero_extendqisi2
 1486              	.LVL182:
 1487 0306 94F86100 		ldrb	r0, [r4, #97]	@ zero_extendqisi2
 1488 030a 3604     		lsls	r6, r6, #16
 1489 030c 46EA0766 		orr	r6, r6, r7, lsl #24
 1490 0310 3143     		orrs	r1, r1, r6
 1491 0312 41EA0020 		orr	r0, r1, r0, lsl #8
 1492 0316 A062     		str	r0, [r4, #40]
 1493              		.loc 1 2113 0
 1494 0318 0326     		movs	r6, #3
 1495              		.loc 1 2122 0
 1496 031a 9800     		lsls	r0, r3, #2
 1497              	.LVL183:
 1498 031c 5CE7     		b	.L195
 1499              	.LVL184:
 1500              	.L211:
 1501              		.loc 1 2111 0
 1502 031e 0126     		movs	r6, #1
 1503 0320 44E7     		b	.L193
 1504              		.cfi_endproc
 1505              	.LFE35:
 1506              		.size	chk_mounted, .-chk_mounted
 1507 0322 00BFAFF3 		.section	.text.clust2sect,"ax",%progbits
 1507      0080AFF3 
 1507      0080AFF3 
 1507      0080
 1508              		.align	2
 1509              		.p2align 4,,15
 1510              		.global	clust2sect
 1511              		.thumb
 1512              		.thumb_func
 1513              		.type	clust2sect, %function
 1514              	clust2sect:
 1515              	.LFB15:
 1516              		.loc 1 805 0
 1517              		.cfi_startproc
 1518              		@ args = 0, pretend = 0, frame = 0
 1519              		@ frame_needed = 0, uses_anonymous_args = 0
 1520              		@ link register save eliminated.
 1521              	.LVL185:
 1522              		.loc 1 807 0
 1523 0000 C369     		ldr	r3, [r0, #28]
 1524              		.loc 1 806 0
 1525 0002 0239     		subs	r1, r1, #2
 1526              	.LVL186:
 1527              		.loc 1 807 0
 1528 0004 9A1E     		subs	r2, r3, #2
 1529 0006 9142     		cmp	r1, r2
ARM GAS  C:\Users\Matuesz\AppData\Local\Temp\ccSJWVN7.s 			page 28


 1530 0008 04D2     		bcs	.L246
 1531              		.loc 1 808 0
 1532 000a 8278     		ldrb	r2, [r0, #2]	@ zero_extendqisi2
 1533 000c C06A     		ldr	r0, [r0, #44]
 1534              	.LVL187:
 1535 000e 02FB0100 		mla	r0, r2, r1, r0
 1536 0012 7047     		bx	lr
 1537              	.LVL188:
 1538              	.L246:
 1539              		.loc 1 807 0
 1540 0014 0020     		movs	r0, #0
 1541              	.LVL189:
 1542              		.loc 1 809 0
 1543 0016 7047     		bx	lr
 1544              		.cfi_endproc
 1545              	.LFE15:
 1546              		.size	clust2sect, .-clust2sect
 1547 0018 AFF30080 		.section	.text.get_fat,"ax",%progbits
 1547      AFF30080 
 1548              		.align	2
 1549              		.p2align 4,,15
 1550              		.global	get_fat
 1551              		.thumb
 1552              		.thumb_func
 1553              		.type	get_fat, %function
 1554              	get_fat:
 1555              	.LFB16:
 1556              		.loc 1 823 0
 1557              		.cfi_startproc
 1558              		@ args = 0, pretend = 0, frame = 0
 1559              		@ frame_needed = 0, uses_anonymous_args = 0
 1560              	.LVL190:
 1561              		.loc 1 828 0
 1562 0000 0129     		cmp	r1, #1
 1563              		.loc 1 823 0
 1564 0002 F8B5     		push	{r3, r4, r5, r6, r7, lr}
 1565              	.LCFI6:
 1566              		.cfi_def_cfa_offset 24
 1567              		.cfi_offset 3, -24
 1568              		.cfi_offset 4, -20
 1569              		.cfi_offset 5, -16
 1570              		.cfi_offset 6, -12
 1571              		.cfi_offset 7, -8
 1572              		.cfi_offset 14, -4
 1573              		.loc 1 823 0
 1574 0004 0C46     		mov	r4, r1
 1575 0006 0546     		mov	r5, r0
 1576              		.loc 1 828 0
 1577 0008 0CD9     		bls	.L257
 1578              		.loc 1 828 0 is_stmt 0 discriminator 1
 1579 000a C369     		ldr	r3, [r0, #28]
 1580 000c 9942     		cmp	r1, r3
 1581 000e 09D2     		bcs	.L257
 1582              	.LVL191:
 1583              	.LBB103:
 1584              	.LBB104:
 1585              		.loc 1 831 0 is_stmt 1
ARM GAS  C:\Users\Matuesz\AppData\Local\Temp\ccSJWVN7.s 			page 29


 1586 0010 0178     		ldrb	r1, [r0, #0]	@ zero_extendqisi2
 1587              	.LVL192:
 1588 0012 0229     		cmp	r1, #2
 1589 0014 46D0     		beq	.L251
 1590 0016 0329     		cmp	r1, #3
 1591 0018 28D0     		beq	.L252
 1592 001a 0129     		cmp	r1, #1
 1593 001c 04D0     		beq	.L260
 1594              	.LVL193:
 1595              	.L259:
 1596              		.loc 1 851 0
 1597 001e 4FF0FF30 		mov	r0, #-1
 1598 0022 F8BD     		pop	{r3, r4, r5, r6, r7, pc}
 1599              	.LVL194:
 1600              	.L257:
 1601              	.LBE104:
 1602              	.LBE103:
 1603              		.loc 1 829 0
 1604 0024 0120     		movs	r0, #1
 1605              	.LVL195:
 1606              		.loc 1 852 0
 1607 0026 F8BD     		pop	{r3, r4, r5, r6, r7, pc}
 1608              	.LVL196:
 1609              	.L260:
 1610              	.LBB106:
 1611              	.LBB105:
 1612              		.loc 1 834 0
 1613 0028 426A     		ldr	r2, [r0, #36]
 1614              		.loc 1 833 0
 1615 002a 04EB5406 		add	r6, r4, r4, lsr #1
 1616              	.LVL197:
 1617              		.loc 1 834 0
 1618 002e 02EB5621 		add	r1, r2, r6, lsr #9
 1619 0032 FFF7FEFF 		bl	move_window
 1620              	.LVL198:
 1621 0036 0028     		cmp	r0, #0
 1622 0038 F1D1     		bne	.L259
 1623              		.loc 1 835 0
 1624 003a F005     		lsls	r0, r6, #23
 1625 003c C70D     		lsrs	r7, r0, #23
 1626              		.loc 1 836 0
 1627 003e 696A     		ldr	r1, [r5, #36]
 1628              		.loc 1 835 0
 1629 0040 EB19     		adds	r3, r5, r7
 1630 0042 0136     		adds	r6, r6, #1
 1631              	.LVL199:
 1632              		.loc 1 836 0
 1633 0044 2846     		mov	r0, r5
 1634 0046 01EB5621 		add	r1, r1, r6, lsr #9
 1635              		.loc 1 835 0
 1636 004a 93F83470 		ldrb	r7, [r3, #52]	@ zero_extendqisi2
 1637              	.LVL200:
 1638              		.loc 1 836 0
 1639 004e FFF7FEFF 		bl	move_window
 1640              	.LVL201:
 1641 0052 0028     		cmp	r0, #0
 1642 0054 E3D1     		bne	.L259
ARM GAS  C:\Users\Matuesz\AppData\Local\Temp\ccSJWVN7.s 			page 30


 1643              		.loc 1 837 0
 1644 0056 F605     		lsls	r6, r6, #23
 1645              	.LVL202:
 1646 0058 F60D     		lsrs	r6, r6, #23
 1647 005a AD19     		adds	r5, r5, r6
 1648              	.LVL203:
 1649              		.loc 1 838 0
 1650 005c E307     		lsls	r3, r4, #31
 1651              		.loc 1 837 0
 1652 005e 95F83420 		ldrb	r2, [r5, #52]	@ zero_extendqisi2
 1653 0062 47EA0220 		orr	r0, r7, r2, lsl #8
 1654              	.LVL204:
 1655              		.loc 1 838 0
 1656 0066 2FD5     		bpl	.L255
 1657 0068 0009     		lsrs	r0, r0, #4
 1658              	.LVL205:
 1659 006a F8BD     		pop	{r3, r4, r5, r6, r7, pc}
 1660              	.LVL206:
 1661              	.L252:
 1662              		.loc 1 846 0
 1663 006c 436A     		ldr	r3, [r0, #36]
 1664 006e 03EBD411 		add	r1, r3, r4, lsr #7
 1665 0072 FFF7FEFF 		bl	move_window
 1666              	.LVL207:
 1667 0076 0028     		cmp	r0, #0
 1668 0078 D1D1     		bne	.L259
 1669              		.loc 1 847 0
 1670 007a 6406     		lsls	r4, r4, #25
 1671              	.LVL208:
 1672 007c E20D     		lsrs	r2, r4, #23
 1673 007e A818     		adds	r0, r5, r2
 1674              	.LVL209:
 1675              		.loc 1 848 0
 1676 0080 0446     		mov	r4, r0
 1677 0082 90F83720 		ldrb	r2, [r0, #55]	@ zero_extendqisi2
 1678 0086 90F83610 		ldrb	r1, [r0, #54]	@ zero_extendqisi2
 1679 008a 90F83500 		ldrb	r0, [r0, #53]	@ zero_extendqisi2
 1680              	.LVL210:
 1681 008e 94F83430 		ldrb	r3, [r4, #52]	@ zero_extendqisi2
 1682 0092 1206     		lsls	r2, r2, #24
 1683 0094 42EA0141 		orr	r1, r2, r1, lsl #16
 1684 0098 41EA0020 		orr	r0, r1, r0, lsl #8
 1685 009c 1843     		orrs	r0, r0, r3
 1686 009e 20F07040 		bic	r0, r0, #-268435456
 1687 00a2 F8BD     		pop	{r3, r4, r5, r6, r7, pc}
 1688              	.LVL211:
 1689              	.L251:
 1690              		.loc 1 841 0
 1691 00a4 436A     		ldr	r3, [r0, #36]
 1692 00a6 03EB1421 		add	r1, r3, r4, lsr #8
 1693 00aa FFF7FEFF 		bl	move_window
 1694              	.LVL212:
 1695 00ae 0028     		cmp	r0, #0
 1696 00b0 B5D1     		bne	.L259
 1697              		.loc 1 842 0
 1698 00b2 2406     		lsls	r4, r4, #24
 1699              	.LVL213:
ARM GAS  C:\Users\Matuesz\AppData\Local\Temp\ccSJWVN7.s 			page 31


 1700 00b4 E20D     		lsrs	r2, r4, #23
 1701              	.LVL214:
 1702              		.loc 1 843 0
 1703 00b6 A918     		adds	r1, r5, r2
 1704 00b8 0C46     		mov	r4, r1
 1705 00ba 91F83430 		ldrb	r3, [r1, #52]	@ zero_extendqisi2
 1706 00be 91F83500 		ldrb	r0, [r1, #53]	@ zero_extendqisi2
 1707 00c2 43EA0020 		orr	r0, r3, r0, lsl #8
 1708 00c6 F8BD     		pop	{r3, r4, r5, r6, r7, pc}
 1709              	.LVL215:
 1710              	.L255:
 1711              		.loc 1 838 0
 1712 00c8 0105     		lsls	r1, r0, #20
 1713 00ca 080D     		lsrs	r0, r1, #20
 1714              	.LVL216:
 1715 00cc F8BD     		pop	{r3, r4, r5, r6, r7, pc}
 1716              	.LBE105:
 1717              	.LBE106:
 1718              		.cfi_endproc
 1719              	.LFE16:
 1720              		.size	get_fat, .-get_fat
 1721 00ce 00BF     		.section	.text.dir_sdi,"ax",%progbits
 1722              		.align	2
 1723              		.p2align 4,,15
 1724              		.thumb
 1725              		.thumb_func
 1726              		.type	dir_sdi, %function
 1727              	dir_sdi:
 1728              	.LFB20:
 1729              		.loc 1 1069 0
 1730              		.cfi_startproc
 1731              		@ args = 0, pretend = 0, frame = 0
 1732              		@ frame_needed = 0, uses_anonymous_args = 0
 1733              	.LVL217:
 1734 0000 70B5     		push	{r4, r5, r6, lr}
 1735              	.LCFI7:
 1736              		.cfi_def_cfa_offset 16
 1737              		.cfi_offset 4, -16
 1738              		.cfi_offset 5, -12
 1739              		.cfi_offset 6, -8
 1740              		.cfi_offset 14, -4
 1741              		.loc 1 1069 0
 1742 0002 0C46     		mov	r4, r1
 1743              		.loc 1 1075 0
 1744 0004 8168     		ldr	r1, [r0, #8]
 1745              	.LVL218:
 1746              		.loc 1 1074 0
 1747 0006 C480     		strh	r4, [r0, #6]	@ movhi
 1748              		.loc 1 1076 0
 1749 0008 0129     		cmp	r1, #1
 1750              		.loc 1 1069 0
 1751 000a 0546     		mov	r5, r0
 1752              		.loc 1 1076 0
 1753 000c 03D0     		beq	.L264
 1754              		.loc 1 1076 0 is_stmt 0 discriminator 1
 1755 000e 0068     		ldr	r0, [r0, #0]
 1756              	.LVL219:
ARM GAS  C:\Users\Matuesz\AppData\Local\Temp\ccSJWVN7.s 			page 32


 1757 0010 C369     		ldr	r3, [r0, #28]
 1758 0012 9942     		cmp	r1, r3
 1759 0014 01D3     		bcc	.L275
 1760              	.LVL220:
 1761              	.L264:
 1762              		.loc 1 1077 0 is_stmt 1
 1763 0016 0220     		movs	r0, #2
 1764 0018 70BD     		pop	{r4, r5, r6, pc}
 1765              	.LVL221:
 1766              	.L275:
 1767              		.loc 1 1078 0
 1768 001a B1B9     		cbnz	r1, .L265
 1769              		.loc 1 1078 0 is_stmt 0 discriminator 1
 1770 001c 0178     		ldrb	r1, [r0, #0]	@ zero_extendqisi2
 1771              	.LVL222:
 1772 001e 0329     		cmp	r1, #3
 1773 0020 10D0     		beq	.L276
 1774              	.LVL223:
 1775              	.L266:
 1776              		.loc 1 1083 0 is_stmt 1
 1777 0022 0189     		ldrh	r1, [r0, #8]
 1778              		.loc 1 1082 0
 1779 0024 0023     		movs	r3, #0
 1780              		.loc 1 1083 0
 1781 0026 A142     		cmp	r1, r4
 1782              		.loc 1 1082 0
 1783 0028 EB60     		str	r3, [r5, #12]
 1784              		.loc 1 1083 0
 1785 002a F4D9     		bls	.L264
 1786              		.loc 1 1085 0
 1787 002c 826A     		ldr	r2, [r0, #40]
 1788 002e 02EB1411 		add	r1, r2, r4, lsr #4
 1789 0032 2961     		str	r1, [r5, #16]
 1790              	.LVL224:
 1791              	.L267:
 1792              		.loc 1 1100 0
 1793 0034 04F00F04 		and	r4, r4, #15
 1794              	.LVL225:
 1795 0038 00EB4410 		add	r0, r0, r4, lsl #5
 1796 003c 3430     		adds	r0, r0, #52
 1797 003e 6861     		str	r0, [r5, #20]
 1798              		.loc 1 1102 0
 1799 0040 0020     		movs	r0, #0
 1800 0042 70BD     		pop	{r4, r5, r6, pc}
 1801              	.LVL226:
 1802              	.L276:
 1803              		.loc 1 1079 0
 1804 0044 816A     		ldr	r1, [r0, #40]
 1805              	.LVL227:
 1806              		.loc 1 1081 0
 1807 0046 0029     		cmp	r1, #0
 1808 0048 EBD0     		beq	.L266
 1809              	.L265:
 1810              		.loc 1 1088 0
 1811 004a 8678     		ldrb	r6, [r0, #2]	@ zero_extendqisi2
 1812 004c 3601     		lsls	r6, r6, #4
 1813              	.LVL228:
ARM GAS  C:\Users\Matuesz\AppData\Local\Temp\ccSJWVN7.s 			page 33


 1814              		.loc 1 1089 0
 1815 004e B442     		cmp	r4, r6
 1816 0050 08D2     		bcs	.L273
 1817 0052 10E0     		b	.L268
 1818              	.LVL229:
 1819              	.L277:
 1820              		.loc 1 1092 0
 1821 0054 0128     		cmp	r0, #1
 1822 0056 DED9     		bls	.L264
 1823              		.loc 1 1092 0 is_stmt 0 discriminator 1
 1824 0058 2868     		ldr	r0, [r5, #0]
 1825              	.LVL230:
 1826 005a C269     		ldr	r2, [r0, #28]
 1827 005c 9142     		cmp	r1, r2
 1828 005e DAD2     		bcs	.L264
 1829              		.loc 1 1089 0 is_stmt 1
 1830 0060 A642     		cmp	r6, r4
 1831 0062 08D8     		bhi	.L268
 1832              	.LVL231:
 1833              	.L273:
 1834              		.loc 1 1090 0
 1835 0064 FFF7FEFF 		bl	get_fat
 1836              	.LVL232:
 1837              		.loc 1 1094 0
 1838 0068 A41B     		subs	r4, r4, r6
 1839              		.loc 1 1091 0
 1840 006a 431C     		adds	r3, r0, #1
 1841              		.loc 1 1090 0
 1842 006c 0146     		mov	r1, r0
 1843              	.LVL233:
 1844              		.loc 1 1094 0
 1845 006e A4B2     		uxth	r4, r4
 1846              	.LVL234:
 1847              		.loc 1 1091 0
 1848 0070 F0D1     		bne	.L277
 1849 0072 0120     		movs	r0, #1
 1850              	.LVL235:
 1851              		.loc 1 1103 0
 1852 0074 70BD     		pop	{r4, r5, r6, pc}
 1853              	.LVL236:
 1854              	.L268:
 1855              	.LBB107:
 1856              	.LBB108:
 1857              		.loc 1 807 0
 1858 0076 C369     		ldr	r3, [r0, #28]
 1859              	.LBE108:
 1860              	.LBE107:
 1861              		.loc 1 1096 0
 1862 0078 E960     		str	r1, [r5, #12]
 1863              	.LVL237:
 1864              	.LBB110:
 1865              	.LBB109:
 1866              		.loc 1 807 0
 1867 007a 023B     		subs	r3, r3, #2
 1868              		.loc 1 806 0
 1869 007c 0239     		subs	r1, r1, #2
 1870              	.LVL238:
ARM GAS  C:\Users\Matuesz\AppData\Local\Temp\ccSJWVN7.s 			page 34


 1871              		.loc 1 807 0
 1872 007e 9942     		cmp	r1, r3
 1873              		.loc 1 808 0
 1874 0080 3DBF     		ittte	cc
 1875 0082 8278     		ldrbcc	r2, [r0, #2]	@ zero_extendqisi2
 1876 0084 C36A     		ldrcc	r3, [r0, #44]
 1877 0086 02FB0131 		mlacc	r1, r2, r1, r3
 1878              	.LVL239:
 1879              		.loc 1 807 0
 1880 008a 0021     		movcs	r1, #0
 1881              	.LBE109:
 1882              	.LBE110:
 1883              		.loc 1 1097 0
 1884 008c 01EB1412 		add	r2, r1, r4, lsr #4
 1885 0090 2A61     		str	r2, [r5, #16]
 1886 0092 CFE7     		b	.L267
 1887              		.cfi_endproc
 1888              	.LFE20:
 1889              		.size	dir_sdi, .-dir_sdi
 1890 0094 AFF30080 		.section	.text.put_fat,"ax",%progbits
 1890      AFF30080 
 1890      AFF30080 
 1891              		.align	2
 1892              		.p2align 4,,15
 1893              		.global	put_fat
 1894              		.thumb
 1895              		.thumb_func
 1896              		.type	put_fat, %function
 1897              	put_fat:
 1898              	.LFB17:
 1899              		.loc 1 867 0
 1900              		.cfi_startproc
 1901              		@ args = 0, pretend = 0, frame = 8
 1902              		@ frame_needed = 0, uses_anonymous_args = 0
 1903              	.LVL240:
 1904 0000 F0B5     		push	{r4, r5, r6, r7, lr}
 1905              	.LCFI8:
 1906              		.cfi_def_cfa_offset 20
 1907              		.cfi_offset 4, -20
 1908              		.cfi_offset 5, -16
 1909              		.cfi_offset 6, -12
 1910              		.cfi_offset 7, -8
 1911              		.cfi_offset 14, -4
 1912              		.loc 1 873 0
 1913 0002 0129     		cmp	r1, #1
 1914              		.loc 1 867 0
 1915 0004 83B0     		sub	sp, sp, #12
 1916              	.LCFI9:
 1917              		.cfi_def_cfa_offset 32
 1918              		.loc 1 867 0
 1919 0006 0C46     		mov	r4, r1
 1920 0008 0546     		mov	r5, r0
 1921              		.loc 1 873 0
 1922 000a 02D9     		bls	.L289
 1923              		.loc 1 873 0 is_stmt 0 discriminator 1
 1924 000c C369     		ldr	r3, [r0, #28]
 1925 000e 9942     		cmp	r1, r3
ARM GAS  C:\Users\Matuesz\AppData\Local\Temp\ccSJWVN7.s 			page 35


 1926 0010 02D3     		bcc	.L292
 1927              	.L289:
 1928              		.loc 1 874 0 is_stmt 1
 1929 0012 0220     		movs	r0, #2
 1930              	.LVL241:
 1931              	.L279:
 1932              		.loc 1 914 0
 1933 0014 03B0     		add	sp, sp, #12
 1934 0016 F0BD     		pop	{r4, r5, r6, r7, pc}
 1935              	.LVL242:
 1936              	.L292:
 1937              	.LBB113:
 1938              	.LBB114:
 1939              		.loc 1 877 0
 1940 0018 0178     		ldrb	r1, [r0, #0]	@ zero_extendqisi2
 1941              	.LVL243:
 1942 001a 0229     		cmp	r1, #2
 1943 001c 27D0     		beq	.L282
 1944 001e 0329     		cmp	r1, #3
 1945 0020 05D0     		beq	.L283
 1946 0022 0129     		cmp	r1, #1
 1947 0024 37D0     		beq	.L293
 1948              		.loc 1 908 0
 1949 0026 0220     		movs	r0, #2
 1950              	.LVL244:
 1951              	.L280:
 1952              		.loc 1 910 0
 1953 0028 0122     		movs	r2, #1
 1954 002a 2A71     		strb	r2, [r5, #4]
 1955 002c F2E7     		b	.L279
 1956              	.LVL245:
 1957              	.L283:
 1958              		.loc 1 900 0
 1959 002e 436A     		ldr	r3, [r0, #36]
 1960 0030 0192     		str	r2, [sp, #4]
 1961 0032 03EBD411 		add	r1, r3, r4, lsr #7
 1962 0036 FFF7FEFF 		bl	move_window
 1963              	.LVL246:
 1964              		.loc 1 901 0
 1965 003a 019A     		ldr	r2, [sp, #4]
 1966 003c 0028     		cmp	r0, #0
 1967 003e F3D1     		bne	.L280
 1968              		.loc 1 902 0
 1969 0040 6406     		lsls	r4, r4, #25
 1970              	.LVL247:
 1971 0042 E70D     		lsrs	r7, r4, #23
 1972 0044 EB19     		adds	r3, r5, r7
 1973              	.LVL248:
 1974              		.loc 1 903 0
 1975 0046 1C46     		mov	r4, r3
 1976 0048 93F83760 		ldrb	r6, [r3, #55]	@ zero_extendqisi2
 1977 004c 3106     		lsls	r1, r6, #24
 1978 004e 01F07047 		and	r7, r1, #-268435456
 1979 0052 3A43     		orrs	r2, r2, r7
 1980              	.LVL249:
 1981              		.loc 1 904 0
 1982 0054 C2F30727 		ubfx	r7, r2, #8, #8
ARM GAS  C:\Users\Matuesz\AppData\Local\Temp\ccSJWVN7.s 			page 36


 1983 0058 160C     		lsrs	r6, r2, #16
 1984 005a 110E     		lsrs	r1, r2, #24
 1985 005c 83F83420 		strb	r2, [r3, #52]
 1986 0060 83F83570 		strb	r7, [r3, #53]
 1987 0064 83F83660 		strb	r6, [r3, #54]
 1988 0068 83F83710 		strb	r1, [r3, #55]
 1989 006c DCE7     		b	.L280
 1990              	.LVL250:
 1991              	.L282:
 1992              		.loc 1 893 0
 1993 006e 436A     		ldr	r3, [r0, #36]
 1994 0070 0192     		str	r2, [sp, #4]
 1995 0072 03EB1421 		add	r1, r3, r4, lsr #8
 1996 0076 FFF7FEFF 		bl	move_window
 1997              	.LVL251:
 1998              		.loc 1 894 0
 1999 007a 019A     		ldr	r2, [sp, #4]
 2000 007c 0028     		cmp	r0, #0
 2001 007e D3D1     		bne	.L280
 2002              		.loc 1 895 0
 2003 0080 2406     		lsls	r4, r4, #24
 2004              	.LVL252:
 2005 0082 E10D     		lsrs	r1, r4, #23
 2006              	.LVL253:
 2007              		.loc 1 896 0
 2008 0084 6918     		adds	r1, r5, r1
 2009              	.LVL254:
 2010 0086 C2F30723 		ubfx	r3, r2, #8, #8
 2011 008a 0C46     		mov	r4, r1
 2012              	.LVL255:
 2013 008c 81F83420 		strb	r2, [r1, #52]
 2014 0090 81F83530 		strb	r3, [r1, #53]
 2015 0094 C8E7     		b	.L280
 2016              	.LVL256:
 2017              	.L293:
 2018              		.loc 1 880 0
 2019 0096 436A     		ldr	r3, [r0, #36]
 2020 0098 0192     		str	r2, [sp, #4]
 2021              		.loc 1 879 0
 2022 009a 04EB5406 		add	r6, r4, r4, lsr #1
 2023              	.LVL257:
 2024              		.loc 1 880 0
 2025 009e 03EB5621 		add	r1, r3, r6, lsr #9
 2026 00a2 FFF7FEFF 		bl	move_window
 2027              	.LVL258:
 2028              		.loc 1 881 0
 2029 00a6 019A     		ldr	r2, [sp, #4]
 2030 00a8 0028     		cmp	r0, #0
 2031 00aa BDD1     		bne	.L280
 2032              		.loc 1 882 0
 2033 00ac F005     		lsls	r0, r6, #23
 2034              	.LVL259:
 2035 00ae C10D     		lsrs	r1, r0, #23
 2036              	.LVL260:
 2037              		.loc 1 883 0
 2038 00b0 14F00104 		ands	r4, r4, #1
 2039              	.LVL261:
ARM GAS  C:\Users\Matuesz\AppData\Local\Temp\ccSJWVN7.s 			page 37


 2040 00b4 20D0     		beq	.L284
 2041 00b6 6B18     		adds	r3, r5, r1
 2042              	.LBE114:
 2043              		.loc 1 3479 0
 2044 00b8 D0B2     		uxtb	r0, r2
 2045              		.loc 1 883 0
 2046 00ba 93F83410 		ldrb	r1, [r3, #52]	@ zero_extendqisi2
 2047              	.LVL262:
 2048 00be 01F00F01 		and	r1, r1, #15
 2049              	.LBB115:
 2050 00c2 41EA0010 		orr	r0, r1, r0, lsl #4
 2051 00c6 C0B2     		uxtb	r0, r0
 2052              	.L285:
 2053              		.loc 1 886 0
 2054 00c8 696A     		ldr	r1, [r5, #36]
 2055              		.loc 1 883 0
 2056 00ca 83F83400 		strb	r0, [r3, #52]
 2057              		.loc 1 884 0
 2058 00ce 0136     		adds	r6, r6, #1
 2059              	.LVL263:
 2060              		.loc 1 885 0
 2061 00d0 0123     		movs	r3, #1
 2062 00d2 2B71     		strb	r3, [r5, #4]
 2063              		.loc 1 886 0
 2064 00d4 2846     		mov	r0, r5
 2065 00d6 01EB5621 		add	r1, r1, r6, lsr #9
 2066 00da 0192     		str	r2, [sp, #4]
 2067 00dc FFF7FEFF 		bl	move_window
 2068              	.LVL264:
 2069              		.loc 1 887 0
 2070 00e0 019A     		ldr	r2, [sp, #4]
 2071 00e2 0028     		cmp	r0, #0
 2072 00e4 A0D1     		bne	.L280
 2073              		.loc 1 888 0
 2074 00e6 F605     		lsls	r6, r6, #23
 2075              	.LVL265:
 2076 00e8 F10D     		lsrs	r1, r6, #23
 2077              	.LVL266:
 2078              		.loc 1 889 0
 2079 00ea 44B1     		cbz	r4, .L286
 2080 00ec C2F30712 		ubfx	r2, r2, #4, #8
 2081 00f0 6E18     		adds	r6, r5, r1
 2082              	.LVL267:
 2083              	.L287:
 2084 00f2 86F83420 		strb	r2, [r6, #52]
 2085 00f6 97E7     		b	.L280
 2086              	.LVL268:
 2087              	.L284:
 2088              		.loc 1 883 0
 2089 00f8 D0B2     		uxtb	r0, r2
 2090 00fa 6B18     		adds	r3, r5, r1
 2091 00fc E4E7     		b	.L285
 2092              	.LVL269:
 2093              	.L286:
 2094              		.loc 1 889 0
 2095 00fe 6E18     		adds	r6, r5, r1
 2096              	.LBE115:
ARM GAS  C:\Users\Matuesz\AppData\Local\Temp\ccSJWVN7.s 			page 38


 2097 0100 C2F30322 		ubfx	r2, r2, #8, #4
 2098              	.LBB116:
 2099 0104 96F83430 		ldrb	r3, [r6, #52]	@ zero_extendqisi2
 2100 0108 23F00F01 		bic	r1, r3, #15
 2101              	.LVL270:
 2102 010c 0A43     		orrs	r2, r2, r1
 2103 010e F0E7     		b	.L287
 2104              	.LBE116:
 2105              	.LBE113:
 2106              		.cfi_endproc
 2107              	.LFE17:
 2108              		.size	put_fat, .-put_fat
 2109              		.section	.text.create_chain,"ax",%progbits
 2110              		.align	2
 2111              		.p2align 4,,15
 2112              		.thumb
 2113              		.thumb_func
 2114              		.type	create_chain, %function
 2115              	create_chain:
 2116              	.LFB19:
 2117              		.loc 1 982 0
 2118              		.cfi_startproc
 2119              		@ args = 0, pretend = 0, frame = 0
 2120              		@ frame_needed = 0, uses_anonymous_args = 0
 2121              	.LVL271:
 2122 0000 F8B5     		push	{r3, r4, r5, r6, r7, lr}
 2123              	.LCFI10:
 2124              		.cfi_def_cfa_offset 24
 2125              		.cfi_offset 3, -24
 2126              		.cfi_offset 4, -20
 2127              		.cfi_offset 5, -16
 2128              		.cfi_offset 6, -12
 2129              		.cfi_offset 7, -8
 2130              		.cfi_offset 14, -4
 2131              		.loc 1 982 0
 2132 0002 0546     		mov	r5, r0
 2133              		.loc 1 987 0
 2134 0004 0F46     		mov	r7, r1
 2135 0006 01BB     		cbnz	r1, .L295
 2136              		.loc 1 988 0
 2137 0008 0669     		ldr	r6, [r0, #16]
 2138              	.LVL272:
 2139 000a C369     		ldr	r3, [r0, #28]
 2140              		.loc 1 989 0
 2141 000c CEB1     		cbz	r6, .L324
 2142              		.loc 1 989 0 is_stmt 0 discriminator 2
 2143 000e 9E42     		cmp	r6, r3
 2144 0010 28BF     		it	cs
 2145 0012 0126     		movcs	r6, #1
 2146              	.LVL273:
 2147              	.L297:
 2148              		.loc 1 989 0
 2149 0014 3446     		mov	r4, r6
 2150              	.LVL274:
 2151              		.loc 1 1000 0 is_stmt 1
 2152 0016 0134     		adds	r4, r4, #1
 2153              	.LVL275:
ARM GAS  C:\Users\Matuesz\AppData\Local\Temp\ccSJWVN7.s 			page 39


 2154              		.loc 1 1001 0
 2155 0018 9C42     		cmp	r4, r3
 2156 001a 02D3     		bcc	.L300
 2157              	.L325:
 2158              		.loc 1 1003 0
 2159 001c 012E     		cmp	r6, #1
 2160 001e 12D9     		bls	.L304
 2161              		.loc 1 1002 0
 2162 0020 0224     		movs	r4, #2
 2163              	.LVL276:
 2164              	.L300:
 2165              		.loc 1 1005 0
 2166 0022 2846     		mov	r0, r5
 2167 0024 2146     		mov	r1, r4
 2168 0026 FFF7FEFF 		bl	get_fat
 2169              	.LVL277:
 2170              		.loc 1 1006 0
 2171 002a B8B1     		cbz	r0, .L301
 2172              		.loc 1 1007 0
 2173 002c 411C     		adds	r1, r0, #1
 2174 002e 20D0     		beq	.L310
 2175              		.loc 1 1007 0 is_stmt 0 discriminator 1
 2176 0030 0128     		cmp	r0, #1
 2177 0032 1CD0     		beq	.L322
 2178              		.loc 1 1009 0 is_stmt 1
 2179 0034 B442     		cmp	r4, r6
 2180 0036 06D0     		beq	.L304
 2181 0038 EB69     		ldr	r3, [r5, #28]
 2182              	.LVL278:
 2183              		.loc 1 1000 0
 2184 003a 0134     		adds	r4, r4, #1
 2185              	.LVL279:
 2186              		.loc 1 1001 0
 2187 003c 9C42     		cmp	r4, r3
 2188 003e EDD2     		bcs	.L325
 2189 0040 EFE7     		b	.L300
 2190              	.LVL280:
 2191              	.L324:
 2192              		.loc 1 989 0
 2193 0042 0126     		movs	r6, #1
 2194              	.LVL281:
 2195 0044 E6E7     		b	.L297
 2196              	.LVL282:
 2197              	.L304:
 2198              		.loc 1 1003 0
 2199 0046 0020     		movs	r0, #0
 2200 0048 F8BD     		pop	{r3, r4, r5, r6, r7, pc}
 2201              	.LVL283:
 2202              	.L295:
 2203              		.loc 1 992 0
 2204 004a FFF7FEFF 		bl	get_fat
 2205              	.LVL284:
 2206              		.loc 1 993 0
 2207 004e 0128     		cmp	r0, #1
 2208 0050 0DD9     		bls	.L322
 2209              		.loc 1 994 0
 2210 0052 EB69     		ldr	r3, [r5, #28]
ARM GAS  C:\Users\Matuesz\AppData\Local\Temp\ccSJWVN7.s 			page 40


 2211 0054 9842     		cmp	r0, r3
 2212 0056 0BD3     		bcc	.L299
 2213 0058 3E46     		mov	r6, r7
 2214 005a DBE7     		b	.L297
 2215              	.LVL285:
 2216              	.L301:
 2217              		.loc 1 1012 0
 2218 005c 2846     		mov	r0, r5
 2219              	.LVL286:
 2220 005e 2146     		mov	r1, r4
 2221 0060 6FF07042 		mvn	r2, #-268435456
 2222 0064 FFF7FEFF 		bl	put_fat
 2223              	.LVL287:
 2224              		.loc 1 1013 0
 2225 0068 30B1     		cbz	r0, .L326
 2226              	.L306:
 2227              		.loc 1 1023 0
 2228 006a 0128     		cmp	r0, #1
 2229 006c 01D0     		beq	.L310
 2230              	.LVL288:
 2231              	.L322:
 2232 006e 0120     		movs	r0, #1
 2233              	.L299:
 2234              		.loc 1 1027 0
 2235 0070 F8BD     		pop	{r3, r4, r5, r6, r7, pc}
 2236              	.LVL289:
 2237              	.L310:
 2238              		.loc 1 1023 0
 2239 0072 4FF0FF30 		mov	r0, #-1
 2240 0076 F8BD     		pop	{r3, r4, r5, r6, r7, pc}
 2241              	.LVL290:
 2242              	.L326:
 2243              		.loc 1 1013 0 discriminator 1
 2244 0078 4FB9     		cbnz	r7, .L307
 2245              	.L309:
 2246              		.loc 1 1018 0
 2247 007a 6869     		ldr	r0, [r5, #20]
 2248              	.LVL291:
 2249              		.loc 1 1017 0
 2250 007c 2C61     		str	r4, [r5, #16]
 2251              		.loc 1 1018 0
 2252 007e 421C     		adds	r2, r0, #1
 2253 0080 03D0     		beq	.L323
 2254              		.loc 1 1019 0
 2255 0082 411E     		subs	r1, r0, #1
 2256              		.loc 1 1020 0
 2257 0084 0122     		movs	r2, #1
 2258              		.loc 1 1019 0
 2259 0086 6961     		str	r1, [r5, #20]
 2260              		.loc 1 1020 0
 2261 0088 6A71     		strb	r2, [r5, #5]
 2262              	.L323:
 2263 008a 2046     		mov	r0, r4
 2264 008c F8BD     		pop	{r3, r4, r5, r6, r7, pc}
 2265              	.LVL292:
 2266              	.L307:
 2267              		.loc 1 1014 0
ARM GAS  C:\Users\Matuesz\AppData\Local\Temp\ccSJWVN7.s 			page 41


 2268 008e 2846     		mov	r0, r5
 2269              	.LVL293:
 2270 0090 3946     		mov	r1, r7
 2271 0092 2246     		mov	r2, r4
 2272 0094 FFF7FEFF 		bl	put_fat
 2273              	.LVL294:
 2274              		.loc 1 1016 0
 2275 0098 0028     		cmp	r0, #0
 2276 009a EED0     		beq	.L309
 2277 009c E5E7     		b	.L306
 2278              		.cfi_endproc
 2279              	.LFE19:
 2280              		.size	create_chain, .-create_chain
 2281 009e 00BF     		.section	.text.dir_next,"ax",%progbits
 2282              		.align	2
 2283              		.p2align 4,,15
 2284              		.thumb
 2285              		.thumb_func
 2286              		.type	dir_next, %function
 2287              	dir_next:
 2288              	.LFB21:
 2289              		.loc 1 1117 0
 2290              		.cfi_startproc
 2291              		@ args = 0, pretend = 0, frame = 0
 2292              		@ frame_needed = 0, uses_anonymous_args = 0
 2293              	.LVL295:
 2294 0000 2DE9F047 		push	{r4, r5, r6, r7, r8, r9, sl, lr}
 2295              	.LCFI11:
 2296              		.cfi_def_cfa_offset 32
 2297              		.cfi_offset 4, -32
 2298              		.cfi_offset 5, -28
 2299              		.cfi_offset 6, -24
 2300              		.cfi_offset 7, -20
 2301              		.cfi_offset 8, -16
 2302              		.cfi_offset 9, -12
 2303              		.cfi_offset 10, -8
 2304              		.cfi_offset 14, -4
 2305              		.loc 1 1123 0
 2306 0004 C588     		ldrh	r5, [r0, #6]
 2307              		.loc 1 1117 0
 2308 0006 0446     		mov	r4, r0
 2309              		.loc 1 1123 0
 2310 0008 681C     		adds	r0, r5, #1
 2311              	.LVL296:
 2312 000a 85B2     		uxth	r5, r0
 2313              		.loc 1 1117 0
 2314 000c 0E46     		mov	r6, r1
 2315              	.LVL297:
 2316              		.loc 1 1124 0
 2317 000e 15B9     		cbnz	r5, .L328
 2318              	.LVL298:
 2319              	.L330:
 2320              	.LBB117:
 2321              	.LBB118:
 2322              		.loc 1 1125 0
 2323 0010 0420     		movs	r0, #4
 2324 0012 BDE8F087 		pop	{r4, r5, r6, r7, r8, r9, sl, pc}
ARM GAS  C:\Users\Matuesz\AppData\Local\Temp\ccSJWVN7.s 			page 42


 2325              	.LVL299:
 2326              	.L328:
 2327              	.LBE118:
 2328              	.LBE117:
 2329              		.loc 1 1124 0 discriminator 1
 2330 0016 2369     		ldr	r3, [r4, #16]
 2331 0018 002B     		cmp	r3, #0
 2332 001a F9D0     		beq	.L330
 2333              		.loc 1 1127 0
 2334 001c 15F00F07 		ands	r7, r5, #15
 2335 0020 08D0     		beq	.L331
 2336 0022 2068     		ldr	r0, [r4, #0]
 2337              	.LVL300:
 2338              	.L332:
 2339              		.loc 1 1168 0
 2340 0024 00EB4712 		add	r2, r0, r7, lsl #5
 2341 0028 3432     		adds	r2, r2, #52
 2342              		.loc 1 1167 0
 2343 002a E580     		strh	r5, [r4, #6]	@ movhi
 2344              		.loc 1 1168 0
 2345 002c 6261     		str	r2, [r4, #20]
 2346              		.loc 1 1170 0
 2347 002e 0020     		movs	r0, #0
 2348 0030 BDE8F087 		pop	{r4, r5, r6, r7, r8, r9, sl, pc}
 2349              	.LVL301:
 2350              	.L331:
 2351              		.loc 1 1130 0
 2352 0034 E168     		ldr	r1, [r4, #12]
 2353              	.LVL302:
 2354              		.loc 1 1131 0
 2355 0036 2068     		ldr	r0, [r4, #0]
 2356              	.LVL303:
 2357              		.loc 1 1128 0
 2358 0038 5A1C     		adds	r2, r3, #1
 2359 003a 2261     		str	r2, [r4, #16]
 2360              		.loc 1 1130 0
 2361 003c F9B1     		cbz	r1, .L363
 2362              		.loc 1 1135 0
 2363 003e 8378     		ldrb	r3, [r0, #2]	@ zero_extendqisi2
 2364 0040 5A1E     		subs	r2, r3, #1
 2365 0042 12EA1512 		ands	r2, r2, r5, lsr #4
 2366 0046 EDD1     		bne	.L332
 2367              		.loc 1 1136 0
 2368 0048 FFF7FEFF 		bl	get_fat
 2369              	.LVL304:
 2370              		.loc 1 1137 0
 2371 004c 0128     		cmp	r0, #1
 2372              		.loc 1 1136 0
 2373 004e 8046     		mov	r8, r0
 2374              	.LVL305:
 2375              		.loc 1 1137 0
 2376 0050 19D9     		bls	.L337
 2377              		.loc 1 1138 0
 2378 0052 B0F1FF3F 		cmp	r0, #-1
 2379 0056 23D0     		beq	.L338
 2380              		.loc 1 1139 0
 2381 0058 2068     		ldr	r0, [r4, #0]
ARM GAS  C:\Users\Matuesz\AppData\Local\Temp\ccSJWVN7.s 			page 43


 2382              	.LVL306:
 2383 005a C369     		ldr	r3, [r0, #28]
 2384 005c 9845     		cmp	r8, r3
 2385 005e 15D2     		bcs	.L362
 2386 0060 A8F10206 		sub	r6, r8, #2
 2387              	.LVL307:
 2388              	.L336:
 2389              	.LBB121:
 2390              	.LBB119:
 2391              		.loc 1 807 0
 2392 0064 C269     		ldr	r2, [r0, #28]
 2393              	.LBE119:
 2394              	.LBE121:
 2395              		.loc 1 1161 0
 2396 0066 C4F80C80 		str	r8, [r4, #12]
 2397              	.LVL308:
 2398              	.LBB122:
 2399              	.LBB120:
 2400              		.loc 1 807 0
 2401 006a 931E     		subs	r3, r2, #2
 2402 006c 9E42     		cmp	r6, r3
 2403              		.loc 1 808 0
 2404 006e 3DBF     		ittte	cc
 2405 0070 8178     		ldrbcc	r1, [r0, #2]	@ zero_extendqisi2
 2406 0072 C36A     		ldrcc	r3, [r0, #44]
 2407 0074 01FB0636 		mlacc	r6, r1, r6, r3
 2408              	.LVL309:
 2409              		.loc 1 807 0
 2410 0078 0026     		movcs	r6, #0
 2411              	.LBE120:
 2412              	.LBE122:
 2413              		.loc 1 1162 0
 2414 007a 2661     		str	r6, [r4, #16]
 2415 007c D2E7     		b	.L332
 2416              	.LVL310:
 2417              	.L363:
 2418              		.loc 1 1131 0
 2419 007e 0389     		ldrh	r3, [r0, #8]
 2420 0080 AB42     		cmp	r3, r5
 2421 0082 C5D9     		bls	.L330
 2422 0084 CEE7     		b	.L332
 2423              	.LVL311:
 2424              	.L337:
 2425              		.loc 1 1137 0
 2426 0086 0220     		movs	r0, #2
 2427              	.LVL312:
 2428 0088 BDE8F087 		pop	{r4, r5, r6, r7, r8, r9, sl, pc}
 2429              	.L362:
 2430              	.LBB123:
 2431              		.loc 1 1142 0
 2432 008c 002E     		cmp	r6, #0
 2433 008e BFD0     		beq	.L330
 2434              		.loc 1 1143 0
 2435 0090 E168     		ldr	r1, [r4, #12]
 2436 0092 FFF7FEFF 		bl	create_chain
 2437              	.LVL313:
 2438              		.loc 1 1144 0
ARM GAS  C:\Users\Matuesz\AppData\Local\Temp\ccSJWVN7.s 			page 44


 2439 0096 8046     		mov	r8, r0
 2440 0098 28B9     		cbnz	r0, .L364
 2441 009a 0720     		movs	r0, #7
 2442              	.LVL314:
 2443              	.LBE123:
 2444              		.loc 1 1171 0
 2445 009c BDE8F087 		pop	{r4, r5, r6, r7, r8, r9, sl, pc}
 2446              	.LVL315:
 2447              	.L338:
 2448              		.loc 1 1138 0
 2449 00a0 0120     		movs	r0, #1
 2450 00a2 BDE8F087 		pop	{r4, r5, r6, r7, r8, r9, sl, pc}
 2451              	.LVL316:
 2452              	.L364:
 2453              	.LBB130:
 2454              		.loc 1 1145 0
 2455 00a6 0128     		cmp	r0, #1
 2456 00a8 EDD0     		beq	.L337
 2457              		.loc 1 1146 0
 2458 00aa B0F1FF3F 		cmp	r0, #-1
 2459 00ae F7D0     		beq	.L338
 2460              		.loc 1 1148 0
 2461 00b0 2068     		ldr	r0, [r4, #0]
 2462              	.LVL317:
 2463 00b2 0021     		movs	r1, #0
 2464 00b4 FFF7FEFF 		bl	move_window
 2465              	.LVL318:
 2466 00b8 0028     		cmp	r0, #0
 2467 00ba F1D1     		bne	.L338
 2468              		.loc 1 1149 0
 2469 00bc 2668     		ldr	r6, [r4, #0]
 2470              	.LVL319:
 2471              	.LBB124:
 2472              	.LBB125:
 2473              		.loc 1 550 0
 2474 00be 0146     		mov	r1, r0
 2475              	.LBE125:
 2476              	.LBE124:
 2477              		.loc 1 1149 0
 2478 00c0 06F13403 		add	r3, r6, #52
 2479              	.LVL320:
 2480              		.loc 1 1113 0
 2481 00c4 06F50D70 		add	r0, r6, #564
 2482              	.LVL321:
 2483              	.L339:
 2484              	.LBB127:
 2485              	.LBB126:
 2486              		.loc 1 550 0
 2487 00c8 1A46     		mov	r2, r3
 2488 00ca 02F8011B 		strb	r1, [r2], #1
 2489 00ce 5970     		strb	r1, [r3, #1]
 2490 00d0 531C     		adds	r3, r2, #1
 2491              	.LVL322:
 2492              		.loc 1 549 0
 2493 00d2 8342     		cmp	r3, r0
 2494 00d4 F8D1     		bne	.L339
 2495              	.LBE126:
ARM GAS  C:\Users\Matuesz\AppData\Local\Temp\ccSJWVN7.s 			page 45


 2496              	.LBE127:
 2497              		.loc 1 1150 0
 2498 00d6 2268     		ldr	r2, [r4, #0]
 2499              	.LVL323:
 2500              	.LBB128:
 2501              	.LBB129:
 2502              		.loc 1 807 0
 2503 00d8 D069     		ldr	r0, [r2, #28]
 2504              		.loc 1 806 0
 2505 00da A8F10206 		sub	r6, r8, #2
 2506              	.LVL324:
 2507              		.loc 1 807 0
 2508 00de 831E     		subs	r3, r0, #2
 2509              	.LVL325:
 2510 00e0 9E42     		cmp	r6, r3
 2511              		.loc 1 808 0
 2512 00e2 3DBF     		ittte	cc
 2513 00e4 D36A     		ldrcc	r3, [r2, #44]
 2514 00e6 9178     		ldrbcc	r1, [r2, #2]	@ zero_extendqisi2
 2515 00e8 01FB0633 		mlacc	r3, r1, r6, r3
 2516              		.loc 1 807 0
 2517 00ec 0023     		movcs	r3, #0
 2518              	.LBE129:
 2519              	.LBE128:
 2520              		.loc 1 1150 0
 2521 00ee 1363     		str	r3, [r2, #48]
 2522              	.LVL326:
 2523              		.loc 1 1151 0
 2524 00f0 4FF00009 		mov	r9, #0
 2525              		.loc 1 1152 0
 2526 00f4 4FF0010A 		mov	sl, #1
 2527              		.loc 1 1151 0
 2528 00f8 0EE0     		b	.L341
 2529              	.LVL327:
 2530              	.L342:
 2531              		.loc 1 1152 0
 2532 00fa 82F804A0 		strb	sl, [r2, #4]
 2533              		.loc 1 1153 0
 2534 00fe 2068     		ldr	r0, [r4, #0]
 2535 0100 FFF7FEFF 		bl	move_window
 2536              	.LVL328:
 2537              		.loc 1 1151 0
 2538 0104 09F10109 		add	r9, r9, #1
 2539              	.LVL329:
 2540              		.loc 1 1153 0
 2541 0108 0028     		cmp	r0, #0
 2542 010a C9D1     		bne	.L338
 2543              		.loc 1 1154 0
 2544 010c 2268     		ldr	r2, [r4, #0]
 2545 010e 116B     		ldr	r1, [r2, #48]
 2546 0110 481C     		adds	r0, r1, #1
 2547 0112 1063     		str	r0, [r2, #48]
 2548              		.loc 1 1151 0
 2549 0114 5FFA89F9 		uxtb	r9, r9
 2550              	.LVL330:
 2551              	.L341:
 2552              		.loc 1 1151 0 is_stmt 0 discriminator 1
ARM GAS  C:\Users\Matuesz\AppData\Local\Temp\ccSJWVN7.s 			page 46


 2553 0118 9378     		ldrb	r3, [r2, #2]	@ zero_extendqisi2
 2554              		.loc 1 1153 0 is_stmt 1 discriminator 1
 2555 011a 0021     		movs	r1, #0
 2556              		.loc 1 1151 0 discriminator 1
 2557 011c 4B45     		cmp	r3, r9
 2558 011e 1046     		mov	r0, r2
 2559 0120 EBD8     		bhi	.L342
 2560              		.loc 1 1156 0
 2561 0122 126B     		ldr	r2, [r2, #48]
 2562 0124 C9EB0203 		rsb	r3, r9, r2
 2563 0128 0363     		str	r3, [r0, #48]
 2564 012a 9BE7     		b	.L336
 2565              	.LBE130:
 2566              		.cfi_endproc
 2567              	.LFE21:
 2568              		.size	dir_next, .-dir_next
 2569 012c AFF30080 		.section	.text.dir_find.part.5,"ax",%progbits
 2570              		.align	2
 2571              		.p2align 4,,15
 2572              		.thumb
 2573              		.thumb_func
 2574              		.type	dir_find.part.5, %function
 2575              	dir_find.part.5:
 2576              	.LFB59:
 2577              		.loc 1 1353 0
 2578              		.cfi_startproc
 2579              		@ args = 0, pretend = 0, frame = 16
 2580              		@ frame_needed = 0, uses_anonymous_args = 0
 2581              	.LVL331:
 2582 0000 2DE9F04F 		push	{r4, r5, r6, r7, r8, r9, sl, fp, lr}
 2583              	.LCFI12:
 2584              		.cfi_def_cfa_offset 36
 2585              		.cfi_offset 4, -36
 2586              		.cfi_offset 5, -32
 2587              		.cfi_offset 6, -28
 2588              		.cfi_offset 7, -24
 2589              		.cfi_offset 8, -20
 2590              		.cfi_offset 9, -16
 2591              		.cfi_offset 10, -12
 2592              		.cfi_offset 11, -8
 2593              		.cfi_offset 14, -4
 2594 0004 85B0     		sub	sp, sp, #20
 2595              	.LCFI13:
 2596              		.cfi_def_cfa_offset 56
 2597              		.loc 1 1353 0
 2598 0006 FF22     		movs	r2, #255
 2599 0008 0192     		str	r2, [sp, #4]
 2600 000a 8146     		mov	r9, r0
 2601 000c 1646     		mov	r6, r2
 2602              	.LVL332:
 2603              	.L401:
 2604              		.loc 1 1370 0
 2605 000e D9F80000 		ldr	r0, [r9, #0]
 2606 0012 D9F81010 		ldr	r1, [r9, #16]
 2607 0016 FFF7FEFF 		bl	move_window
 2608              	.LVL333:
 2609              		.loc 1 1371 0
ARM GAS  C:\Users\Matuesz\AppData\Local\Temp\ccSJWVN7.s 			page 47


 2610 001a C8B9     		cbnz	r0, .L471
 2611              		.loc 1 1372 0
 2612 001c D9F81440 		ldr	r4, [r9, #20]
 2613              	.LVL334:
 2614              		.loc 1 1373 0
 2615 0020 2578     		ldrb	r5, [r4, #0]	@ zero_extendqisi2
 2616              	.LVL335:
 2617              		.loc 1 1374 0
 2618 0022 002D     		cmp	r5, #0
 2619 0024 00F09081 		beq	.L402
 2620              		.loc 1 1376 0
 2621 0028 E37A     		ldrb	r3, [r4, #11]	@ zero_extendqisi2
 2622              		.loc 1 1377 0
 2623 002a E52D     		cmp	r5, #229
 2624              		.loc 1 1376 0
 2625 002c 03F03F01 		and	r1, r3, #63
 2626              	.LVL336:
 2627              		.loc 1 1377 0
 2628 0030 07D0     		beq	.L417
 2629 0032 03F00802 		and	r2, r3, #8
 2630 0036 D3B2     		uxtb	r3, r2
 2631 0038 002B     		cmp	r3, #0
 2632 003a 00F0E280 		beq	.L368
 2633 003e 0F29     		cmp	r1, #15
 2634 0040 0BD0     		beq	.L369
 2635              	.LVL337:
 2636              	.L417:
 2637              	.LBB137:
 2638              	.LBB138:
 2639              		.loc 1 1392 0
 2640 0042 FF26     		movs	r6, #255
 2641              	.LVL338:
 2642              	.L367:
 2643              	.LBE138:
 2644              	.LBE137:
 2645              		.loc 1 1400 0
 2646 0044 4846     		mov	r0, r9
 2647 0046 0021     		movs	r1, #0
 2648 0048 FFF7FEFF 		bl	dir_next
 2649              	.LVL339:
 2650              		.loc 1 1401 0
 2651 004c 0028     		cmp	r0, #0
 2652 004e DED0     		beq	.L401
 2653              	.LVL340:
 2654              	.L471:
 2655 0050 8346     		mov	fp, r0
 2656              	.LVL341:
 2657              	.L434:
 2658              		.loc 1 1404 0
 2659 0052 5846     		mov	r0, fp
 2660 0054 05B0     		add	sp, sp, #20
 2661 0056 BDE8F08F 		pop	{r4, r5, r6, r7, r8, r9, sl, fp, pc}
 2662              	.LVL342:
 2663              	.L369:
 2664              		.loc 1 1381 0
 2665 005a D9F81C70 		ldr	r7, [r9, #28]
 2666 005e 002F     		cmp	r7, #0
ARM GAS  C:\Users\Matuesz\AppData\Local\Temp\ccSJWVN7.s 			page 48


 2667 0060 F0D0     		beq	.L367
 2668              		.loc 1 1382 0
 2669 0062 05F04000 		and	r0, r5, #64
 2670              	.LVL343:
 2671 0066 C2B2     		uxtb	r2, r0
 2672 0068 002A     		cmp	r2, #0
 2673 006a 00F06981 		beq	.L371
 2674              		.loc 1 1383 0
 2675 006e 667B     		ldrb	r6, [r4, #13]	@ zero_extendqisi2
 2676              	.LVL344:
 2677              		.loc 1 1385 0
 2678 0070 B9F80610 		ldrh	r1, [r9, #6]
 2679              	.LVL345:
 2680              		.loc 1 1383 0
 2681 0074 0196     		str	r6, [sp, #4]
 2682              		.loc 1 1385 0
 2683 0076 A9F82010 		strh	r1, [r9, #32]	@ movhi
 2684              		.loc 1 1384 0
 2685 007a 05F0BF05 		and	r5, r5, #191
 2686              	.LVL346:
 2687              	.L372:
 2688              		.loc 1 1388 0
 2689 007e 94F80D80 		ldrb	r8, [r4, #13]	@ zero_extendqisi2
 2690 0082 019B     		ldr	r3, [sp, #4]
 2691 0084 9845     		cmp	r8, r3
 2692 0086 DCD1     		bne	.L417
 2693              	.LVL347:
 2694              	.LBB140:
 2695              	.LBB141:
 2696              		.loc 1 1194 0
 2697 0088 2178     		ldrb	r1, [r4, #0]	@ zero_extendqisi2
 2698              		.loc 1 1197 0
 2699 008a A078     		ldrb	r0, [r4, #2]	@ zero_extendqisi2
 2700 008c 6278     		ldrb	r2, [r4, #1]	@ zero_extendqisi2
 2701              		.loc 1 1194 0
 2702 008e 21F04006 		bic	r6, r1, #64
 2703 0092 731E     		subs	r3, r6, #1
 2704 0094 03EB430A 		add	sl, r3, r3, lsl #1
 2705              		.loc 1 1199 0
 2706 0098 42EA0020 		orr	r0, r2, r0, lsl #8
 2707              		.loc 1 1194 0
 2708 009c 03EB8A0B 		add	fp, r3, sl, lsl #2
 2709              	.LVL348:
 2710              		.loc 1 1199 0
 2711 00a0 FFF7FEFF 		bl	ff_wtoupper
 2712              	.LVL349:
 2713              		.loc 1 1200 0
 2714 00a4 BBF1FE0F 		cmp	fp, #254
 2715              		.loc 1 1199 0
 2716 00a8 8246     		mov	sl, r0
 2717              	.LVL350:
 2718              		.loc 1 1200 0
 2719 00aa 00F26C81 		bhi	.L373
 2720 00ae 37F81B00 		ldrh	r0, [r7, fp, lsl #1]
 2721              	.LVL351:
 2722 00b2 FFF7FEFF 		bl	ff_wtoupper
 2723              	.LVL352:
ARM GAS  C:\Users\Matuesz\AppData\Local\Temp\ccSJWVN7.s 			page 49


 2724 00b6 8245     		cmp	sl, r0
 2725 00b8 0BF10106 		add	r6, fp, #1
 2726              	.LVL353:
 2727 00bc 40F06381 		bne	.L373
 2728              	.LVL354:
 2729              		.loc 1 1197 0
 2730 00c0 2179     		ldrb	r1, [r4, #4]	@ zero_extendqisi2
 2731 00c2 E078     		ldrb	r0, [r4, #3]	@ zero_extendqisi2
 2732 00c4 40EA0120 		orr	r0, r0, r1, lsl #8
 2733              	.LVL355:
 2734              		.loc 1 1198 0
 2735 00c8 BAF1000F 		cmp	sl, #0
 2736 00cc 40F05F81 		bne	.L374
 2737              		.loc 1 1203 0
 2738 00d0 4FF6FF72 		movw	r2, #65535
 2739 00d4 9042     		cmp	r0, r2
 2740 00d6 40F05681 		bne	.L373
 2741              	.LVL356:
 2742              	.L375:
 2743              		.loc 1 1197 0
 2744 00da A179     		ldrb	r1, [r4, #6]	@ zero_extendqisi2
 2745 00dc 6379     		ldrb	r3, [r4, #5]	@ zero_extendqisi2
 2746 00de 43EA0120 		orr	r0, r3, r1, lsl #8
 2747              	.LVL357:
 2748              		.loc 1 1198 0
 2749 00e2 BAF1000F 		cmp	sl, #0
 2750 00e6 40F06181 		bne	.L376
 2751              		.loc 1 1203 0
 2752 00ea 4FF6FF72 		movw	r2, #65535
 2753 00ee 9042     		cmp	r0, r2
 2754 00f0 40F04981 		bne	.L373
 2755              	.LVL358:
 2756              	.L377:
 2757              		.loc 1 1197 0
 2758 00f4 207A     		ldrb	r0, [r4, #8]	@ zero_extendqisi2
 2759 00f6 E179     		ldrb	r1, [r4, #7]	@ zero_extendqisi2
 2760 00f8 41EA0020 		orr	r0, r1, r0, lsl #8
 2761              	.LVL359:
 2762              		.loc 1 1198 0
 2763 00fc BAF1000F 		cmp	sl, #0
 2764 0100 40F07081 		bne	.L378
 2765              		.loc 1 1203 0
 2766 0104 4FF6FF73 		movw	r3, #65535
 2767 0108 9842     		cmp	r0, r3
 2768 010a 40F03C81 		bne	.L373
 2769              	.LVL360:
 2770              	.L379:
 2771              		.loc 1 1197 0
 2772 010e A27A     		ldrb	r2, [r4, #10]	@ zero_extendqisi2
 2773 0110 607A     		ldrb	r0, [r4, #9]	@ zero_extendqisi2
 2774 0112 40EA0220 		orr	r0, r0, r2, lsl #8
 2775              	.LVL361:
 2776              		.loc 1 1198 0
 2777 0116 BAF1000F 		cmp	sl, #0
 2778 011a 40F05581 		bne	.L380
 2779              		.loc 1 1203 0
 2780 011e 4FF6FF71 		movw	r1, #65535
ARM GAS  C:\Users\Matuesz\AppData\Local\Temp\ccSJWVN7.s 			page 50


 2781 0122 8842     		cmp	r0, r1
 2782 0124 40F02F81 		bne	.L373
 2783              	.LVL362:
 2784              	.L381:
 2785              		.loc 1 1197 0
 2786 0128 E27B     		ldrb	r2, [r4, #15]	@ zero_extendqisi2
 2787 012a A37B     		ldrb	r3, [r4, #14]	@ zero_extendqisi2
 2788 012c 43EA0220 		orr	r0, r3, r2, lsl #8
 2789              	.LVL363:
 2790              		.loc 1 1198 0
 2791 0130 BAF1000F 		cmp	sl, #0
 2792 0134 40F07281 		bne	.L382
 2793              		.loc 1 1203 0
 2794 0138 4FF6FF71 		movw	r1, #65535
 2795 013c 8842     		cmp	r0, r1
 2796 013e 40F02281 		bne	.L373
 2797              	.LVL364:
 2798              	.L383:
 2799              		.loc 1 1197 0
 2800 0142 607C     		ldrb	r0, [r4, #17]	@ zero_extendqisi2
 2801 0144 227C     		ldrb	r2, [r4, #16]	@ zero_extendqisi2
 2802 0146 42EA0020 		orr	r0, r2, r0, lsl #8
 2803              	.LVL365:
 2804              		.loc 1 1198 0
 2805 014a BAF1000F 		cmp	sl, #0
 2806 014e 40F05781 		bne	.L384
 2807              		.loc 1 1203 0
 2808 0152 4FF6FF73 		movw	r3, #65535
 2809 0156 9842     		cmp	r0, r3
 2810 0158 40F01581 		bne	.L373
 2811              	.LVL366:
 2812              	.L385:
 2813              		.loc 1 1197 0
 2814 015c E17C     		ldrb	r1, [r4, #19]	@ zero_extendqisi2
 2815 015e A07C     		ldrb	r0, [r4, #18]	@ zero_extendqisi2
 2816 0160 40EA0120 		orr	r0, r0, r1, lsl #8
 2817              	.LVL367:
 2818              		.loc 1 1198 0
 2819 0164 BAF1000F 		cmp	sl, #0
 2820 0168 40F07481 		bne	.L386
 2821              		.loc 1 1203 0
 2822 016c 4FF6FF72 		movw	r2, #65535
 2823 0170 9042     		cmp	r0, r2
 2824 0172 40F00881 		bne	.L373
 2825              	.LVL368:
 2826              	.L387:
 2827              		.loc 1 1197 0
 2828 0176 617D     		ldrb	r1, [r4, #21]	@ zero_extendqisi2
 2829 0178 237D     		ldrb	r3, [r4, #20]	@ zero_extendqisi2
 2830 017a 43EA0120 		orr	r0, r3, r1, lsl #8
 2831              	.LVL369:
 2832              		.loc 1 1198 0
 2833 017e BAF1000F 		cmp	sl, #0
 2834 0182 40F05981 		bne	.L388
 2835              		.loc 1 1203 0
 2836 0186 4FF6FF72 		movw	r2, #65535
 2837 018a 9042     		cmp	r0, r2
ARM GAS  C:\Users\Matuesz\AppData\Local\Temp\ccSJWVN7.s 			page 51


 2838 018c 40F0FB80 		bne	.L373
 2839              	.LVL370:
 2840              	.L389:
 2841              		.loc 1 1197 0
 2842 0190 E07D     		ldrb	r0, [r4, #23]	@ zero_extendqisi2
 2843 0192 A17D     		ldrb	r1, [r4, #22]	@ zero_extendqisi2
 2844 0194 41EA0020 		orr	r0, r1, r0, lsl #8
 2845              	.LVL371:
 2846              		.loc 1 1198 0
 2847 0198 BAF1000F 		cmp	sl, #0
 2848 019c 40F08581 		bne	.L390
 2849              		.loc 1 1203 0
 2850 01a0 4FF6FF73 		movw	r3, #65535
 2851 01a4 9842     		cmp	r0, r3
 2852 01a6 40F0EE80 		bne	.L373
 2853              	.LVL372:
 2854              	.L391:
 2855              		.loc 1 1197 0
 2856 01aa 627E     		ldrb	r2, [r4, #25]	@ zero_extendqisi2
 2857 01ac 207E     		ldrb	r0, [r4, #24]	@ zero_extendqisi2
 2858 01ae 40EA0220 		orr	r0, r0, r2, lsl #8
 2859              	.LVL373:
 2860              		.loc 1 1198 0
 2861 01b2 BAF1000F 		cmp	sl, #0
 2862 01b6 40F06981 		bne	.L392
 2863              		.loc 1 1203 0
 2864 01ba 4FF6FF71 		movw	r1, #65535
 2865 01be 8842     		cmp	r0, r1
 2866 01c0 40F0E180 		bne	.L373
 2867              	.LVL374:
 2868              	.L393:
 2869              		.loc 1 1197 0
 2870 01c4 627F     		ldrb	r2, [r4, #29]	@ zero_extendqisi2
 2871 01c6 237F     		ldrb	r3, [r4, #28]	@ zero_extendqisi2
 2872 01c8 43EA0220 		orr	r0, r3, r2, lsl #8
 2873              	.LVL375:
 2874              		.loc 1 1198 0
 2875 01cc BAF1000F 		cmp	sl, #0
 2876 01d0 40F04E81 		bne	.L394
 2877              		.loc 1 1203 0
 2878 01d4 4FF6FF71 		movw	r1, #65535
 2879 01d8 8842     		cmp	r0, r1
 2880 01da 40F0D480 		bne	.L373
 2881              	.LVL376:
 2882              	.L395:
 2883              		.loc 1 1197 0
 2884 01de E07F     		ldrb	r0, [r4, #31]	@ zero_extendqisi2
 2885 01e0 A27F     		ldrb	r2, [r4, #30]	@ zero_extendqisi2
 2886 01e2 42EA0020 		orr	r0, r2, r0, lsl #8
 2887              	.LVL377:
 2888              		.loc 1 1198 0
 2889 01e6 BAF1000F 		cmp	sl, #0
 2890 01ea 40F0B080 		bne	.L472
 2891              		.loc 1 1203 0
 2892 01ee 4FF6FF73 		movw	r3, #65535
 2893 01f2 9842     		cmp	r0, r3
 2894 01f4 40F0C780 		bne	.L373
ARM GAS  C:\Users\Matuesz\AppData\Local\Temp\ccSJWVN7.s 			page 52


 2895              	.LVL378:
 2896              	.L398:
 2897              	.LBE141:
 2898              	.LBE140:
 2899              		.loc 1 1388 0
 2900 01f8 013D     		subs	r5, r5, #1
 2901 01fa EEB2     		uxtb	r6, r5
 2902              	.LVL379:
 2903 01fc CDF80480 		str	r8, [sp, #4]
 2904 0200 20E7     		b	.L367
 2905              	.LVL380:
 2906              	.L368:
 2907              		.loc 1 1380 0
 2908 0202 0F29     		cmp	r1, #15
 2909 0204 3FF429AF 		beq	.L369
 2910              		.loc 1 1391 0
 2911 0208 002E     		cmp	r6, #0
 2912 020a 57D1     		bne	.L399
 2913              	.LVL381:
 2914              	.LBB145:
 2915              	.LBB146:
 2916              		.loc 1 1340 0
 2917 020c 4FEAC51B 		lsl	fp, r5, #7
 2918 0210 94F801A0 		ldrb	sl, [r4, #1]	@ zero_extendqisi2
 2919 0214 94F80280 		ldrb	r8, [r4, #2]	@ zero_extendqisi2
 2920 0218 94F803C0 		ldrb	ip, [r4, #3]	@ zero_extendqisi2
 2921 021c 2779     		ldrb	r7, [r4, #4]	@ zero_extendqisi2
 2922 021e 6679     		ldrb	r6, [r4, #5]	@ zero_extendqisi2
 2923              	.LVL382:
 2924 0220 A179     		ldrb	r1, [r4, #6]	@ zero_extendqisi2
 2925              	.LVL383:
 2926 0222 E279     		ldrb	r2, [r4, #7]	@ zero_extendqisi2
 2927 0224 0291     		str	r1, [sp, #8]
 2928 0226 4BEA5505 		orr	r5, fp, r5, lsr #1
 2929              	.LVL384:
 2930 022a 05EB0A0E 		add	lr, r5, sl
 2931 022e 5FFA8EFB 		uxtb	fp, lr
 2932              	.LVL385:
 2933 0232 4FEACB15 		lsl	r5, fp, #7
 2934 0236 45EA5B0A 		orr	sl, r5, fp, lsr #1
 2935 023a 58FA8AF8 		uxtab	r8, r8, sl
 2936 023e 5FFA88FE 		uxtb	lr, r8
 2937              	.LVL386:
 2938 0242 4FEACE15 		lsl	r5, lr, #7
 2939 0246 45EA5E08 		orr	r8, r5, lr, lsr #1
 2940              	.LVL387:
 2941 024a 5CFA88FC 		uxtab	ip, ip, r8
 2942 024e 5FFA8CFB 		uxtb	fp, ip
 2943              	.LVL388:
 2944 0252 4FEACB15 		lsl	r5, fp, #7
 2945 0256 45EA5B0E 		orr	lr, r5, fp, lsr #1
 2946 025a 57FA8EF7 		uxtab	r7, r7, lr
 2947 025e FFB2     		uxtb	r7, r7
 2948              	.LVL389:
 2949 0260 FD01     		lsls	r5, r7, #7
 2950 0262 45EA5707 		orr	r7, r5, r7, lsr #1
 2951              	.LVL390:
ARM GAS  C:\Users\Matuesz\AppData\Local\Temp\ccSJWVN7.s 			page 53


 2952 0266 56FA87F6 		uxtab	r6, r6, r7
 2953 026a F6B2     		uxtb	r6, r6
 2954              	.LVL391:
 2955 026c F501     		lsls	r5, r6, #7
 2956 026e 45EA5605 		orr	r5, r5, r6, lsr #1
 2957 0272 029E     		ldr	r6, [sp, #8]
 2958              	.LVL392:
 2959 0274 0392     		str	r2, [sp, #12]
 2960 0276 56FA85F5 		uxtab	r5, r6, r5
 2961 027a EDB2     		uxtb	r5, r5
 2962              	.LVL393:
 2963 027c EE01     		lsls	r6, r5, #7
 2964 027e 46EA5505 		orr	r5, r6, r5, lsr #1
 2965              	.LVL394:
 2966 0282 039E     		ldr	r6, [sp, #12]
 2967 0284 217A     		ldrb	r1, [r4, #8]	@ zero_extendqisi2
 2968              	.LVL395:
 2969 0286 627A     		ldrb	r2, [r4, #9]	@ zero_extendqisi2
 2970 0288 A37A     		ldrb	r3, [r4, #10]	@ zero_extendqisi2
 2971 028a 56FA85F5 		uxtab	r5, r6, r5
 2972 028e EDB2     		uxtb	r5, r5
 2973              	.LVL396:
 2974 0290 EE01     		lsls	r6, r5, #7
 2975 0292 46EA5505 		orr	r5, r6, r5, lsr #1
 2976              	.LVL397:
 2977 0296 51FA85F1 		uxtab	r1, r1, r5
 2978 029a C9B2     		uxtb	r1, r1
 2979              	.LVL398:
 2980 029c CD01     		lsls	r5, r1, #7
 2981 029e 45EA5101 		orr	r1, r5, r1, lsr #1
 2982              	.LVL399:
 2983 02a2 52FA81F2 		uxtab	r2, r2, r1
 2984 02a6 D2B2     		uxtb	r2, r2
 2985              	.LVL400:
 2986 02a8 D101     		lsls	r1, r2, #7
 2987 02aa 41EA5202 		orr	r2, r1, r2, lsr #1
 2988              	.LVL401:
 2989 02ae 53FA82F3 		uxtab	r3, r3, r2
 2990              	.LBE146:
 2991              	.LBE145:
 2992              		.loc 1 1391 0
 2993 02b2 019A     		ldr	r2, [sp, #4]
 2994              	.LVL402:
 2995 02b4 D9B2     		uxtb	r1, r3
 2996              	.LVL403:
 2997 02b6 9142     		cmp	r1, r2
 2998 02b8 3FF4CAAE 		beq	.L471
 2999              	.LVL404:
 3000              	.L399:
 3001              		.loc 1 1393 0
 3002 02bc D9F81830 		ldr	r3, [r9, #24]
 3003              		.loc 1 1392 0
 3004 02c0 4FF0FF36 		mov	r6, #-1	@ movhi
 3005 02c4 A9F82060 		strh	r6, [r9, #32]	@ movhi
 3006              		.loc 1 1393 0
 3007 02c8 D97A     		ldrb	r1, [r3, #11]	@ zero_extendqisi2
 3008 02ca CA07     		lsls	r2, r1, #31
ARM GAS  C:\Users\Matuesz\AppData\Local\Temp\ccSJWVN7.s 			page 54


 3009 02cc 3FF5B9AE 		bmi	.L417
 3010              	.LVL405:
 3011              	.LBB147:
 3012              	.LBB139:
 3013              		.loc 1 559 0
 3014 02d0 2178     		ldrb	r1, [r4, #0]	@ zero_extendqisi2
 3015              	.LVL406:
 3016 02d2 1A78     		ldrb	r2, [r3, #0]	@ zero_extendqisi2
 3017              	.LVL407:
 3018 02d4 9142     		cmp	r1, r2
 3019 02d6 7FF4B4AE 		bne	.L417
 3020              	.LVL408:
 3021 02da 6178     		ldrb	r1, [r4, #1]	@ zero_extendqisi2
 3022              	.LVL409:
 3023 02dc 5A78     		ldrb	r2, [r3, #1]	@ zero_extendqisi2
 3024              	.LVL410:
 3025 02de 9142     		cmp	r1, r2
 3026 02e0 7FF4AFAE 		bne	.L417
 3027              	.LVL411:
 3028 02e4 A178     		ldrb	r1, [r4, #2]	@ zero_extendqisi2
 3029              	.LVL412:
 3030 02e6 9A78     		ldrb	r2, [r3, #2]	@ zero_extendqisi2
 3031              	.LVL413:
 3032 02e8 9142     		cmp	r1, r2
 3033 02ea 7FF4AAAE 		bne	.L417
 3034              	.LVL414:
 3035 02ee E178     		ldrb	r1, [r4, #3]	@ zero_extendqisi2
 3036              	.LVL415:
 3037 02f0 DA78     		ldrb	r2, [r3, #3]	@ zero_extendqisi2
 3038              	.LVL416:
 3039 02f2 9142     		cmp	r1, r2
 3040 02f4 7FF4A5AE 		bne	.L417
 3041              	.LVL417:
 3042 02f8 2179     		ldrb	r1, [r4, #4]	@ zero_extendqisi2
 3043              	.LVL418:
 3044 02fa 1A79     		ldrb	r2, [r3, #4]	@ zero_extendqisi2
 3045              	.LVL419:
 3046 02fc 9142     		cmp	r1, r2
 3047 02fe 7FF4A0AE 		bne	.L417
 3048              	.LVL420:
 3049 0302 6179     		ldrb	r1, [r4, #5]	@ zero_extendqisi2
 3050              	.LVL421:
 3051 0304 5A79     		ldrb	r2, [r3, #5]	@ zero_extendqisi2
 3052              	.LVL422:
 3053 0306 9142     		cmp	r1, r2
 3054 0308 7FF49BAE 		bne	.L417
 3055              	.LVL423:
 3056 030c A179     		ldrb	r1, [r4, #6]	@ zero_extendqisi2
 3057              	.LVL424:
 3058 030e 9A79     		ldrb	r2, [r3, #6]	@ zero_extendqisi2
 3059              	.LVL425:
 3060 0310 9142     		cmp	r1, r2
 3061 0312 7FF496AE 		bne	.L417
 3062              	.LVL426:
 3063 0316 E179     		ldrb	r1, [r4, #7]	@ zero_extendqisi2
 3064              	.LVL427:
 3065 0318 DA79     		ldrb	r2, [r3, #7]	@ zero_extendqisi2
ARM GAS  C:\Users\Matuesz\AppData\Local\Temp\ccSJWVN7.s 			page 55


 3066              	.LVL428:
 3067 031a 9142     		cmp	r1, r2
 3068 031c 7FF491AE 		bne	.L417
 3069              	.LVL429:
 3070 0320 217A     		ldrb	r1, [r4, #8]	@ zero_extendqisi2
 3071              	.LVL430:
 3072 0322 1A7A     		ldrb	r2, [r3, #8]	@ zero_extendqisi2
 3073              	.LVL431:
 3074 0324 9142     		cmp	r1, r2
 3075 0326 7FF48CAE 		bne	.L417
 3076              	.LVL432:
 3077 032a 617A     		ldrb	r1, [r4, #9]	@ zero_extendqisi2
 3078              	.LVL433:
 3079 032c 5A7A     		ldrb	r2, [r3, #9]	@ zero_extendqisi2
 3080              	.LVL434:
 3081 032e 9142     		cmp	r1, r2
 3082 0330 7FF487AE 		bne	.L417
 3083              	.LVL435:
 3084 0334 A17A     		ldrb	r1, [r4, #10]	@ zero_extendqisi2
 3085              	.LVL436:
 3086 0336 9B7A     		ldrb	r3, [r3, #10]	@ zero_extendqisi2
 3087              	.LVL437:
 3088 0338 9942     		cmp	r1, r3
 3089 033a 3FF489AE 		beq	.L471
 3090 033e 80E6     		b	.L417
 3091              	.LVL438:
 3092              	.L371:
 3093              	.LBE139:
 3094              	.LBE147:
 3095              		.loc 1 1388 0
 3096 0340 B542     		cmp	r5, r6
 3097 0342 7FF47EAE 		bne	.L417
 3098 0346 9AE6     		b	.L372
 3099              	.LVL439:
 3100              	.L402:
 3101              		.loc 1 1374 0
 3102 0348 4FF0040B 		mov	fp, #4
 3103              	.LVL440:
 3104 034c 81E6     		b	.L434
 3105              	.LVL441:
 3106              	.L472:
 3107              	.LBB148:
 3108              	.LBB142:
 3109              		.loc 1 1199 0
 3110 034e FFF7FEFF 		bl	ff_wtoupper
 3111              	.LVL442:
 3112              		.loc 1 1200 0
 3113 0352 FF2E     		cmp	r6, #255
 3114              		.loc 1 1199 0
 3115 0354 8246     		mov	sl, r0
 3116              	.LVL443:
 3117              		.loc 1 1200 0
 3118 0356 16D0     		beq	.L373
 3119 0358 37F81600 		ldrh	r0, [r7, r6, lsl #1]
 3120              	.LVL444:
 3121 035c FFF7FEFF 		bl	ff_wtoupper
 3122              	.LVL445:
ARM GAS  C:\Users\Matuesz\AppData\Local\Temp\ccSJWVN7.s 			page 56


 3123 0360 0136     		adds	r6, r6, #1
 3124              	.LVL446:
 3125 0362 8245     		cmp	sl, r0
 3126 0364 0FD1     		bne	.L373
 3127              	.LVL447:
 3128              	.LBE142:
 3129              		.loc 1 1207 0
 3130 0366 2178     		ldrb	r1, [r4, #0]	@ zero_extendqisi2
 3131              	.LBB143:
 3132 0368 01F04000 		and	r0, r1, #64
 3133 036c C2B2     		uxtb	r2, r0
 3134 036e 002A     		cmp	r2, #0
 3135 0370 3FF442AF 		beq	.L398
 3136 0374 BAF1000F 		cmp	sl, #0
 3137 0378 3FF43EAF 		beq	.L398
 3138 037c 37F81630 		ldrh	r3, [r7, r6, lsl #1]
 3139 0380 002B     		cmp	r3, #0
 3140 0382 3FF439AF 		beq	.L398
 3141              	.LVL448:
 3142              	.L373:
 3143              	.LBE143:
 3144              	.LBE148:
 3145              		.loc 1 1388 0
 3146 0386 CDF80480 		str	r8, [sp, #4]
 3147 038a FF26     		movs	r6, #255
 3148 038c 5AE6     		b	.L367
 3149              	.LVL449:
 3150              	.L374:
 3151              	.LBB149:
 3152              	.LBB144:
 3153              		.loc 1 1199 0
 3154 038e FFF7FEFF 		bl	ff_wtoupper
 3155              	.LVL450:
 3156              		.loc 1 1200 0
 3157 0392 FF2E     		cmp	r6, #255
 3158              		.loc 1 1199 0
 3159 0394 8246     		mov	sl, r0
 3160              	.LVL451:
 3161              		.loc 1 1200 0
 3162 0396 F6D0     		beq	.L373
 3163 0398 37F81600 		ldrh	r0, [r7, r6, lsl #1]
 3164              	.LVL452:
 3165 039c FFF7FEFF 		bl	ff_wtoupper
 3166              	.LVL453:
 3167 03a0 8245     		cmp	sl, r0
 3168 03a2 0BF10206 		add	r6, fp, #2
 3169              	.LVL454:
 3170 03a6 3FF498AE 		beq	.L375
 3171 03aa ECE7     		b	.L373
 3172              	.LVL455:
 3173              	.L376:
 3174              		.loc 1 1199 0
 3175 03ac FFF7FEFF 		bl	ff_wtoupper
 3176              	.LVL456:
 3177              		.loc 1 1200 0
 3178 03b0 FF2E     		cmp	r6, #255
 3179              		.loc 1 1199 0
ARM GAS  C:\Users\Matuesz\AppData\Local\Temp\ccSJWVN7.s 			page 57


 3180 03b2 8246     		mov	sl, r0
 3181              	.LVL457:
 3182              		.loc 1 1200 0
 3183 03b4 E7D0     		beq	.L373
 3184 03b6 37F81600 		ldrh	r0, [r7, r6, lsl #1]
 3185              	.LVL458:
 3186 03ba FFF7FEFF 		bl	ff_wtoupper
 3187              	.LVL459:
 3188 03be 0136     		adds	r6, r6, #1
 3189              	.LVL460:
 3190 03c0 8245     		cmp	sl, r0
 3191 03c2 3FF497AE 		beq	.L377
 3192 03c6 DEE7     		b	.L373
 3193              	.LVL461:
 3194              	.L380:
 3195              		.loc 1 1199 0
 3196 03c8 FFF7FEFF 		bl	ff_wtoupper
 3197              	.LVL462:
 3198              		.loc 1 1200 0
 3199 03cc FF2E     		cmp	r6, #255
 3200              		.loc 1 1199 0
 3201 03ce 8246     		mov	sl, r0
 3202              	.LVL463:
 3203              		.loc 1 1200 0
 3204 03d0 D9D0     		beq	.L373
 3205 03d2 37F81600 		ldrh	r0, [r7, r6, lsl #1]
 3206              	.LVL464:
 3207 03d6 FFF7FEFF 		bl	ff_wtoupper
 3208              	.LVL465:
 3209 03da 0136     		adds	r6, r6, #1
 3210              	.LVL466:
 3211 03dc 8245     		cmp	sl, r0
 3212 03de 3FF4A3AE 		beq	.L381
 3213 03e2 D0E7     		b	.L373
 3214              	.LVL467:
 3215              	.L378:
 3216              		.loc 1 1199 0
 3217 03e4 FFF7FEFF 		bl	ff_wtoupper
 3218              	.LVL468:
 3219              		.loc 1 1200 0
 3220 03e8 FF2E     		cmp	r6, #255
 3221              		.loc 1 1199 0
 3222 03ea 8246     		mov	sl, r0
 3223              	.LVL469:
 3224              		.loc 1 1200 0
 3225 03ec CBD0     		beq	.L373
 3226 03ee 37F81600 		ldrh	r0, [r7, r6, lsl #1]
 3227              	.LVL470:
 3228 03f2 FFF7FEFF 		bl	ff_wtoupper
 3229              	.LVL471:
 3230 03f6 0136     		adds	r6, r6, #1
 3231              	.LVL472:
 3232 03f8 8245     		cmp	sl, r0
 3233 03fa 3FF488AE 		beq	.L379
 3234 03fe C2E7     		b	.L373
 3235              	.LVL473:
 3236              	.L384:
ARM GAS  C:\Users\Matuesz\AppData\Local\Temp\ccSJWVN7.s 			page 58


 3237              		.loc 1 1199 0
 3238 0400 FFF7FEFF 		bl	ff_wtoupper
 3239              	.LVL474:
 3240              		.loc 1 1200 0
 3241 0404 FF2E     		cmp	r6, #255
 3242              		.loc 1 1199 0
 3243 0406 8246     		mov	sl, r0
 3244              	.LVL475:
 3245              		.loc 1 1200 0
 3246 0408 BDD0     		beq	.L373
 3247 040a 37F81600 		ldrh	r0, [r7, r6, lsl #1]
 3248              	.LVL476:
 3249 040e FFF7FEFF 		bl	ff_wtoupper
 3250              	.LVL477:
 3251 0412 0136     		adds	r6, r6, #1
 3252              	.LVL478:
 3253 0414 8245     		cmp	sl, r0
 3254 0416 3FF4A1AE 		beq	.L385
 3255 041a B4E7     		b	.L373
 3256              	.LVL479:
 3257              	.L382:
 3258              		.loc 1 1199 0
 3259 041c FFF7FEFF 		bl	ff_wtoupper
 3260              	.LVL480:
 3261              		.loc 1 1200 0
 3262 0420 FF2E     		cmp	r6, #255
 3263              		.loc 1 1199 0
 3264 0422 8246     		mov	sl, r0
 3265              	.LVL481:
 3266              		.loc 1 1200 0
 3267 0424 AFD0     		beq	.L373
 3268 0426 37F81600 		ldrh	r0, [r7, r6, lsl #1]
 3269              	.LVL482:
 3270 042a FFF7FEFF 		bl	ff_wtoupper
 3271              	.LVL483:
 3272 042e 0136     		adds	r6, r6, #1
 3273              	.LVL484:
 3274 0430 8245     		cmp	sl, r0
 3275 0432 3FF486AE 		beq	.L383
 3276 0436 A6E7     		b	.L373
 3277              	.LVL485:
 3278              	.L388:
 3279              		.loc 1 1199 0
 3280 0438 FFF7FEFF 		bl	ff_wtoupper
 3281              	.LVL486:
 3282              		.loc 1 1200 0
 3283 043c FF2E     		cmp	r6, #255
 3284              		.loc 1 1199 0
 3285 043e 8246     		mov	sl, r0
 3286              	.LVL487:
 3287              		.loc 1 1200 0
 3288 0440 A1D0     		beq	.L373
 3289 0442 37F81600 		ldrh	r0, [r7, r6, lsl #1]
 3290              	.LVL488:
 3291 0446 FFF7FEFF 		bl	ff_wtoupper
 3292              	.LVL489:
 3293 044a 0136     		adds	r6, r6, #1
ARM GAS  C:\Users\Matuesz\AppData\Local\Temp\ccSJWVN7.s 			page 59


 3294              	.LVL490:
 3295 044c 8245     		cmp	sl, r0
 3296 044e 3FF49FAE 		beq	.L389
 3297 0452 98E7     		b	.L373
 3298              	.LVL491:
 3299              	.L386:
 3300              		.loc 1 1199 0
 3301 0454 FFF7FEFF 		bl	ff_wtoupper
 3302              	.LVL492:
 3303              		.loc 1 1200 0
 3304 0458 FF2E     		cmp	r6, #255
 3305              		.loc 1 1199 0
 3306 045a 8246     		mov	sl, r0
 3307              	.LVL493:
 3308              		.loc 1 1200 0
 3309 045c 93D0     		beq	.L373
 3310 045e 37F81600 		ldrh	r0, [r7, r6, lsl #1]
 3311              	.LVL494:
 3312 0462 FFF7FEFF 		bl	ff_wtoupper
 3313              	.LVL495:
 3314 0466 0136     		adds	r6, r6, #1
 3315              	.LVL496:
 3316 0468 8245     		cmp	sl, r0
 3317 046a 3FF484AE 		beq	.L387
 3318 046e 8AE7     		b	.L373
 3319              	.LVL497:
 3320              	.L394:
 3321              		.loc 1 1199 0
 3322 0470 FFF7FEFF 		bl	ff_wtoupper
 3323              	.LVL498:
 3324              		.loc 1 1200 0
 3325 0474 FF2E     		cmp	r6, #255
 3326              		.loc 1 1199 0
 3327 0476 8246     		mov	sl, r0
 3328              	.LVL499:
 3329              		.loc 1 1200 0
 3330 0478 85D0     		beq	.L373
 3331 047a 37F81600 		ldrh	r0, [r7, r6, lsl #1]
 3332              	.LVL500:
 3333 047e FFF7FEFF 		bl	ff_wtoupper
 3334              	.LVL501:
 3335 0482 0136     		adds	r6, r6, #1
 3336              	.LVL502:
 3337 0484 8245     		cmp	sl, r0
 3338 0486 3FF4AAAE 		beq	.L395
 3339 048a 7CE7     		b	.L373
 3340              	.LVL503:
 3341              	.L392:
 3342              		.loc 1 1199 0
 3343 048c FFF7FEFF 		bl	ff_wtoupper
 3344              	.LVL504:
 3345              		.loc 1 1200 0
 3346 0490 FF2E     		cmp	r6, #255
 3347              		.loc 1 1199 0
 3348 0492 8246     		mov	sl, r0
 3349              	.LVL505:
 3350              		.loc 1 1200 0
ARM GAS  C:\Users\Matuesz\AppData\Local\Temp\ccSJWVN7.s 			page 60


 3351 0494 3FF477AF 		beq	.L373
 3352 0498 37F81600 		ldrh	r0, [r7, r6, lsl #1]
 3353              	.LVL506:
 3354 049c FFF7FEFF 		bl	ff_wtoupper
 3355              	.LVL507:
 3356 04a0 0136     		adds	r6, r6, #1
 3357              	.LVL508:
 3358 04a2 8245     		cmp	sl, r0
 3359 04a4 3FF48EAE 		beq	.L393
 3360 04a8 6DE7     		b	.L373
 3361              	.LVL509:
 3362              	.L390:
 3363              		.loc 1 1199 0
 3364 04aa FFF7FEFF 		bl	ff_wtoupper
 3365              	.LVL510:
 3366              		.loc 1 1200 0
 3367 04ae FF2E     		cmp	r6, #255
 3368              		.loc 1 1199 0
 3369 04b0 8246     		mov	sl, r0
 3370              	.LVL511:
 3371              		.loc 1 1200 0
 3372 04b2 3FF468AF 		beq	.L373
 3373 04b6 37F81600 		ldrh	r0, [r7, r6, lsl #1]
 3374              	.LVL512:
 3375 04ba FFF7FEFF 		bl	ff_wtoupper
 3376              	.LVL513:
 3377 04be 0136     		adds	r6, r6, #1
 3378              	.LVL514:
 3379 04c0 8245     		cmp	sl, r0
 3380 04c2 3FF472AE 		beq	.L391
 3381 04c6 5EE7     		b	.L373
 3382              	.LBE144:
 3383              	.LBE149:
 3384              		.cfi_endproc
 3385              	.LFE59:
 3386              		.size	dir_find.part.5, .-dir_find.part.5
 3387 04c8 AFF30080 		.section	.text.follow_path,"ax",%progbits
 3387      AFF30080 
 3388              		.align	2
 3389              		.p2align 4,,15
 3390              		.thumb
 3391              		.thumb_func
 3392              		.type	follow_path, %function
 3393              	follow_path:
 3394              	.LFB33:
 3395              		.loc 1 1923 0
 3396              		.cfi_startproc
 3397              		@ args = 0, pretend = 0, frame = 8
 3398              		@ frame_needed = 0, uses_anonymous_args = 0
 3399              	.LVL515:
 3400 0000 2DE9F04F 		push	{r4, r5, r6, r7, r8, r9, sl, fp, lr}
 3401              	.LCFI14:
 3402              		.cfi_def_cfa_offset 36
 3403              		.cfi_offset 4, -36
 3404              		.cfi_offset 5, -32
 3405              		.cfi_offset 6, -28
 3406              		.cfi_offset 7, -24
ARM GAS  C:\Users\Matuesz\AppData\Local\Temp\ccSJWVN7.s 			page 61


 3407              		.cfi_offset 8, -20
 3408              		.cfi_offset 9, -16
 3409              		.cfi_offset 10, -12
 3410              		.cfi_offset 11, -8
 3411              		.cfi_offset 14, -4
 3412              		.loc 1 1935 0
 3413 0004 0B78     		ldrb	r3, [r1, #0]	@ zero_extendqisi2
 3414 0006 2F2B     		cmp	r3, #47
 3415              		.loc 1 1923 0
 3416 0008 83B0     		sub	sp, sp, #12
 3417              	.LCFI15:
 3418              		.cfi_def_cfa_offset 48
 3419              		.loc 1 1923 0
 3420 000a 8946     		mov	r9, r1
 3421 000c 0546     		mov	r5, r0
 3422              		.loc 1 1935 0
 3423 000e 00F06E81 		beq	.L474
 3424              		.loc 1 1935 0 is_stmt 0 discriminator 1
 3425 0012 5C2B     		cmp	r3, #92
 3426 0014 00F06B81 		beq	.L474
 3427              		.loc 1 1937 0 is_stmt 1
 3428 0018 0027     		movs	r7, #0
 3429 001a AF60     		str	r7, [r5, #8]
 3430              		.loc 1 1940 0
 3431 001c 99F80000 		ldrb	r0, [r9, #0]	@ zero_extendqisi2
 3432              	.LVL516:
 3433 0020 1F28     		cmp	r0, #31
 3434 0022 02D8     		bhi	.L479
 3435 0024 6CE1     		b	.L631
 3436              	.LVL517:
 3437              	.L480:
 3438 0026 19F8010F 		ldrb	r0, [r9, #1]!	@ zero_extendqisi2
 3439              	.LVL518:
 3440              	.L479:
 3441              	.LBB160:
 3442              	.LBB161:
 3443              		.loc 1 1639 0
 3444 002a 2F28     		cmp	r0, #47
 3445 002c FBD0     		beq	.L480
 3446 002e 5C28     		cmp	r0, #92
 3447 0030 F9D0     		beq	.L480
 3448              		.loc 1 1644 0
 3449 0032 1F28     		cmp	r0, #31
 3450              		.loc 1 1640 0
 3451 0034 EE69     		ldr	r6, [r5, #28]
 3452              	.LVL519:
 3453              		.loc 1 1644 0
 3454 0036 40F22881 		bls	.L528
 3455 003a 2F28     		cmp	r0, #47
 3456 003c 2CD0     		beq	.L529
 3457              		.loc 1 1655 0
 3458 003e 0121     		movs	r1, #1
 3459              		.loc 1 1919 0
 3460 0040 A6F1020B 		sub	fp, r6, #2
 3461 0044 CA46     		mov	sl, r9
 3462              		.loc 1 1643 0
 3463 0046 0124     		movs	r4, #1
ARM GAS  C:\Users\Matuesz\AppData\Local\Temp\ccSJWVN7.s 			page 62


 3464              		.loc 1 1655 0
 3465 0048 FFF7FEFF 		bl	ff_convert
 3466              	.LVL520:
 3467              		.loc 1 1656 0
 3468 004c 00B3     		cbz	r0, .L484
 3469              	.LVL521:
 3470              	.L633:
 3471              		.loc 1 1658 0
 3472 004e 7F28     		cmp	r0, #127
 3473 0050 09D8     		bhi	.L485
 3474              	.LVL522:
 3475              	.LBB162:
 3476              	.LBB163:
 3477              		.loc 1 566 0
 3478 0052 2228     		cmp	r0, #34
 3479 0054 1CD0     		beq	.L484
 3480 0056 AF4A     		ldr	r2, .L639
 3481 0058 01E0     		b	.L486
 3482              	.LVL523:
 3483              	.L632:
 3484 005a 8842     		cmp	r0, r1
 3485 005c 18D0     		beq	.L484
 3486              	.L486:
 3487 005e 12F8011F 		ldrb	r1, [r2, #1]!	@ zero_extendqisi2
 3488 0062 0029     		cmp	r1, #0
 3489 0064 F9D1     		bne	.L632
 3490              	.LVL524:
 3491              	.L485:
 3492              	.LBE163:
 3493              	.LBE162:
 3494              		.loc 1 1660 0
 3495 0066 2BF8020F 		strh	r0, [fp, #2]!	@ movhi
 3496              	.LVL525:
 3497              		.loc 1 1643 0
 3498 006a 1AF8010F 		ldrb	r0, [sl, #1]!	@ zero_extendqisi2
 3499              	.LVL526:
 3500 006e 631C     		adds	r3, r4, #1
 3501              	.LVL527:
 3502              		.loc 1 1644 0
 3503 0070 1F28     		cmp	r0, #31
 3504 0072 40F20C81 		bls	.L481
 3505 0076 2F28     		cmp	r0, #47
 3506 0078 10D0     		beq	.L482
 3507 007a 5C28     		cmp	r0, #92
 3508 007c 0ED0     		beq	.L482
 3509              		.loc 1 1645 0
 3510 007e B3F5807F 		cmp	r3, #256
 3511 0082 05D0     		beq	.L484
 3512              		.loc 1 1655 0
 3513 0084 0121     		movs	r1, #1
 3514              		.loc 1 1643 0
 3515 0086 1C46     		mov	r4, r3
 3516              	.LVL528:
 3517              		.loc 1 1655 0
 3518 0088 FFF7FEFF 		bl	ff_convert
 3519              	.LVL529:
 3520              		.loc 1 1656 0
ARM GAS  C:\Users\Matuesz\AppData\Local\Temp\ccSJWVN7.s 			page 63


 3521 008c 0028     		cmp	r0, #0
 3522 008e DED1     		bne	.L633
 3523              	.LVL530:
 3524              	.L484:
 3525              		.loc 1 1702 0
 3526 0090 0620     		movs	r0, #6
 3527              	.LVL531:
 3528              	.L554:
 3529              	.LBE161:
 3530              	.LBE160:
 3531              		.loc 1 1972 0
 3532 0092 03B0     		add	sp, sp, #12
 3533 0094 BDE8F08F 		pop	{r4, r5, r6, r7, r8, r9, sl, fp, pc}
 3534              	.LVL532:
 3535              	.L529:
 3536              	.LBB175:
 3537              	.LBB170:
 3538              		.loc 1 1641 0
 3539 0098 0024     		movs	r4, #0
 3540              		.loc 1 1643 0
 3541 009a 0123     		movs	r3, #1
 3542              	.LVL533:
 3543              	.L482:
 3544              		.loc 1 1662 0
 3545 009c 9944     		add	r9, r9, r3
 3546              	.LVL534:
 3547              		.loc 1 1663 0
 3548 009e 4FF0000B 		mov	fp, #0
 3549              	.L522:
 3550              	.LVL535:
 3551              		.loc 1 1674 0
 3552 00a2 002C     		cmp	r4, #0
 3553 00a4 F4D0     		beq	.L484
 3554              		.loc 1 1675 0
 3555 00a6 06EB4400 		add	r0, r6, r4, lsl #1
 3556 00aa 621E     		subs	r2, r4, #1
 3557 00ac 30F8023D 		ldrh	r3, [r0, #-2]!
 3558              	.LVL536:
 3559              		.loc 1 1676 0
 3560 00b0 202B     		cmp	r3, #32
 3561 00b2 02F00101 		and	r1, r2, #1
 3562 00b6 01D0     		beq	.L586
 3563 00b8 2E2B     		cmp	r3, #46
 3564 00ba 1BD1     		bne	.L489
 3565              	.L586:
 3566              	.LVL537:
 3567              		.loc 1 1674 0
 3568 00bc 013C     		subs	r4, r4, #1
 3569              	.LVL538:
 3570 00be E7D0     		beq	.L484
 3571 00c0 39B1     		cbz	r1, .L490
 3572              		.loc 1 1675 0
 3573 00c2 30F8022D 		ldrh	r2, [r0, #-2]!
 3574              	.LVL539:
 3575              		.loc 1 1676 0
 3576 00c6 202A     		cmp	r2, #32
 3577 00c8 01D0     		beq	.L588
ARM GAS  C:\Users\Matuesz\AppData\Local\Temp\ccSJWVN7.s 			page 64


 3578 00ca 2E2A     		cmp	r2, #46
 3579 00cc 12D1     		bne	.L489
 3580              	.L588:
 3581              	.LVL540:
 3582              		.loc 1 1674 0
 3583 00ce 013C     		subs	r4, r4, #1
 3584              	.LVL541:
 3585 00d0 DED0     		beq	.L484
 3586              	.L490:
 3587              		.loc 1 1675 0
 3588 00d2 30F8023D 		ldrh	r3, [r0, #-2]!
 3589              		.loc 1 1676 0
 3590 00d6 202B     		cmp	r3, #32
 3591 00d8 01D0     		beq	.L488
 3592 00da 2E2B     		cmp	r3, #46
 3593 00dc 0AD1     		bne	.L489
 3594              	.L488:
 3595              		.loc 1 1675 0
 3596 00de 30F8021D 		ldrh	r1, [r0, #-2]!
 3597              		.loc 1 1677 0
 3598 00e2 013C     		subs	r4, r4, #1
 3599              	.LVL542:
 3600              		.loc 1 1676 0
 3601 00e4 2029     		cmp	r1, #32
 3602              		.loc 1 1677 0
 3603 00e6 2246     		mov	r2, r4
 3604              	.LVL543:
 3605              		.loc 1 1676 0
 3606 00e8 01D0     		beq	.L591
 3607 00ea 2E29     		cmp	r1, #46
 3608 00ec 02D1     		bne	.L489
 3609              	.L591:
 3610              	.LVL544:
 3611              		.loc 1 1674 0
 3612 00ee 541E     		subs	r4, r2, #1
 3613              	.LVL545:
 3614 00f0 EFD1     		bne	.L490
 3615 00f2 CDE7     		b	.L484
 3616              	.L489:
 3617              		.loc 1 1684 0
 3618 00f4 A869     		ldr	r0, [r5, #24]
 3619              	.LVL546:
 3620              		.loc 1 1681 0
 3621 00f6 26F81470 		strh	r7, [r6, r4, lsl #1]	@ movhi
 3622              	.LBB164:
 3623              	.LBB165:
 3624              		.loc 1 550 0
 3625 00fa 2023     		movs	r3, #32
 3626              	.LBE165:
 3627              	.LBE164:
 3628              		.loc 1 1681 0
 3629 00fc 06EB440E 		add	lr, r6, r4, lsl #1
 3630              	.LBB167:
 3631              	.LBB166:
 3632              		.loc 1 550 0
 3633 0100 0370     		strb	r3, [r0, #0]
 3634              	.LVL547:
ARM GAS  C:\Users\Matuesz\AppData\Local\Temp\ccSJWVN7.s 			page 65


 3635 0102 4370     		strb	r3, [r0, #1]
 3636              	.LVL548:
 3637 0104 8370     		strb	r3, [r0, #2]
 3638              	.LVL549:
 3639 0106 C370     		strb	r3, [r0, #3]
 3640              	.LVL550:
 3641 0108 0371     		strb	r3, [r0, #4]
 3642              	.LVL551:
 3643 010a 4371     		strb	r3, [r0, #5]
 3644              	.LVL552:
 3645 010c 8371     		strb	r3, [r0, #6]
 3646              	.LVL553:
 3647 010e C371     		strb	r3, [r0, #7]
 3648              	.LVL554:
 3649 0110 0372     		strb	r3, [r0, #8]
 3650              	.LVL555:
 3651 0112 4372     		strb	r3, [r0, #9]
 3652              	.LVL556:
 3653 0114 8372     		strb	r3, [r0, #10]
 3654              	.LVL557:
 3655              		.loc 1 1919 0
 3656 0116 B11E     		subs	r1, r6, #2
 3657              	.LBE166:
 3658              	.LBE167:
 3659 0118 4FF0000A 		mov	sl, #0
 3660 011c 01E0     		b	.L523
 3661              	.LVL558:
 3662              	.L491:
 3663              		.loc 1 1685 0
 3664 011e 0AF1010A 		add	sl, sl, #1
 3665              	.LVL559:
 3666              	.L523:
 3667 0122 31F8020F 		ldrh	r0, [r1, #2]!
 3668 0126 2028     		cmp	r0, #32
 3669 0128 F9D0     		beq	.L491
 3670 012a 2E28     		cmp	r0, #46
 3671 012c F7D0     		beq	.L491
 3672              		.loc 1 1686 0
 3673 012e BAF1000F 		cmp	sl, #0
 3674 0132 01D0     		beq	.L492
 3675 0134 4BF0030B 		orr	fp, fp, #3
 3676              	.LVL560:
 3677              	.L492:
 3678              		.loc 1 1687 0
 3679 0138 7346     		mov	r3, lr
 3680 013a 621E     		subs	r2, r4, #1
 3681 013c 33F8028D 		ldrh	r8, [r3, #-2]!
 3682 0140 B8F12E0F 		cmp	r8, #46
 3683 0144 02F00101 		and	r1, r2, #1
 3684 0148 12D0     		beq	.L496
 3685              	.LVL561:
 3686 014a 1446     		mov	r4, r2
 3687 014c 82B1     		cbz	r2, .L496
 3688 014e 21B1     		cbz	r1, .L493
 3689 0150 33F8022D 		ldrh	r2, [r3, #-2]!
 3690              	.LVL562:
 3691 0154 2E2A     		cmp	r2, #46
ARM GAS  C:\Users\Matuesz\AppData\Local\Temp\ccSJWVN7.s 			page 66


 3692 0156 09D1     		bne	.L584
 3693 0158 0AE0     		b	.L496
 3694              	.LVL563:
 3695              	.L493:
 3696 015a 33F8021D 		ldrh	r1, [r3, #-2]!
 3697 015e 2E29     		cmp	r1, #46
 3698 0160 06D0     		beq	.L496
 3699 0162 33F8022D 		ldrh	r2, [r3, #-2]!
 3700 0166 013C     		subs	r4, r4, #1
 3701              	.LVL564:
 3702 0168 2E2A     		cmp	r2, #46
 3703 016a 01D0     		beq	.L496
 3704              	.LVL565:
 3705              	.L584:
 3706 016c 013C     		subs	r4, r4, #1
 3707 016e F4D1     		bne	.L493
 3708              	.L496:
 3709              		.loc 1 1703 0
 3710 0170 0022     		movs	r2, #0
 3711 0172 0823     		movs	r3, #8
 3712 0174 9046     		mov	r8, r2
 3713              	.LVL566:
 3714              	.L494:
 3715              		.loc 1 1691 0
 3716 0176 0AF1010A 		add	sl, sl, #1
 3717              	.LVL567:
 3718              		.loc 1 1692 0
 3719 017a 88B3     		cbz	r0, .L497
 3720              		.loc 1 1693 0
 3721 017c 2028     		cmp	r0, #32
 3722 017e 21D0     		beq	.L498
 3723 0180 2E28     		cmp	r0, #46
 3724 0182 1DD0     		beq	.L634
 3725              		.loc 1 1697 0
 3726 0184 9A42     		cmp	r2, r3
 3727 0186 22D2     		bcs	.L502
 3728 0188 5445     		cmp	r4, sl
 3729 018a 00F08480 		beq	.L500
 3730              		.loc 1 1707 0
 3731 018e 7F28     		cmp	r0, #127
 3732 0190 00F28B80 		bhi	.L635
 3733              	.LVL568:
 3734              	.L507:
 3735              	.LBB168:
 3736              	.LBB169:
 3737              		.loc 1 566 0
 3738 0194 2B28     		cmp	r0, #43
 3739 0196 00F09C80 		beq	.L509
 3740 019a DFF87CE1 		ldr	lr, .L639+4
 3741 019e 02E0     		b	.L511
 3742              	.LVL569:
 3743              	.L636:
 3744 01a0 8842     		cmp	r0, r1
 3745 01a2 00F09680 		beq	.L509
 3746              	.L511:
 3747 01a6 1EF8011F 		ldrb	r1, [lr, #1]!	@ zero_extendqisi2
 3748 01aa 0029     		cmp	r1, #0
ARM GAS  C:\Users\Matuesz\AppData\Local\Temp\ccSJWVN7.s 			page 67


 3749 01ac F8D1     		bne	.L636
 3750              	.LBE169:
 3751              	.LBE168:
 3752              		.loc 1 1726 0
 3753 01ae A0F14101 		sub	r1, r0, #65
 3754 01b2 1929     		cmp	r1, #25
 3755 01b4 00F2B280 		bhi	.L637
 3756              		.loc 1 1727 0
 3757 01b8 48F00208 		orr	r8, r8, #2
 3758              	.LVL570:
 3759 01bc C0B2     		uxtb	r0, r0
 3760              	.LVL571:
 3761 01be 8BE0     		b	.L512
 3762              	.LVL572:
 3763              	.L634:
 3764              		.loc 1 1693 0
 3765 01c0 5445     		cmp	r4, sl
 3766 01c2 68D0     		beq	.L500
 3767              	.L498:
 3768              		.loc 1 1694 0
 3769 01c4 4BF0030B 		orr	fp, fp, #3
 3770              	.LVL573:
 3771              	.L501:
 3772 01c8 36F81A00 		ldrh	r0, [r6, sl, lsl #1]
 3773 01cc D3E7     		b	.L494
 3774              	.LVL574:
 3775              	.L502:
 3776              		.loc 1 1698 0
 3777 01ce 0B2B     		cmp	r3, #11
 3778 01d0 00F0AF80 		beq	.L527
 3779              		.loc 1 1701 0
 3780 01d4 5445     		cmp	r4, sl
 3781 01d6 60D0     		beq	.L506
 3782              		.loc 1 1702 0
 3783 01d8 A245     		cmp	sl, r4
 3784              		.loc 1 1701 0
 3785 01da 4BF0030B 		orr	fp, fp, #3
 3786              	.LVL575:
 3787              		.loc 1 1702 0
 3788 01de 5CD9     		bls	.L506
 3789              	.LVL576:
 3790              	.L497:
 3791              		.loc 1 1738 0
 3792 01e0 AA69     		ldr	r2, [r5, #24]
 3793              	.LVL577:
 3794 01e2 1078     		ldrb	r0, [r2, #0]	@ zero_extendqisi2
 3795              	.LVL578:
 3796 01e4 E528     		cmp	r0, #229
 3797 01e6 7ED0     		beq	.L638
 3798              	.L514:
 3799              		.loc 1 1740 0
 3800 01e8 082B     		cmp	r3, #8
 3801 01ea 04BF     		itt	eq
 3802 01ec 4FEA880C 		lsleq	ip, r8, #2
 3803 01f0 5FFA8CF8 		uxtbeq	r8, ip
 3804              	.LVL579:
 3805              	.LBE170:
ARM GAS  C:\Users\Matuesz\AppData\Local\Temp\ccSJWVN7.s 			page 68


 3806              		.loc 1 1741 0
 3807 01f4 08F00C03 		and	r3, r8, #12
 3808              	.LBB171:
 3809 01f8 0C2B     		cmp	r3, #12
 3810 01fa 71D0     		beq	.L516
 3811 01fc 08F00300 		and	r0, r8, #3
 3812 0200 0328     		cmp	r0, #3
 3813 0202 6DD0     		beq	.L516
 3814              	.LVL580:
 3815              	.L517:
 3816              		.loc 1 1743 0
 3817 0204 0BF00201 		and	r1, fp, #2
 3818 0208 C8B2     		uxtb	r0, r1
 3819 020a 50B9     		cbnz	r0, .L518
 3820              		.loc 1 1744 0
 3821 020c 08F0030C 		and	ip, r8, #3
 3822 0210 BCF1010F 		cmp	ip, #1
 3823 0214 08BF     		it	eq
 3824 0216 4BF0100B 		orreq	fp, fp, #16
 3825              	.LVL581:
 3826              		.loc 1 1745 0
 3827 021a 042B     		cmp	r3, #4
 3828 021c 08BF     		it	eq
 3829 021e 4BF0080B 		orreq	fp, fp, #8
 3830              	.LVL582:
 3831              	.L518:
 3832              		.loc 1 1748 0
 3833 0222 82F80BB0 		strb	fp, [r2, #11]
 3834              	.LVL583:
 3835              	.LBE171:
 3836              	.LBE175:
 3837              	.LBB176:
 3838              	.LBB177:
 3839              		.loc 1 1363 0
 3840 0226 2846     		mov	r0, r5
 3841 0228 0021     		movs	r1, #0
 3842 022a FFF7FEFF 		bl	dir_sdi
 3843              	.LVL584:
 3844              		.loc 1 1364 0
 3845 022e 00BB     		cbnz	r0, .L520
 3846 0230 2846     		mov	r0, r5
 3847              	.LVL585:
 3848 0232 FFF7FEFF 		bl	dir_find.part.5
 3849              	.LVL586:
 3850              	.LBE177:
 3851              	.LBE176:
 3852              		.loc 1 1949 0
 3853 0236 AA69     		ldr	r2, [r5, #24]
 3854 0238 D27A     		ldrb	r2, [r2, #11]	@ zero_extendqisi2
 3855              	.LVL587:
 3856              		.loc 1 1950 0
 3857 023a E0B9     		cbnz	r0, .L526
 3858              		.loc 1 1962 0
 3859 023c 02F00403 		and	r3, r2, #4
 3860 0240 D9B2     		uxtb	r1, r3
 3861 0242 0029     		cmp	r1, #0
 3862 0244 7FF425AF 		bne	.L554
ARM GAS  C:\Users\Matuesz\AppData\Local\Temp\ccSJWVN7.s 			page 69


 3863              		.loc 1 1963 0
 3864 0248 6B69     		ldr	r3, [r5, #20]
 3865              	.LVL588:
 3866              		.loc 1 1964 0
 3867 024a D87A     		ldrb	r0, [r3, #11]	@ zero_extendqisi2
 3868 024c 00F01002 		and	r2, r0, #16
 3869 0250 D1B2     		uxtb	r1, r2
 3870 0252 0029     		cmp	r1, #0
 3871 0254 6BD0     		beq	.L533
 3872              		.loc 1 1967 0
 3873 0256 5C7D     		ldrb	r4, [r3, #21]	@ zero_extendqisi2
 3874 0258 D87E     		ldrb	r0, [r3, #27]	@ zero_extendqisi2
 3875 025a 1E7D     		ldrb	r6, [r3, #20]	@ zero_extendqisi2
 3876              	.LVL589:
 3877 025c 9B7E     		ldrb	r3, [r3, #26]	@ zero_extendqisi2
 3878              	.LVL590:
 3879 025e 46EA0422 		orr	r2, r6, r4, lsl #8
 3880 0262 43EA0021 		orr	r1, r3, r0, lsl #8
 3881 0266 41EA0244 		orr	r4, r1, r2, lsl #16
 3882 026a AC60     		str	r4, [r5, #8]
 3883 026c 99F80000 		ldrb	r0, [r9, #0]	@ zero_extendqisi2
 3884              		.loc 1 1968 0
 3885 0270 DBE6     		b	.L479
 3886              	.LVL591:
 3887              	.L520:
 3888              		.loc 1 1949 0
 3889 0272 AB69     		ldr	r3, [r5, #24]
 3890 0274 DA7A     		ldrb	r2, [r3, #11]	@ zero_extendqisi2
 3891              	.LVL592:
 3892              	.L526:
 3893              		.loc 1 1951 0
 3894 0276 0428     		cmp	r0, #4
 3895 0278 7FF40BAF 		bne	.L554
 3896              		.loc 1 1958 0
 3897 027c 02F00401 		and	r1, r2, #4
 3898 0280 CBB2     		uxtb	r3, r1
 3899 0282 002B     		cmp	r3, #0
 3900 0284 08BF     		it	eq
 3901 0286 0520     		moveq	r0, #5
 3902 0288 03E7     		b	.L554
 3903              	.LVL593:
 3904              	.L528:
 3905              	.LBB178:
 3906              	.LBB172:
 3907              		.loc 1 1641 0
 3908 028a 0024     		movs	r4, #0
 3909              		.loc 1 1643 0
 3910 028c 0123     		movs	r3, #1
 3911              	.LVL594:
 3912              	.L481:
 3913              		.loc 1 1662 0
 3914 028e 9944     		add	r9, r9, r3
 3915              	.LVL595:
 3916              		.loc 1 1663 0
 3917 0290 4FF0040B 		mov	fp, #4
 3918 0294 05E7     		b	.L522
 3919              	.LVL596:
ARM GAS  C:\Users\Matuesz\AppData\Local\Temp\ccSJWVN7.s 			page 70


 3920              	.L500:
 3921              		.loc 1 1698 0
 3922 0296 0B2B     		cmp	r3, #11
 3923 0298 4BD0     		beq	.L527
 3924              	.LVL597:
 3925              	.L506:
 3926              		.loc 1 1704 0
 3927 029a 4FEA880C 		lsl	ip, r8, #2
 3928 029e 5FFA8CF8 		uxtb	r8, ip
 3929              	.LVL598:
 3930 02a2 A246     		mov	sl, r4
 3931              		.loc 1 1703 0
 3932 02a4 0B23     		movs	r3, #11
 3933 02a6 0822     		movs	r2, #8
 3934 02a8 8EE7     		b	.L501
 3935              	.LVL599:
 3936              	.L635:
 3937              		.loc 1 1709 0
 3938 02aa 0021     		movs	r1, #0
 3939 02ac 0192     		str	r2, [sp, #4]
 3940 02ae 0093     		str	r3, [sp, #0]
 3941 02b0 FFF7FEFF 		bl	ff_convert
 3942              	.LVL600:
 3943              		.loc 1 1710 0
 3944 02b4 019A     		ldr	r2, [sp, #4]
 3945 02b6 009B     		ldr	r3, [sp, #0]
 3946 02b8 40B3     		cbz	r0, .L508
 3947 02ba 40F20001 		movw	r1, #:lower16:.LANCHOR2
 3948 02be C0F20001 		movt	r1, #:upper16:.LANCHOR2
 3949 02c2 0818     		adds	r0, r1, r0
 3950              	.LVL601:
 3951              		.loc 1 1714 0
 3952 02c4 4BF0020B 		orr	fp, fp, #2
 3953              	.LVL602:
 3954              		.loc 1 1710 0
 3955 02c8 10F8800C 		ldrb	r0, [r0, #-128]	@ zero_extendqisi2
 3956              	.LVL603:
 3957              		.loc 1 1723 0
 3958 02cc 0028     		cmp	r0, #0
 3959 02ce 7FF461AF 		bne	.L507
 3960              	.LVL604:
 3961              	.L509:
 3962              		.loc 1 1724 0
 3963 02d2 4BF0030B 		orr	fp, fp, #3
 3964              	.LVL605:
 3965 02d6 5F20     		movs	r0, #95
 3966              	.LVL606:
 3967              	.L512:
 3968              		.loc 1 1735 0
 3969 02d8 A969     		ldr	r1, [r5, #24]
 3970 02da 8854     		strb	r0, [r1, r2]
 3971 02dc 0132     		adds	r2, r2, #1
 3972              	.LVL607:
 3973 02de 73E7     		b	.L501
 3974              	.LVL608:
 3975              	.L516:
 3976              		.loc 1 1742 0
ARM GAS  C:\Users\Matuesz\AppData\Local\Temp\ccSJWVN7.s 			page 71


 3977 02e0 4BF0020B 		orr	fp, fp, #2
 3978              	.LVL609:
 3979 02e4 8EE7     		b	.L517
 3980              	.L638:
 3981              		.loc 1 1738 0
 3982 02e6 0521     		movs	r1, #5
 3983 02e8 1170     		strb	r1, [r2, #0]
 3984 02ea AA69     		ldr	r2, [r5, #24]
 3985 02ec 7CE7     		b	.L514
 3986              	.LVL610:
 3987              	.L474:
 3988              	.LBE172:
 3989              	.LBE178:
 3990              		.loc 1 1937 0
 3991 02ee 0027     		movs	r7, #0
 3992              		.loc 1 1936 0
 3993 02f0 09F10109 		add	r9, r9, #1
 3994              	.LVL611:
 3995              		.loc 1 1937 0
 3996 02f4 AF60     		str	r7, [r5, #8]
 3997              		.loc 1 1940 0
 3998 02f6 99F80000 		ldrb	r0, [r9, #0]	@ zero_extendqisi2
 3999              	.LVL612:
 4000 02fa 1F28     		cmp	r0, #31
 4001 02fc 3FF695AE 		bhi	.L479
 4002              	.L631:
 4003              		.loc 1 1941 0
 4004 0300 2846     		mov	r0, r5
 4005 0302 3946     		mov	r1, r7
 4006 0304 FFF7FEFF 		bl	dir_sdi
 4007              	.LVL613:
 4008              		.loc 1 1942 0
 4009 0308 6F61     		str	r7, [r5, #20]
 4010 030a C2E6     		b	.L554
 4011              	.LVL614:
 4012              	.L508:
 4013              	.LBB179:
 4014              	.LBB173:
 4015              		.loc 1 1714 0
 4016 030c 4BF0020B 		orr	fp, fp, #2
 4017              	.LVL615:
 4018 0310 DFE7     		b	.L509
 4019              	.L640:
 4020 0312 00BF     		.align	2
 4021              	.L639:
 4022 0314 00000000 		.word	.LC0
 4023 0318 0C000000 		.word	.LC1
 4024              	.LVL616:
 4025              	.L637:
 4026              		.loc 1 1729 0
 4027 031c A0F16101 		sub	r1, r0, #97
 4028 0320 1929     		cmp	r1, #25
 4029 0322 02D8     		bhi	.L630
 4030 0324 2038     		subs	r0, r0, #32
 4031              	.LVL617:
 4032              		.loc 1 1730 0
 4033 0326 48F00108 		orr	r8, r8, #1
ARM GAS  C:\Users\Matuesz\AppData\Local\Temp\ccSJWVN7.s 			page 72


 4034              	.LVL618:
 4035              	.L630:
 4036 032a C0B2     		uxtb	r0, r0
 4037 032c D4E7     		b	.L512
 4038              	.LVL619:
 4039              	.L533:
 4040              	.LBE173:
 4041              	.LBE179:
 4042              		.loc 1 1965 0
 4043 032e 0520     		movs	r0, #5
 4044 0330 AFE6     		b	.L554
 4045              	.LVL620:
 4046              	.L527:
 4047              	.LBB180:
 4048              	.LBB174:
 4049              		.loc 1 1699 0
 4050 0332 4BF0030B 		orr	fp, fp, #3
 4051              	.LVL621:
 4052 0336 0B23     		movs	r3, #11
 4053              	.LVL622:
 4054 0338 52E7     		b	.L497
 4055              	.LBE174:
 4056              	.LBE180:
 4057              		.cfi_endproc
 4058              	.LFE33:
 4059              		.size	follow_path, .-follow_path
 4060 033a 00BFAFF3 		.section	.text.dir_remove,"ax",%progbits
 4060      0080
 4061              		.align	2
 4062              		.p2align 4,,15
 4063              		.thumb
 4064              		.thumb_func
 4065              		.type	dir_remove, %function
 4066              	dir_remove:
 4067              	.LFB30:
 4068              		.loc 1 1581 0
 4069              		.cfi_startproc
 4070              		@ args = 0, pretend = 0, frame = 0
 4071              		@ frame_needed = 0, uses_anonymous_args = 0
 4072              	.LVL623:
 4073 0000 F8B5     		push	{r3, r4, r5, r6, r7, lr}
 4074              	.LCFI16:
 4075              		.cfi_def_cfa_offset 24
 4076              		.cfi_offset 3, -24
 4077              		.cfi_offset 4, -20
 4078              		.cfi_offset 5, -16
 4079              		.cfi_offset 6, -12
 4080              		.cfi_offset 7, -8
 4081              		.cfi_offset 14, -4
 4082              		.loc 1 1587 0
 4083 0002 018C     		ldrh	r1, [r0, #32]
 4084              		.loc 1 1586 0
 4085 0004 C588     		ldrh	r5, [r0, #6]
 4086              	.LVL624:
 4087              		.loc 1 1587 0
 4088 0006 4FF6FF73 		movw	r3, #65535
 4089 000a 9942     		cmp	r1, r3
ARM GAS  C:\Users\Matuesz\AppData\Local\Temp\ccSJWVN7.s 			page 73


 4090 000c 08BF     		it	eq
 4091 000e 2946     		moveq	r1, r5
 4092              		.loc 1 1581 0
 4093 0010 0446     		mov	r4, r0
 4094              		.loc 1 1587 0
 4095 0012 FFF7FEFF 		bl	dir_sdi
 4096              	.LVL625:
 4097              		.loc 1 1588 0
 4098 0016 0346     		mov	r3, r0
 4099 0018 C0B9     		cbnz	r0, .L643
 4100              		.loc 1 1592 0
 4101 001a E527     		movs	r7, #229
 4102              		.loc 1 1593 0
 4103 001c 0126     		movs	r6, #1
 4104              	.L651:
 4105              		.loc 1 1590 0
 4106 001e 2169     		ldr	r1, [r4, #16]
 4107 0020 2068     		ldr	r0, [r4, #0]
 4108              	.LVL626:
 4109 0022 FFF7FEFF 		bl	move_window
 4110              	.LVL627:
 4111              		.loc 1 1591 0
 4112 0026 0346     		mov	r3, r0
 4113              		.loc 1 1595 0
 4114 0028 0146     		mov	r1, r0
 4115 002a 2046     		mov	r0, r4
 4116              	.LVL628:
 4117              		.loc 1 1591 0
 4118 002c 5BB9     		cbnz	r3, .L644
 4119              	.LVL629:
 4120              		.loc 1 1592 0
 4121 002e 6269     		ldr	r2, [r4, #20]
 4122 0030 1770     		strb	r7, [r2, #0]
 4123              		.loc 1 1593 0
 4124 0032 2268     		ldr	r2, [r4, #0]
 4125 0034 1671     		strb	r6, [r2, #4]
 4126              		.loc 1 1594 0
 4127 0036 E288     		ldrh	r2, [r4, #6]
 4128 0038 AA42     		cmp	r2, r5
 4129 003a 07D2     		bcs	.L643
 4130              		.loc 1 1595 0
 4131 003c FFF7FEFF 		bl	dir_next
 4132              	.LVL630:
 4133              		.loc 1 1596 0
 4134 0040 0346     		mov	r3, r0
 4135 0042 0028     		cmp	r0, #0
 4136 0044 EBD0     		beq	.L651
 4137              	.LVL631:
 4138              	.L644:
 4139              		.loc 1 1597 0
 4140 0046 042B     		cmp	r3, #4
 4141 0048 08BF     		it	eq
 4142 004a 0223     		moveq	r3, #2
 4143              	.LVL632:
 4144              	.L643:
 4145              		.loc 1 1612 0
 4146 004c 1846     		mov	r0, r3
ARM GAS  C:\Users\Matuesz\AppData\Local\Temp\ccSJWVN7.s 			page 74


 4147 004e F8BD     		pop	{r3, r4, r5, r6, r7, pc}
 4148              		.cfi_endproc
 4149              	.LFE30:
 4150              		.size	dir_remove, .-dir_remove
 4151              		.section	.text.dir_read,"ax",%progbits
 4152              		.align	2
 4153              		.p2align 4,,15
 4154              		.thumb
 4155              		.thumb_func
 4156              		.type	dir_read, %function
 4157              	dir_read:
 4158              	.LFB28:
 4159              		.loc 1 1417 0
 4160              		.cfi_startproc
 4161              		@ args = 0, pretend = 0, frame = 8
 4162              		@ frame_needed = 0, uses_anonymous_args = 0
 4163              	.LVL633:
 4164 0000 2DE9F04F 		push	{r4, r5, r6, r7, r8, r9, sl, fp, lr}
 4165              	.LCFI17:
 4166              		.cfi_def_cfa_offset 36
 4167              		.cfi_offset 4, -36
 4168              		.cfi_offset 5, -32
 4169              		.cfi_offset 6, -28
 4170              		.cfi_offset 7, -24
 4171              		.cfi_offset 8, -20
 4172              		.cfi_offset 9, -16
 4173              		.cfi_offset 10, -12
 4174              		.cfi_offset 11, -8
 4175              		.cfi_offset 14, -4
 4176              		.loc 1 1421 0
 4177 0004 FF25     		movs	r5, #255
 4178              		.loc 1 1417 0
 4179 0006 0446     		mov	r4, r0
 4180 0008 83B0     		sub	sp, sp, #12
 4181              	.LCFI18:
 4182              		.cfi_def_cfa_offset 48
 4183              		.loc 1 1421 0
 4184 000a 2E46     		mov	r6, r5
 4185              		.loc 1 1424 0
 4186 000c 0420     		movs	r0, #4
 4187              	.LVL634:
 4188              	.LBB185:
 4189              	.LBB186:
 4190              		.loc 1 1240 0
 4191 000e 4FF00008 		mov	r8, #0
 4192              		.loc 1 1234 0
 4193 0012 4FF6FF77 		movw	r7, #65535
 4194              	.LVL635:
 4195              	.L655:
 4196              	.LBE186:
 4197              	.LBE185:
 4198              		.loc 1 1425 0 discriminator 1
 4199 0016 2169     		ldr	r1, [r4, #16]
 4200 0018 0029     		cmp	r1, #0
 4201 001a 00F0F180 		beq	.L748
 4202              		.loc 1 1426 0
 4203 001e 2068     		ldr	r0, [r4, #0]
ARM GAS  C:\Users\Matuesz\AppData\Local\Temp\ccSJWVN7.s 			page 75


 4204 0020 FFF7FEFF 		bl	move_window
 4205              	.LVL636:
 4206              		.loc 1 1427 0
 4207 0024 D8B9     		cbnz	r0, .L693
 4208              		.loc 1 1428 0
 4209 0026 6269     		ldr	r2, [r4, #20]
 4210              	.LVL637:
 4211              		.loc 1 1429 0
 4212 0028 1378     		ldrb	r3, [r2, #0]	@ zero_extendqisi2
 4213              	.LVL638:
 4214              		.loc 1 1430 0
 4215 002a 002B     		cmp	r3, #0
 4216 002c 00F0EC80 		beq	.L694
 4217              		.loc 1 1433 0
 4218 0030 E52B     		cmp	r3, #229
 4219              		.loc 1 1432 0
 4220 0032 D17A     		ldrb	r1, [r2, #11]	@ zero_extendqisi2
 4221              	.LVL639:
 4222              		.loc 1 1433 0
 4223 0034 0CD0     		beq	.L699
 4224              		.loc 1 1433 0 is_stmt 0 discriminator 1
 4225 0036 2E2B     		cmp	r3, #46
 4226 0038 0AD0     		beq	.L699
 4227 003a 01F0080C 		and	ip, r1, #8
 4228 003e 5FFA8CFE 		uxtb	lr, ip
 4229              		.loc 1 1432 0 is_stmt 1 discriminator 1
 4230 0042 01F03F01 		and	r1, r1, #63
 4231              	.LVL640:
 4232              		.loc 1 1433 0 discriminator 1
 4233 0046 BEF1000F 		cmp	lr, #0
 4234 004a 0DD0     		beq	.L658
 4235 004c 0F29     		cmp	r1, #15
 4236 004e 0ED0     		beq	.L659
 4237              	.LVL641:
 4238              	.L699:
 4239              		.loc 1 1443 0
 4240 0050 FF26     		movs	r6, #255
 4241              	.LVL642:
 4242              	.L657:
 4243              		.loc 1 1454 0
 4244 0052 2046     		mov	r0, r4
 4245 0054 0021     		movs	r1, #0
 4246 0056 FFF7FEFF 		bl	dir_next
 4247              	.LVL643:
 4248              		.loc 1 1455 0
 4249 005a 0028     		cmp	r0, #0
 4250 005c DBD0     		beq	.L655
 4251              	.LVL644:
 4252              	.L693:
 4253              		.loc 1 1458 0 discriminator 1
 4254 005e 0021     		movs	r1, #0
 4255 0060 2161     		str	r1, [r4, #16]
 4256              	.L715:
 4257              		.loc 1 1461 0
 4258 0062 03B0     		add	sp, sp, #12
 4259 0064 BDE8F08F 		pop	{r4, r5, r6, r7, r8, r9, sl, fp, pc}
 4260              	.LVL645:
ARM GAS  C:\Users\Matuesz\AppData\Local\Temp\ccSJWVN7.s 			page 76


 4261              	.L658:
 4262              		.loc 1 1436 0
 4263 0068 0F29     		cmp	r1, #15
 4264 006a 40F0CF80 		bne	.L660
 4265              	.L659:
 4266              		.loc 1 1437 0
 4267 006e 03F04000 		and	r0, r3, #64
 4268              	.LVL646:
 4269 0072 C1B2     		uxtb	r1, r0
 4270 0074 0029     		cmp	r1, #0
 4271 0076 00F0BF80 		beq	.L661
 4272              		.loc 1 1440 0
 4273 007a E688     		ldrh	r6, [r4, #6]
 4274              	.LVL647:
 4275              		.loc 1 1438 0
 4276 007c 557B     		ldrb	r5, [r2, #13]	@ zero_extendqisi2
 4277              	.LVL648:
 4278              		.loc 1 1440 0
 4279 007e 2684     		strh	r6, [r4, #32]	@ movhi
 4280              		.loc 1 1439 0
 4281 0080 03F0BF06 		and	r6, r3, #191
 4282              	.LVL649:
 4283              	.L662:
 4284              		.loc 1 1443 0 discriminator 1
 4285 0084 517B     		ldrb	r1, [r2, #13]	@ zero_extendqisi2
 4286 0086 A942     		cmp	r1, r5
 4287 0088 E2D1     		bne	.L699
 4288              	.LBB192:
 4289              		.loc 1 1225 0 discriminator 1
 4290 008a 1378     		ldrb	r3, [r2, #0]	@ zero_extendqisi2
 4291              	.LBB187:
 4292              		.loc 1 1229 0 discriminator 1
 4293 008c 92F802C0 		ldrb	ip, [r2, #2]	@ zero_extendqisi2
 4294 0090 5078     		ldrb	r0, [r2, #1]	@ zero_extendqisi2
 4295              	.LBE187:
 4296              	.LBE192:
 4297              		.loc 1 1443 0 discriminator 1
 4298 0092 E569     		ldr	r5, [r4, #28]
 4299              	.LVL650:
 4300              	.LBB193:
 4301              	.LBB188:
 4302              		.loc 1 1225 0 discriminator 1
 4303 0094 03F03F03 		and	r3, r3, #63
 4304 0098 013B     		subs	r3, r3, #1
 4305 009a 03EB430E 		add	lr, r3, r3, lsl #1
 4306 009e 03EB8E0E 		add	lr, r3, lr, lsl #2
 4307              	.LVL651:
 4308              		.loc 1 1231 0 discriminator 1
 4309 00a2 BEF1FE0F 		cmp	lr, #254
 4310              		.loc 1 1229 0 discriminator 1
 4311 00a6 40EA0C20 		orr	r0, r0, ip, lsl #8
 4312              	.LVL652:
 4313              		.loc 1 1231 0 discriminator 1
 4314 00aa 00F22381 		bhi	.L663
 4315              	.LVL653:
 4316              		.loc 1 1232 0
 4317 00ae 25F81E00 		strh	r0, [r5, lr, lsl #1]	@ movhi
ARM GAS  C:\Users\Matuesz\AppData\Local\Temp\ccSJWVN7.s 			page 77


 4318              		.loc 1 1229 0
 4319 00b2 92F80490 		ldrb	r9, [r2, #4]	@ zero_extendqisi2
 4320 00b6 92F803C0 		ldrb	ip, [r2, #3]	@ zero_extendqisi2
 4321              		.loc 1 1232 0
 4322 00ba 0EF10103 		add	r3, lr, #1
 4323              	.LVL654:
 4324              		.loc 1 1229 0
 4325 00be 4CEA092C 		orr	ip, ip, r9, lsl #8
 4326              	.LVL655:
 4327              		.loc 1 1230 0
 4328 00c2 0028     		cmp	r0, #0
 4329 00c4 40F0FD80 		bne	.L664
 4330              		.loc 1 1234 0
 4331 00c8 BC45     		cmp	ip, r7
 4332 00ca 40F01381 		bne	.L663
 4333              	.LVL656:
 4334              	.L665:
 4335              		.loc 1 1229 0
 4336 00ce 92F806C0 		ldrb	ip, [r2, #6]	@ zero_extendqisi2
 4337              	.LVL657:
 4338 00d2 92F805E0 		ldrb	lr, [r2, #5]	@ zero_extendqisi2
 4339 00d6 4EEA0C2C 		orr	ip, lr, ip, lsl #8
 4340              	.LVL658:
 4341              		.loc 1 1230 0
 4342 00da 0028     		cmp	r0, #0
 4343 00dc 40F0F980 		bne	.L666
 4344              		.loc 1 1234 0
 4345 00e0 BC45     		cmp	ip, r7
 4346 00e2 40F00781 		bne	.L663
 4347              	.LVL659:
 4348              	.L667:
 4349              		.loc 1 1229 0
 4350 00e6 92F808C0 		ldrb	ip, [r2, #8]	@ zero_extendqisi2
 4351              	.LVL660:
 4352 00ea 92F807E0 		ldrb	lr, [r2, #7]	@ zero_extendqisi2
 4353              	.LVL661:
 4354 00ee 4EEA0C2C 		orr	ip, lr, ip, lsl #8
 4355              	.LVL662:
 4356              		.loc 1 1230 0
 4357 00f2 0028     		cmp	r0, #0
 4358 00f4 40F0F480 		bne	.L668
 4359              		.loc 1 1234 0
 4360 00f8 BC45     		cmp	ip, r7
 4361 00fa 40F0FB80 		bne	.L663
 4362              	.LVL663:
 4363              	.L669:
 4364              		.loc 1 1229 0
 4365 00fe 92F80AC0 		ldrb	ip, [r2, #10]	@ zero_extendqisi2
 4366              	.LVL664:
 4367 0102 92F809E0 		ldrb	lr, [r2, #9]	@ zero_extendqisi2
 4368              	.LVL665:
 4369 0106 4EEA0C2C 		orr	ip, lr, ip, lsl #8
 4370              	.LVL666:
 4371              		.loc 1 1230 0
 4372 010a 0028     		cmp	r0, #0
 4373 010c 40F0F580 		bne	.L670
 4374              		.loc 1 1234 0
ARM GAS  C:\Users\Matuesz\AppData\Local\Temp\ccSJWVN7.s 			page 78


 4375 0110 BC45     		cmp	ip, r7
 4376 0112 40F0EF80 		bne	.L663
 4377              	.LVL667:
 4378              	.L671:
 4379              		.loc 1 1229 0
 4380 0116 92F80FC0 		ldrb	ip, [r2, #15]	@ zero_extendqisi2
 4381              	.LVL668:
 4382 011a 92F80EE0 		ldrb	lr, [r2, #14]	@ zero_extendqisi2
 4383              	.LVL669:
 4384 011e 4EEA0C2C 		orr	ip, lr, ip, lsl #8
 4385              	.LVL670:
 4386              		.loc 1 1230 0
 4387 0122 0028     		cmp	r0, #0
 4388 0124 40F0F080 		bne	.L672
 4389              		.loc 1 1234 0
 4390 0128 BC45     		cmp	ip, r7
 4391 012a 40F0E380 		bne	.L663
 4392              	.LVL671:
 4393              	.L673:
 4394              		.loc 1 1229 0
 4395 012e 92F811C0 		ldrb	ip, [r2, #17]	@ zero_extendqisi2
 4396              	.LVL672:
 4397 0132 92F810E0 		ldrb	lr, [r2, #16]	@ zero_extendqisi2
 4398              	.LVL673:
 4399 0136 4EEA0C2C 		orr	ip, lr, ip, lsl #8
 4400              	.LVL674:
 4401              		.loc 1 1230 0
 4402 013a 0028     		cmp	r0, #0
 4403 013c 40F0EB80 		bne	.L674
 4404              		.loc 1 1234 0
 4405 0140 BC45     		cmp	ip, r7
 4406 0142 40F0D780 		bne	.L663
 4407              	.LVL675:
 4408              	.L675:
 4409              		.loc 1 1229 0
 4410 0146 92F813C0 		ldrb	ip, [r2, #19]	@ zero_extendqisi2
 4411              	.LVL676:
 4412 014a 92F812E0 		ldrb	lr, [r2, #18]	@ zero_extendqisi2
 4413              	.LVL677:
 4414 014e 4EEA0C2C 		orr	ip, lr, ip, lsl #8
 4415              	.LVL678:
 4416              		.loc 1 1230 0
 4417 0152 0028     		cmp	r0, #0
 4418 0154 40F0E680 		bne	.L676
 4419              		.loc 1 1234 0
 4420 0158 BC45     		cmp	ip, r7
 4421 015a 40F0CB80 		bne	.L663
 4422              	.LVL679:
 4423              	.L677:
 4424              		.loc 1 1229 0
 4425 015e 92F815C0 		ldrb	ip, [r2, #21]	@ zero_extendqisi2
 4426              	.LVL680:
 4427 0162 92F814E0 		ldrb	lr, [r2, #20]	@ zero_extendqisi2
 4428              	.LVL681:
 4429 0166 4EEA0C2C 		orr	ip, lr, ip, lsl #8
 4430              	.LVL682:
 4431              		.loc 1 1230 0
ARM GAS  C:\Users\Matuesz\AppData\Local\Temp\ccSJWVN7.s 			page 79


 4432 016a 0028     		cmp	r0, #0
 4433 016c 40F0E180 		bne	.L678
 4434              		.loc 1 1234 0
 4435 0170 BC45     		cmp	ip, r7
 4436 0172 40F0BF80 		bne	.L663
 4437              	.LVL683:
 4438              	.L679:
 4439              		.loc 1 1229 0
 4440 0176 92F817C0 		ldrb	ip, [r2, #23]	@ zero_extendqisi2
 4441              	.LVL684:
 4442 017a 92F816E0 		ldrb	lr, [r2, #22]	@ zero_extendqisi2
 4443              	.LVL685:
 4444 017e 4EEA0C2C 		orr	ip, lr, ip, lsl #8
 4445              	.LVL686:
 4446              		.loc 1 1230 0
 4447 0182 0028     		cmp	r0, #0
 4448 0184 40F0DC80 		bne	.L680
 4449              		.loc 1 1234 0
 4450 0188 BC45     		cmp	ip, r7
 4451 018a 40F0B380 		bne	.L663
 4452              	.LVL687:
 4453              	.L681:
 4454              		.loc 1 1229 0
 4455 018e 92F819C0 		ldrb	ip, [r2, #25]	@ zero_extendqisi2
 4456              	.LVL688:
 4457 0192 92F818E0 		ldrb	lr, [r2, #24]	@ zero_extendqisi2
 4458              	.LVL689:
 4459 0196 4EEA0C2C 		orr	ip, lr, ip, lsl #8
 4460              	.LVL690:
 4461              		.loc 1 1230 0
 4462 019a 0028     		cmp	r0, #0
 4463 019c 40F0D780 		bne	.L682
 4464              		.loc 1 1234 0
 4465 01a0 BC45     		cmp	ip, r7
 4466 01a2 40F0A780 		bne	.L663
 4467              	.LVL691:
 4468              	.L683:
 4469              		.loc 1 1229 0
 4470 01a6 92F81DC0 		ldrb	ip, [r2, #29]	@ zero_extendqisi2
 4471              	.LVL692:
 4472 01aa 92F81CE0 		ldrb	lr, [r2, #28]	@ zero_extendqisi2
 4473              	.LVL693:
 4474 01ae 4EEA0C2C 		orr	ip, lr, ip, lsl #8
 4475              	.LVL694:
 4476              		.loc 1 1230 0
 4477 01b2 0028     		cmp	r0, #0
 4478 01b4 40F0D280 		bne	.L684
 4479              		.loc 1 1234 0
 4480 01b8 BC45     		cmp	ip, r7
 4481 01ba 40F09B80 		bne	.L663
 4482              	.LVL695:
 4483              	.L685:
 4484              		.loc 1 1229 0
 4485 01be 92F81FC0 		ldrb	ip, [r2, #31]	@ zero_extendqisi2
 4486              	.LVL696:
 4487 01c2 92F81EE0 		ldrb	lr, [r2, #30]	@ zero_extendqisi2
 4488              	.LVL697:
ARM GAS  C:\Users\Matuesz\AppData\Local\Temp\ccSJWVN7.s 			page 80


 4489 01c6 4EEA0C2C 		orr	ip, lr, ip, lsl #8
 4490              	.LVL698:
 4491              		.loc 1 1230 0
 4492 01ca 0028     		cmp	r0, #0
 4493 01cc 00F08F80 		beq	.L686
 4494              		.loc 1 1231 0
 4495 01d0 FF2B     		cmp	r3, #255
 4496 01d2 00F08F80 		beq	.L663
 4497              	.LVL699:
 4498              		.loc 1 1232 0
 4499 01d6 25F813C0 		strh	ip, [r5, r3, lsl #1]	@ movhi
 4500 01da 0133     		adds	r3, r3, #1
 4501              	.LVL700:
 4502              	.L687:
 4503              	.LBE188:
 4504              		.loc 1 1238 0
 4505 01dc 1278     		ldrb	r2, [r2, #0]	@ zero_extendqisi2
 4506              	.LVL701:
 4507              	.LBB189:
 4508 01de 02F04000 		and	r0, r2, #64
 4509 01e2 C2B2     		uxtb	r2, r0
 4510 01e4 22B1     		cbz	r2, .L688
 4511              		.loc 1 1239 0
 4512 01e6 FF2B     		cmp	r3, #255
 4513 01e8 00F08480 		beq	.L663
 4514              		.loc 1 1240 0
 4515 01ec 25F81380 		strh	r8, [r5, r3, lsl #1]	@ movhi
 4516              	.L688:
 4517              	.LBE189:
 4518              	.LBE193:
 4519              		.loc 1 1443 0
 4520 01f0 013E     		subs	r6, r6, #1
 4521 01f2 F6B2     		uxtb	r6, r6
 4522 01f4 0D46     		mov	r5, r1
 4523              	.LVL702:
 4524 01f6 2CE7     		b	.L657
 4525              	.LVL703:
 4526              	.L661:
 4527 01f8 9E42     		cmp	r6, r3
 4528 01fa 7FF429AF 		bne	.L699
 4529 01fe 41E7     		b	.L662
 4530              	.LVL704:
 4531              	.L748:
 4532              		.loc 1 1458 0
 4533 0200 0028     		cmp	r0, #0
 4534 0202 3FF42EAF 		beq	.L715
 4535 0206 2AE7     		b	.L693
 4536              	.LVL705:
 4537              	.L694:
 4538              		.loc 1 1430 0
 4539 0208 0420     		movs	r0, #4
 4540              	.LVL706:
 4541 020a 28E7     		b	.L693
 4542              	.LVL707:
 4543              	.L660:
 4544              		.loc 1 1445 0
 4545 020c 002E     		cmp	r6, #0
ARM GAS  C:\Users\Matuesz\AppData\Local\Temp\ccSJWVN7.s 			page 81


 4546 020e 54D1     		bne	.L689
 4547              	.LVL708:
 4548              	.LBB194:
 4549              	.LBB195:
 4550              		.loc 1 1340 0
 4551 0210 92F801A0 		ldrb	sl, [r2, #1]	@ zero_extendqisi2
 4552 0214 92F80290 		ldrb	r9, [r2, #2]	@ zero_extendqisi2
 4553 0218 92F80380 		ldrb	r8, [r2, #3]	@ zero_extendqisi2
 4554 021c 92F804C0 		ldrb	ip, [r2, #4]	@ zero_extendqisi2
 4555 0220 5779     		ldrb	r7, [r2, #5]	@ zero_extendqisi2
 4556 0222 9679     		ldrb	r6, [r2, #6]	@ zero_extendqisi2
 4557              	.LVL709:
 4558 0224 D179     		ldrb	r1, [r2, #7]	@ zero_extendqisi2
 4559 0226 4FEAC31B 		lsl	fp, r3, #7
 4560 022a 4BEA5303 		orr	r3, fp, r3, lsr #1
 4561              	.LVL710:
 4562 022e 5344     		add	r3, r3, sl
 4563 0230 DBB2     		uxtb	r3, r3
 4564 0232 4FEAC31A 		lsl	sl, r3, #7
 4565 0236 4AEA5303 		orr	r3, sl, r3, lsr #1
 4566 023a 59FA83F3 		uxtab	r3, r9, r3
 4567 023e DBB2     		uxtb	r3, r3
 4568 0240 4FEAC319 		lsl	r9, r3, #7
 4569 0244 49EA5303 		orr	r3, r9, r3, lsr #1
 4570 0248 58FA83F3 		uxtab	r3, r8, r3
 4571 024c DBB2     		uxtb	r3, r3
 4572 024e 4FEAC318 		lsl	r8, r3, #7
 4573 0252 48EA5303 		orr	r3, r8, r3, lsr #1
 4574 0256 5CFA83F3 		uxtab	r3, ip, r3
 4575 025a DBB2     		uxtb	r3, r3
 4576 025c 4FEAC31E 		lsl	lr, r3, #7
 4577 0260 4EEA5303 		orr	r3, lr, r3, lsr #1
 4578 0264 57FA83F7 		uxtab	r7, r7, r3
 4579 0268 FBB2     		uxtb	r3, r7
 4580 026a DF01     		lsls	r7, r3, #7
 4581 026c 47EA5303 		orr	r3, r7, r3, lsr #1
 4582 0270 56FA83F6 		uxtab	r6, r6, r3
 4583 0274 F3B2     		uxtb	r3, r6
 4584 0276 DE01     		lsls	r6, r3, #7
 4585 0278 0091     		str	r1, [sp, #0]
 4586 027a 46EA5303 		orr	r3, r6, r3, lsr #1
 4587 027e 009E     		ldr	r6, [sp, #0]
 4588 0280 117A     		ldrb	r1, [r2, #8]	@ zero_extendqisi2
 4589 0282 56FA83F3 		uxtab	r3, r6, r3
 4590 0286 DBB2     		uxtb	r3, r3
 4591 0288 DE01     		lsls	r6, r3, #7
 4592 028a 0191     		str	r1, [sp, #4]
 4593 028c 46EA5303 		orr	r3, r6, r3, lsr #1
 4594 0290 019E     		ldr	r6, [sp, #4]
 4595 0292 517A     		ldrb	r1, [r2, #9]	@ zero_extendqisi2
 4596              	.LVL711:
 4597 0294 927A     		ldrb	r2, [r2, #10]	@ zero_extendqisi2
 4598              	.LVL712:
 4599 0296 56FA83F3 		uxtab	r3, r6, r3
 4600 029a DBB2     		uxtb	r3, r3
 4601              	.LVL713:
 4602 029c DE01     		lsls	r6, r3, #7
ARM GAS  C:\Users\Matuesz\AppData\Local\Temp\ccSJWVN7.s 			page 82


 4603 029e 46EA5303 		orr	r3, r6, r3, lsr #1
 4604              	.LVL714:
 4605 02a2 51FA83F1 		uxtab	r1, r1, r3
 4606 02a6 CBB2     		uxtb	r3, r1
 4607              	.LVL715:
 4608 02a8 D901     		lsls	r1, r3, #7
 4609              	.LVL716:
 4610 02aa 41EA5303 		orr	r3, r1, r3, lsr #1
 4611              	.LVL717:
 4612 02ae 52FA83F2 		uxtab	r2, r2, r3
 4613              	.LBE195:
 4614              	.LBE194:
 4615              		.loc 1 1445 0
 4616 02b2 D1B2     		uxtb	r1, r2
 4617 02b4 A942     		cmp	r1, r5
 4618 02b6 3FF4D4AE 		beq	.L715
 4619              	.LVL718:
 4620              	.L689:
 4621              		.loc 1 1446 0
 4622 02ba 4FF6FF73 		movw	r3, #65535
 4623 02be 2384     		strh	r3, [r4, #32]	@ movhi
 4624              	.LVL719:
 4625 02c0 CFE6     		b	.L715
 4626              	.LVL720:
 4627              	.L664:
 4628              	.LBB196:
 4629              	.LBB190:
 4630              		.loc 1 1231 0
 4631 02c2 FF2B     		cmp	r3, #255
 4632 02c4 16D0     		beq	.L663
 4633              	.LVL721:
 4634              		.loc 1 1232 0
 4635 02c6 25F813C0 		strh	ip, [r5, r3, lsl #1]	@ movhi
 4636              		.loc 1 1229 0
 4637 02ca 6046     		mov	r0, ip
 4638              		.loc 1 1232 0
 4639 02cc 0EF10203 		add	r3, lr, #2
 4640              	.LVL722:
 4641 02d0 FDE6     		b	.L665
 4642              	.LVL723:
 4643              	.L666:
 4644              		.loc 1 1231 0
 4645 02d2 FF2B     		cmp	r3, #255
 4646 02d4 0ED0     		beq	.L663
 4647              	.LVL724:
 4648              		.loc 1 1232 0
 4649 02d6 25F813C0 		strh	ip, [r5, r3, lsl #1]	@ movhi
 4650              		.loc 1 1229 0
 4651 02da 6046     		mov	r0, ip
 4652              		.loc 1 1232 0
 4653 02dc 0133     		adds	r3, r3, #1
 4654              	.LVL725:
 4655 02de 02E7     		b	.L667
 4656              	.LVL726:
 4657              	.L668:
 4658              		.loc 1 1231 0
 4659 02e0 FF2B     		cmp	r3, #255
ARM GAS  C:\Users\Matuesz\AppData\Local\Temp\ccSJWVN7.s 			page 83


 4660 02e2 07D0     		beq	.L663
 4661              	.LVL727:
 4662              		.loc 1 1232 0
 4663 02e4 25F813C0 		strh	ip, [r5, r3, lsl #1]	@ movhi
 4664              		.loc 1 1229 0
 4665 02e8 6046     		mov	r0, ip
 4666              		.loc 1 1232 0
 4667 02ea 0133     		adds	r3, r3, #1
 4668              	.LVL728:
 4669 02ec 07E7     		b	.L669
 4670              	.LVL729:
 4671              	.L686:
 4672              		.loc 1 1234 0
 4673 02ee BC45     		cmp	ip, r7
 4674 02f0 3FF474AF 		beq	.L687
 4675              	.LVL730:
 4676              	.L663:
 4677              	.LBE190:
 4678              	.LBE196:
 4679              		.loc 1 1443 0
 4680 02f4 0D46     		mov	r5, r1
 4681              	.LVL731:
 4682 02f6 FF26     		movs	r6, #255
 4683 02f8 ABE6     		b	.L657
 4684              	.LVL732:
 4685              	.L670:
 4686              	.LBB197:
 4687              	.LBB191:
 4688              		.loc 1 1231 0
 4689 02fa FF2B     		cmp	r3, #255
 4690 02fc FAD0     		beq	.L663
 4691              	.LVL733:
 4692              		.loc 1 1232 0
 4693 02fe 25F813C0 		strh	ip, [r5, r3, lsl #1]	@ movhi
 4694              		.loc 1 1229 0
 4695 0302 6046     		mov	r0, ip
 4696              		.loc 1 1232 0
 4697 0304 0133     		adds	r3, r3, #1
 4698              	.LVL734:
 4699 0306 06E7     		b	.L671
 4700              	.LVL735:
 4701              	.L672:
 4702              		.loc 1 1231 0
 4703 0308 FF2B     		cmp	r3, #255
 4704 030a F3D0     		beq	.L663
 4705              	.LVL736:
 4706              		.loc 1 1232 0
 4707 030c 25F813C0 		strh	ip, [r5, r3, lsl #1]	@ movhi
 4708              		.loc 1 1229 0
 4709 0310 6046     		mov	r0, ip
 4710              		.loc 1 1232 0
 4711 0312 0133     		adds	r3, r3, #1
 4712              	.LVL737:
 4713 0314 0BE7     		b	.L673
 4714              	.LVL738:
 4715              	.L674:
 4716              		.loc 1 1231 0
ARM GAS  C:\Users\Matuesz\AppData\Local\Temp\ccSJWVN7.s 			page 84


 4717 0316 FF2B     		cmp	r3, #255
 4718 0318 ECD0     		beq	.L663
 4719              	.LVL739:
 4720              		.loc 1 1232 0
 4721 031a 25F813C0 		strh	ip, [r5, r3, lsl #1]	@ movhi
 4722              		.loc 1 1229 0
 4723 031e 6046     		mov	r0, ip
 4724              		.loc 1 1232 0
 4725 0320 0133     		adds	r3, r3, #1
 4726              	.LVL740:
 4727 0322 10E7     		b	.L675
 4728              	.LVL741:
 4729              	.L676:
 4730              		.loc 1 1231 0
 4731 0324 FF2B     		cmp	r3, #255
 4732 0326 E5D0     		beq	.L663
 4733              	.LVL742:
 4734              		.loc 1 1232 0
 4735 0328 25F813C0 		strh	ip, [r5, r3, lsl #1]	@ movhi
 4736              		.loc 1 1229 0
 4737 032c 6046     		mov	r0, ip
 4738              		.loc 1 1232 0
 4739 032e 0133     		adds	r3, r3, #1
 4740              	.LVL743:
 4741 0330 15E7     		b	.L677
 4742              	.LVL744:
 4743              	.L678:
 4744              		.loc 1 1231 0
 4745 0332 FF2B     		cmp	r3, #255
 4746 0334 DED0     		beq	.L663
 4747              	.LVL745:
 4748              		.loc 1 1232 0
 4749 0336 25F813C0 		strh	ip, [r5, r3, lsl #1]	@ movhi
 4750              		.loc 1 1229 0
 4751 033a 6046     		mov	r0, ip
 4752              		.loc 1 1232 0
 4753 033c 0133     		adds	r3, r3, #1
 4754              	.LVL746:
 4755 033e 1AE7     		b	.L679
 4756              	.LVL747:
 4757              	.L680:
 4758              		.loc 1 1231 0
 4759 0340 FF2B     		cmp	r3, #255
 4760 0342 D7D0     		beq	.L663
 4761              	.LVL748:
 4762              		.loc 1 1232 0
 4763 0344 25F813C0 		strh	ip, [r5, r3, lsl #1]	@ movhi
 4764              		.loc 1 1229 0
 4765 0348 6046     		mov	r0, ip
 4766              		.loc 1 1232 0
 4767 034a 0133     		adds	r3, r3, #1
 4768              	.LVL749:
 4769 034c 1FE7     		b	.L681
 4770              	.LVL750:
 4771              	.L682:
 4772              		.loc 1 1231 0
 4773 034e FF2B     		cmp	r3, #255
ARM GAS  C:\Users\Matuesz\AppData\Local\Temp\ccSJWVN7.s 			page 85


 4774 0350 D0D0     		beq	.L663
 4775              	.LVL751:
 4776              		.loc 1 1232 0
 4777 0352 25F813C0 		strh	ip, [r5, r3, lsl #1]	@ movhi
 4778              		.loc 1 1229 0
 4779 0356 6046     		mov	r0, ip
 4780              		.loc 1 1232 0
 4781 0358 0133     		adds	r3, r3, #1
 4782              	.LVL752:
 4783 035a 24E7     		b	.L683
 4784              	.LVL753:
 4785              	.L684:
 4786              		.loc 1 1231 0
 4787 035c FF2B     		cmp	r3, #255
 4788 035e C9D0     		beq	.L663
 4789              	.LVL754:
 4790              		.loc 1 1232 0
 4791 0360 25F813C0 		strh	ip, [r5, r3, lsl #1]	@ movhi
 4792              		.loc 1 1229 0
 4793 0364 6046     		mov	r0, ip
 4794              		.loc 1 1232 0
 4795 0366 0133     		adds	r3, r3, #1
 4796              	.LVL755:
 4797 0368 29E7     		b	.L685
 4798              	.LBE191:
 4799              	.LBE197:
 4800              		.cfi_endproc
 4801              	.LFE28:
 4802              		.size	dir_read, .-dir_read
 4803 036a 00BFAFF3 		.section	.text.remove_chain,"ax",%progbits
 4803      0080
 4804              		.align	2
 4805              		.p2align 4,,15
 4806              		.thumb
 4807              		.thumb_func
 4808              		.type	remove_chain, %function
 4809              	remove_chain:
 4810              	.LFB18:
 4811              		.loc 1 929 0
 4812              		.cfi_startproc
 4813              		@ args = 0, pretend = 0, frame = 0
 4814              		@ frame_needed = 0, uses_anonymous_args = 0
 4815              	.LVL756:
 4816              		.loc 1 936 0
 4817 0000 0129     		cmp	r1, #1
 4818              		.loc 1 929 0
 4819 0002 70B5     		push	{r4, r5, r6, lr}
 4820              	.LCFI19:
 4821              		.cfi_def_cfa_offset 16
 4822              		.cfi_offset 4, -16
 4823              		.cfi_offset 5, -12
 4824              		.cfi_offset 6, -8
 4825              		.cfi_offset 14, -4
 4826              		.loc 1 929 0
 4827 0004 0D46     		mov	r5, r1
 4828 0006 0446     		mov	r4, r0
 4829              		.loc 1 936 0
ARM GAS  C:\Users\Matuesz\AppData\Local\Temp\ccSJWVN7.s 			page 86


 4830 0008 02D9     		bls	.L757
 4831              		.loc 1 936 0 is_stmt 0 discriminator 1
 4832 000a C369     		ldr	r3, [r0, #28]
 4833 000c 9942     		cmp	r1, r3
 4834 000e 01D3     		bcc	.L765
 4835              	.LVL757:
 4836              	.L757:
 4837              		.loc 1 937 0 is_stmt 1
 4838 0010 0220     		movs	r0, #2
 4839              	.LVL758:
 4840              	.L750:
 4841              		.loc 1 967 0
 4842 0012 70BD     		pop	{r4, r5, r6, pc}
 4843              	.LVL759:
 4844              	.L765:
 4845              	.LBB200:
 4846              	.LBB201:
 4847              		.loc 1 950 0
 4848 0014 0126     		movs	r6, #1
 4849              	.LVL760:
 4850              	.L762:
 4851              		.loc 1 942 0
 4852 0016 2946     		mov	r1, r5
 4853 0018 2046     		mov	r0, r4
 4854 001a FFF7FEFF 		bl	get_fat
 4855              	.LVL761:
 4856              		.loc 1 943 0
 4857 001e 0346     		mov	r3, r0
 4858              		.loc 1 946 0
 4859 0020 2946     		mov	r1, r5
 4860 0022 0022     		movs	r2, #0
 4861 0024 0546     		mov	r5, r0
 4862 0026 2046     		mov	r0, r4
 4863              	.LVL762:
 4864              		.loc 1 943 0
 4865 0028 83B1     		cbz	r3, .L755
 4866              	.LVL763:
 4867              		.loc 1 944 0
 4868 002a 012B     		cmp	r3, #1
 4869 002c F0D0     		beq	.L757
 4870              		.loc 1 945 0
 4871 002e 0133     		adds	r3, r3, #1
 4872              	.LVL764:
 4873 0030 0ED0     		beq	.L759
 4874              		.loc 1 946 0
 4875 0032 FFF7FEFF 		bl	put_fat
 4876              	.LVL765:
 4877              		.loc 1 947 0
 4878 0036 0028     		cmp	r0, #0
 4879 0038 EBD1     		bne	.L750
 4880              		.loc 1 948 0
 4881 003a 6069     		ldr	r0, [r4, #20]
 4882 003c 421C     		adds	r2, r0, #1
 4883 003e 02D0     		beq	.L753
 4884              		.loc 1 949 0
 4885 0040 411C     		adds	r1, r0, #1
 4886 0042 6161     		str	r1, [r4, #20]
ARM GAS  C:\Users\Matuesz\AppData\Local\Temp\ccSJWVN7.s 			page 87


 4887              		.loc 1 950 0
 4888 0044 6671     		strb	r6, [r4, #5]
 4889              	.L753:
 4890              		.loc 1 941 0
 4891 0046 E269     		ldr	r2, [r4, #28]
 4892 0048 9542     		cmp	r5, r2
 4893 004a E4D3     		bcc	.L762
 4894              	.LVL766:
 4895              	.L755:
 4896              	.LBE201:
 4897              	.LBE200:
 4898              		.loc 1 929 0
 4899 004c 0020     		movs	r0, #0
 4900 004e 70BD     		pop	{r4, r5, r6, pc}
 4901              	.LVL767:
 4902              	.L759:
 4903              	.LBB203:
 4904              	.LBB202:
 4905              		.loc 1 945 0
 4906 0050 0120     		movs	r0, #1
 4907              	.LVL768:
 4908 0052 70BD     		pop	{r4, r5, r6, pc}
 4909              	.LBE202:
 4910              	.LBE203:
 4911              		.cfi_endproc
 4912              	.LFE18:
 4913              		.size	remove_chain, .-remove_chain
 4914 0054 AFF30080 		.section	.text.gen_numname,"ax",%progbits
 4914      AFF30080 
 4914      AFF30080 
 4915              		.align	2
 4916              		.p2align 4,,15
 4917              		.global	gen_numname
 4918              		.thumb
 4919              		.thumb_func
 4920              		.type	gen_numname, %function
 4921              	gen_numname:
 4922              	.LFB25:
 4923              		.loc 1 1291 0
 4924              		.cfi_startproc
 4925              		@ args = 0, pretend = 0, frame = 8
 4926              		@ frame_needed = 0, uses_anonymous_args = 0
 4927              		@ link register save eliminated.
 4928              	.LVL769:
 4929 0000 30B4     		push	{r4, r5}
 4930              	.LCFI20:
 4931              		.cfi_def_cfa_offset 8
 4932              		.cfi_offset 4, -8
 4933              		.cfi_offset 5, -4
 4934              	.LBB204:
 4935              	.LBB205:
 4936              		.loc 1 541 0
 4937 0002 0C78     		ldrb	r4, [r1, #0]	@ zero_extendqisi2
 4938 0004 0470     		strb	r4, [r0, #0]
 4939              	.LVL770:
 4940 0006 4D78     		ldrb	r5, [r1, #1]	@ zero_extendqisi2
 4941 0008 4570     		strb	r5, [r0, #1]
ARM GAS  C:\Users\Matuesz\AppData\Local\Temp\ccSJWVN7.s 			page 88


 4942              	.LVL771:
 4943 000a 8C78     		ldrb	r4, [r1, #2]	@ zero_extendqisi2
 4944 000c 8470     		strb	r4, [r0, #2]
 4945              	.LVL772:
 4946 000e CD78     		ldrb	r5, [r1, #3]	@ zero_extendqisi2
 4947 0010 C570     		strb	r5, [r0, #3]
 4948              	.LVL773:
 4949 0012 0C79     		ldrb	r4, [r1, #4]	@ zero_extendqisi2
 4950 0014 0471     		strb	r4, [r0, #4]
 4951              	.LVL774:
 4952 0016 4D79     		ldrb	r5, [r1, #5]	@ zero_extendqisi2
 4953 0018 4571     		strb	r5, [r0, #5]
 4954              	.LVL775:
 4955 001a 8C79     		ldrb	r4, [r1, #6]	@ zero_extendqisi2
 4956 001c 8471     		strb	r4, [r0, #6]
 4957              	.LVL776:
 4958 001e CD79     		ldrb	r5, [r1, #7]	@ zero_extendqisi2
 4959 0020 C571     		strb	r5, [r0, #7]
 4960              	.LVL777:
 4961 0022 0C7A     		ldrb	r4, [r1, #8]	@ zero_extendqisi2
 4962 0024 0472     		strb	r4, [r0, #8]
 4963              	.LVL778:
 4964 0026 4D7A     		ldrb	r5, [r1, #9]	@ zero_extendqisi2
 4965 0028 4572     		strb	r5, [r0, #9]
 4966              	.LVL779:
 4967 002a 897A     		ldrb	r1, [r1, #10]	@ zero_extendqisi2
 4968              	.LVL780:
 4969              	.LBE205:
 4970              	.LBE204:
 4971              		.loc 1 1298 0
 4972 002c 052B     		cmp	r3, #5
 4973              		.loc 1 1291 0
 4974 002e 82B0     		sub	sp, sp, #8
 4975              	.LCFI21:
 4976              		.cfi_def_cfa_offset 16
 4977              	.LBB207:
 4978              	.LBB206:
 4979              		.loc 1 541 0
 4980 0030 8172     		strb	r1, [r0, #10]
 4981              	.LVL781:
 4982              	.LBE206:
 4983              	.LBE207:
 4984              		.loc 1 1298 0
 4985 0032 0AD9     		bls	.L767
 4986 0034 1188     		ldrh	r1, [r2, #0]
 4987              	.LVL782:
 4988              	.L768:
 4989              		.loc 1 1299 0 discriminator 1
 4990 0036 5C08     		lsrs	r4, r3, #1
 4991 0038 44EAC333 		orr	r3, r4, r3, lsl #15
 4992              	.LVL783:
 4993 003c 11FA83F5 		uxtah	r5, r1, r3
 4994 0040 32F8021F 		ldrh	r1, [r2, #2]!
 4995 0044 ABB2     		uxth	r3, r5
 4996              	.LVL784:
 4997 0046 0029     		cmp	r1, #0
 4998 0048 F5D1     		bne	.L768
ARM GAS  C:\Users\Matuesz\AppData\Local\Temp\ccSJWVN7.s 			page 89


 4999              	.LVL785:
 5000              	.L767:
 5001              		.loc 1 1291 0
 5002 004a 0722     		movs	r2, #7
 5003              	.L770:
 5004              	.LVL786:
 5005              		.loc 1 1305 0
 5006 004c 03F00F04 		and	r4, r3, #15
 5007 0050 04F13005 		add	r5, r4, #48
 5008              	.LVL787:
 5009              		.loc 1 1306 0
 5010 0054 392D     		cmp	r5, #57
 5011 0056 88BF     		it	hi
 5012 0058 04F13705 		addhi	r5, r4, #55
 5013              	.LVL788:
 5014              		.loc 1 1307 0
 5015 005c 0DF80250 		strb	r5, [sp, r2]
 5016 0060 013A     		subs	r2, r2, #1
 5017              	.LVL789:
 5018              		.loc 1 1309 0
 5019 0062 1B09     		lsrs	r3, r3, #4
 5020              	.LVL790:
 5021 0064 F2D1     		bne	.L770
 5022              		.loc 1 1310 0
 5023 0066 02A9     		add	r1, sp, #8
 5024 0068 8D18     		adds	r5, r1, r2
 5025              	.LVL791:
 5026 006a 7E24     		movs	r4, #126
 5027              	.LVL792:
 5028 006c 05F8084C 		strb	r4, [r5, #-8]
 5029              	.LVL793:
 5030              		.loc 1 1313 0
 5031 0070 002A     		cmp	r2, #0
 5032 0072 5BD0     		beq	.L775
 5033 0074 0178     		ldrb	r1, [r0, #0]	@ zero_extendqisi2
 5034 0076 2029     		cmp	r1, #32
 5035 0078 08D0     		beq	.L774
 5036 007a D407     		lsls	r4, r2, #31
 5037 007c 0546     		mov	r5, r0
 5038 007e 29D4     		bmi	.L772
 5039 0080 0546     		mov	r5, r0
 5040 0082 0123     		movs	r3, #1
 5041              	.LVL794:
 5042 0084 15F8014F 		ldrb	r4, [r5, #1]!	@ zero_extendqisi2
 5043 0088 202C     		cmp	r4, #32
 5044 008a 23D1     		bne	.L772
 5045              	.LVL795:
 5046              	.L774:
 5047 008c C3F10705 		rsb	r5, r3, #7
 5048              		.loc 1 1320 0
 5049 0090 072A     		cmp	r2, #7
 5050 0092 05F00105 		and	r5, r5, #1
 5051              	.LVL796:
 5052 0096 26D8     		bhi	.L783
 5053              	.L810:
 5054 0098 02A9     		add	r1, sp, #8
 5055 009a 8C18     		adds	r4, r1, r2
ARM GAS  C:\Users\Matuesz\AppData\Local\Temp\ccSJWVN7.s 			page 90


 5056 009c 0132     		adds	r2, r2, #1
 5057              	.LVL797:
 5058 009e 14F8084C 		ldrb	r4, [r4, #-8]	@ zero_extendqisi2
 5059              	.L803:
 5060 00a2 591C     		adds	r1, r3, #1
 5061              		.loc 1 1321 0
 5062 00a4 0729     		cmp	r1, #7
 5063              		.loc 1 1320 0
 5064 00a6 C454     		strb	r4, [r0, r3]
 5065              		.loc 1 1321 0
 5066 00a8 08D8     		bhi	.L804
 5067 00aa 002D     		cmp	r5, #0
 5068 00ac 2FD0     		beq	.L778
 5069              	.LVL798:
 5070              		.loc 1 1320 0
 5071 00ae 072A     		cmp	r2, #7
 5072 00b0 36D9     		bls	.L808
 5073 00b2 2023     		movs	r3, #32
 5074              	.L805:
 5075 00b4 4354     		strb	r3, [r0, r1]
 5076 00b6 0131     		adds	r1, r1, #1
 5077              		.loc 1 1321 0
 5078 00b8 0729     		cmp	r1, #7
 5079 00ba 28D9     		bls	.L778
 5080              	.L804:
 5081              		.loc 1 1322 0
 5082 00bc 02B0     		add	sp, sp, #8
 5083 00be 30BC     		pop	{r4, r5}
 5084 00c0 7047     		bx	lr
 5085              	.LVL799:
 5086              	.L809:
 5087              		.loc 1 1313 0 discriminator 2
 5088 00c2 15F8011F 		ldrb	r1, [r5, #1]!	@ zero_extendqisi2
 5089 00c6 2029     		cmp	r1, #32
 5090 00c8 E0D0     		beq	.L774
 5091              		.loc 1 1313 0 is_stmt 0
 5092 00ca 15F8014F 		ldrb	r4, [r5, #1]!	@ zero_extendqisi2
 5093 00ce 0133     		adds	r3, r3, #1
 5094              	.LVL800:
 5095 00d0 202C     		cmp	r4, #32
 5096 00d2 DBD0     		beq	.L774
 5097              	.LVL801:
 5098              	.L772:
 5099 00d4 0133     		adds	r3, r3, #1
 5100              	.LVL802:
 5101 00d6 9342     		cmp	r3, r2
 5102 00d8 F3D1     		bne	.L809
 5103 00da C3F10705 		rsb	r5, r3, #7
 5104              		.loc 1 1320 0 is_stmt 1
 5105 00de 072A     		cmp	r2, #7
 5106 00e0 05F00105 		and	r5, r5, #1
 5107 00e4 D8D9     		bls	.L810
 5108              	.L783:
 5109 00e6 2024     		movs	r4, #32
 5110 00e8 DBE7     		b	.L803
 5111              	.LVL803:
 5112              	.L811:
ARM GAS  C:\Users\Matuesz\AppData\Local\Temp\ccSJWVN7.s 			page 91


 5113              		.loc 1 1320 0 is_stmt 0 discriminator 1
 5114 00ea 02AB     		add	r3, sp, #8
 5115 00ec 9C18     		adds	r4, r3, r2
 5116 00ee 0132     		adds	r2, r2, #1
 5117              	.LVL804:
 5118 00f0 14F8084C 		ldrb	r4, [r4, #-8]	@ zero_extendqisi2
 5119 00f4 4B1C     		adds	r3, r1, #1
 5120 00f6 072A     		cmp	r2, #7
 5121 00f8 4454     		strb	r4, [r0, r1]
 5122 00fa 0FD8     		bhi	.L788
 5123              	.L812:
 5124              		.loc 1 1320 0
 5125 00fc 02A9     		add	r1, sp, #8
 5126 00fe 8C18     		adds	r4, r1, r2
 5127 0100 0132     		adds	r2, r2, #1
 5128              	.LVL805:
 5129 0102 14F8084C 		ldrb	r4, [r4, #-8]	@ zero_extendqisi2
 5130              	.L806:
 5131 0106 591C     		adds	r1, r3, #1
 5132              		.loc 1 1321 0 is_stmt 1
 5133 0108 0729     		cmp	r1, #7
 5134              		.loc 1 1320 0
 5135 010a C454     		strb	r4, [r0, r3]
 5136              		.loc 1 1321 0
 5137 010c D6D8     		bhi	.L804
 5138              	.L778:
 5139              		.loc 1 1320 0
 5140 010e 072A     		cmp	r2, #7
 5141 0110 EBD9     		bls	.L811
 5142 0112 2024     		movs	r4, #32
 5143 0114 4B1C     		adds	r3, r1, #1
 5144 0116 072A     		cmp	r2, #7
 5145 0118 4454     		strb	r4, [r0, r1]
 5146 011a EFD9     		bls	.L812
 5147              	.L788:
 5148 011c 2024     		movs	r4, #32
 5149 011e F2E7     		b	.L806
 5150              	.L808:
 5151 0120 02AC     		add	r4, sp, #8
 5152 0122 A318     		adds	r3, r4, r2
 5153 0124 0132     		adds	r2, r2, #1
 5154              	.LVL806:
 5155 0126 13F8083C 		ldrb	r3, [r3, #-8]	@ zero_extendqisi2
 5156 012a C3E7     		b	.L805
 5157              	.LVL807:
 5158              	.L775:
 5159              		.loc 1 1313 0
 5160 012c 1346     		mov	r3, r2
 5161 012e ADE7     		b	.L774
 5162              		.cfi_endproc
 5163              	.LFE25:
 5164              		.size	gen_numname, .-gen_numname
 5165              		.section	.text.dir_register,"ax",%progbits
 5166              		.align	2
 5167              		.p2align 4,,15
 5168              		.thumb
 5169              		.thumb_func
ARM GAS  C:\Users\Matuesz\AppData\Local\Temp\ccSJWVN7.s 			page 92


 5170              		.type	dir_register, %function
 5171              	dir_register:
 5172              	.LFB29:
 5173              		.loc 1 1474 0
 5174              		.cfi_startproc
 5175              		@ args = 0, pretend = 0, frame = 24
 5176              		@ frame_needed = 0, uses_anonymous_args = 0
 5177              	.LVL808:
 5178 0000 2DE9F04F 		push	{r4, r5, r6, r7, r8, r9, sl, fp, lr}
 5179              	.LCFI22:
 5180              		.cfi_def_cfa_offset 36
 5181              		.cfi_offset 4, -36
 5182              		.cfi_offset 5, -32
 5183              		.cfi_offset 6, -28
 5184              		.cfi_offset 7, -24
 5185              		.cfi_offset 8, -20
 5186              		.cfi_offset 9, -16
 5187              		.cfi_offset 10, -12
 5188              		.cfi_offset 11, -8
 5189              		.cfi_offset 14, -4
 5190              		.loc 1 1483 0
 5191 0004 8569     		ldr	r5, [r0, #24]
 5192              	.LVL809:
 5193 0006 C669     		ldr	r6, [r0, #28]
 5194              	.LVL810:
 5195              	.LBB220:
 5196              	.LBB221:
 5197              		.loc 1 541 0
 5198 0008 697A     		ldrb	r1, [r5, #9]	@ zero_extendqisi2
 5199 000a 2A78     		ldrb	r2, [r5, #0]	@ zero_extendqisi2
 5200 000c EF79     		ldrb	r7, [r5, #7]	@ zero_extendqisi2
 5201 000e EB7A     		ldrb	r3, [r5, #11]	@ zero_extendqisi2
 5202 0010 95F801B0 		ldrb	fp, [r5, #1]	@ zero_extendqisi2
 5203 0014 95F802A0 		ldrb	sl, [r5, #2]	@ zero_extendqisi2
 5204 0018 95F80390 		ldrb	r9, [r5, #3]	@ zero_extendqisi2
 5205 001c 95F80480 		ldrb	r8, [r5, #4]	@ zero_extendqisi2
 5206 0020 95F805C0 		ldrb	ip, [r5, #5]	@ zero_extendqisi2
 5207 0024 95F806E0 		ldrb	lr, [r5, #6]	@ zero_extendqisi2
 5208              	.LBE221:
 5209              	.LBE220:
 5210              		.loc 1 1474 0
 5211 0028 87B0     		sub	sp, sp, #28
 5212              	.LCFI23:
 5213              		.cfi_def_cfa_offset 64
 5214              	.LVL811:
 5215              		.loc 1 1474 0
 5216 002a 0446     		mov	r4, r0
 5217              	.LBB225:
 5218              	.LBB222:
 5219              		.loc 1 541 0
 5220 002c 0091     		str	r1, [sp, #0]
 5221 002e A97A     		ldrb	r1, [r5, #10]	@ zero_extendqisi2
 5222 0030 287A     		ldrb	r0, [r5, #8]	@ zero_extendqisi2
 5223              	.LVL812:
 5224 0032 0191     		str	r1, [sp, #4]
 5225 0034 8DF80C20 		strb	r2, [sp, #12]
 5226              	.LVL813:
ARM GAS  C:\Users\Matuesz\AppData\Local\Temp\ccSJWVN7.s 			page 93


 5227 0038 8DF81370 		strb	r7, [sp, #19]
 5228              	.LBE222:
 5229              	.LBE225:
 5230              		.loc 1 1489 0
 5231 003c 1A46     		mov	r2, r3
 5232              	.LBB226:
 5233              	.LBB223:
 5234              		.loc 1 541 0
 5235 003e 8DF81400 		strb	r0, [sp, #20]
 5236 0042 009F     		ldr	r7, [sp, #0]
 5237 0044 0198     		ldr	r0, [sp, #4]
 5238 0046 8DF81730 		strb	r3, [sp, #23]
 5239              	.LBE223:
 5240              	.LBE226:
 5241              		.loc 1 1489 0
 5242 004a D307     		lsls	r3, r2, #31
 5243              	.LBB227:
 5244              	.LBB224:
 5245              		.loc 1 541 0
 5246 004c 8DF80DB0 		strb	fp, [sp, #13]
 5247              	.LVL814:
 5248 0050 8DF80EA0 		strb	sl, [sp, #14]
 5249              	.LVL815:
 5250 0054 8DF80F90 		strb	r9, [sp, #15]
 5251              	.LVL816:
 5252 0058 8DF81080 		strb	r8, [sp, #16]
 5253              	.LVL817:
 5254 005c 8DF811C0 		strb	ip, [sp, #17]
 5255              	.LVL818:
 5256 0060 8DF812E0 		strb	lr, [sp, #18]
 5257              	.LVL819:
 5258 0064 8DF81570 		strb	r7, [sp, #21]
 5259              	.LVL820:
 5260 0068 8DF81600 		strb	r0, [sp, #22]
 5261              	.LVL821:
 5262              	.LBE224:
 5263              	.LBE227:
 5264              		.loc 1 1489 0
 5265 006c 57D5     		bpl	.L814
 5266              		.loc 1 1490 0
 5267 006e 0023     		movs	r3, #0
 5268 0070 EB72     		strb	r3, [r5, #11]
 5269              		.loc 1 1491 0
 5270 0072 4FF00108 		mov	r8, #1
 5271              		.loc 1 1490 0
 5272 0076 E361     		str	r3, [r4, #28]
 5273              	.LVL822:
 5274 0078 37E0     		b	.L816
 5275              	.LVL823:
 5276              	.L914:
 5277 007a FFF7FEFF 		bl	dir_find.part.5
 5278              	.LVL824:
 5279              		.loc 1 1491 0
 5280 007e 08F10108 		add	r8, r8, #1
 5281              		.loc 1 1494 0
 5282 0082 0746     		mov	r7, r0
 5283              		.loc 1 1491 0
ARM GAS  C:\Users\Matuesz\AppData\Local\Temp\ccSJWVN7.s 			page 94


 5284 0084 1FFA88F8 		uxth	r8, r8
 5285              	.LVL825:
 5286              		.loc 1 1492 0
 5287 0088 3246     		mov	r2, r6
 5288 008a 4346     		mov	r3, r8
 5289 008c 2846     		mov	r0, r5
 5290 008e 03A9     		add	r1, sp, #12
 5291              	.LVL826:
 5292              		.loc 1 1494 0
 5293 0090 002F     		cmp	r7, #0
 5294 0092 38D1     		bne	.L815
 5295              	.LVL827:
 5296              		.loc 1 1492 0
 5297 0094 FFF7FEFF 		bl	gen_numname
 5298              	.LVL828:
 5299              	.LBB228:
 5300              	.LBB229:
 5301              		.loc 1 1363 0
 5302 0098 3946     		mov	r1, r7
 5303 009a 2046     		mov	r0, r4
 5304 009c FFF7FEFF 		bl	dir_sdi
 5305              	.LVL829:
 5306              		.loc 1 1364 0
 5307 00a0 0746     		mov	r7, r0
 5308 00a2 2046     		mov	r0, r4
 5309              	.LVL830:
 5310 00a4 002F     		cmp	r7, #0
 5311 00a6 2ED1     		bne	.L815
 5312              	.LVL831:
 5313 00a8 FFF7FEFF 		bl	dir_find.part.5
 5314              	.LVL832:
 5315              	.LBE229:
 5316              	.LBE228:
 5317              		.loc 1 1491 0
 5318 00ac 08F10102 		add	r2, r8, #1
 5319 00b0 1FFA82F8 		uxth	r8, r2
 5320              	.LVL833:
 5321              		.loc 1 1494 0
 5322 00b4 0746     		mov	r7, r0
 5323              		.loc 1 1492 0
 5324 00b6 3246     		mov	r2, r6
 5325 00b8 4346     		mov	r3, r8
 5326 00ba 2846     		mov	r0, r5
 5327 00bc 03A9     		add	r1, sp, #12
 5328              	.LVL834:
 5329              		.loc 1 1494 0
 5330 00be 17BB     		cbnz	r7, .L815
 5331              	.LVL835:
 5332              		.loc 1 1492 0
 5333 00c0 FFF7FEFF 		bl	gen_numname
 5334              	.LVL836:
 5335              	.LBB232:
 5336              	.LBB230:
 5337              		.loc 1 1363 0
 5338 00c4 3946     		mov	r1, r7
 5339 00c6 2046     		mov	r0, r4
 5340 00c8 FFF7FEFF 		bl	dir_sdi
ARM GAS  C:\Users\Matuesz\AppData\Local\Temp\ccSJWVN7.s 			page 95


 5341              	.LVL837:
 5342              		.loc 1 1364 0
 5343 00cc 0746     		mov	r7, r0
 5344 00ce 2046     		mov	r0, r4
 5345              	.LVL838:
 5346 00d0 CFB9     		cbnz	r7, .L815
 5347              	.LVL839:
 5348 00d2 FFF7FEFF 		bl	dir_find.part.5
 5349              	.LVL840:
 5350              	.LBE230:
 5351              	.LBE232:
 5352              		.loc 1 1491 0
 5353 00d6 08F10101 		add	r1, r8, #1
 5354              		.loc 1 1494 0
 5355 00da 0746     		mov	r7, r0
 5356              		.loc 1 1491 0
 5357 00dc 1FFA81F8 		uxth	r8, r1
 5358              	.LVL841:
 5359              		.loc 1 1494 0
 5360 00e0 88B9     		cbnz	r0, .L815
 5361              		.loc 1 1491 0
 5362 00e2 B8F1640F 		cmp	r8, #100
 5363 00e6 00F09180 		beq	.L913
 5364              	.LVL842:
 5365              	.L816:
 5366              		.loc 1 1492 0
 5367 00ea 4346     		mov	r3, r8
 5368 00ec 3246     		mov	r2, r6
 5369 00ee 03A9     		add	r1, sp, #12
 5370              	.LVL843:
 5371 00f0 2846     		mov	r0, r5
 5372 00f2 FFF7FEFF 		bl	gen_numname
 5373              	.LVL844:
 5374              	.LBB233:
 5375              	.LBB231:
 5376              		.loc 1 1363 0
 5377 00f6 2046     		mov	r0, r4
 5378 00f8 0021     		movs	r1, #0
 5379 00fa FFF7FEFF 		bl	dir_sdi
 5380              	.LVL845:
 5381              		.loc 1 1364 0
 5382 00fe 0746     		mov	r7, r0
 5383 0100 2046     		mov	r0, r4
 5384              	.LVL846:
 5385 0102 002F     		cmp	r7, #0
 5386 0104 B9D0     		beq	.L914
 5387              	.L815:
 5388              	.LVL847:
 5389              	.LBE231:
 5390              	.LBE233:
 5391              		.loc 1 1497 0
 5392 0106 042F     		cmp	r7, #4
 5393 0108 03D0     		beq	.L915
 5394              	.LVL848:
 5395              	.L881:
 5396              		.loc 1 1567 0
 5397 010a 3846     		mov	r0, r7
ARM GAS  C:\Users\Matuesz\AppData\Local\Temp\ccSJWVN7.s 			page 96


 5398 010c 07B0     		add	sp, sp, #28
 5399 010e BDE8F08F 		pop	{r4, r5, r6, r7, r8, r9, sl, fp, pc}
 5400              	.LVL849:
 5401              	.L915:
 5402              		.loc 1 1498 0
 5403 0112 9DF81770 		ldrb	r7, [sp, #23]	@ zero_extendqisi2
 5404              	.LVL850:
 5405 0116 EF72     		strb	r7, [r5, #11]
 5406 0118 9DF81720 		ldrb	r2, [sp, #23]	@ zero_extendqisi2
 5407 011c E661     		str	r6, [r4, #28]
 5408              	.LVL851:
 5409              	.L814:
 5410              		.loc 1 1501 0
 5411 011e 02F00200 		and	r0, r2, #2
 5412 0122 C3B2     		uxtb	r3, r0
 5413 0124 002B     		cmp	r3, #0
 5414 0126 5BD1     		bne	.L916
 5415              	.L872:
 5416              		.loc 1 1505 0
 5417 0128 0126     		movs	r6, #1
 5418              	.LVL852:
 5419              	.L818:
 5420              		.loc 1 1509 0
 5421 012a 2046     		mov	r0, r4
 5422 012c 0021     		movs	r1, #0
 5423 012e FFF7FEFF 		bl	dir_sdi
 5424              	.LVL853:
 5425              		.loc 1 1510 0
 5426 0132 0746     		mov	r7, r0
 5427 0134 0028     		cmp	r0, #0
 5428 0136 E8D1     		bne	.L881
 5429 0138 8046     		mov	r8, r0
 5430 013a 0546     		mov	r5, r0
 5431              	.LVL854:
 5432 013c 05E0     		b	.L826
 5433              	.LVL855:
 5434              	.L874:
 5435              		.loc 1 1520 0
 5436 013e 3D46     		mov	r5, r7
 5437              	.LVL856:
 5438              	.L823:
 5439              		.loc 1 1522 0
 5440 0140 FFF7FEFF 		bl	dir_next
 5441              	.LVL857:
 5442              		.loc 1 1523 0
 5443 0144 0746     		mov	r7, r0
 5444 0146 0028     		cmp	r0, #0
 5445 0148 DFD1     		bne	.L881
 5446              	.LVL858:
 5447              	.L826:
 5448              		.loc 1 1513 0
 5449 014a 2169     		ldr	r1, [r4, #16]
 5450 014c 2068     		ldr	r0, [r4, #0]
 5451              	.LVL859:
 5452 014e FFF7FEFF 		bl	move_window
 5453              	.LVL860:
 5454              		.loc 1 1514 0
ARM GAS  C:\Users\Matuesz\AppData\Local\Temp\ccSJWVN7.s 			page 97


 5455 0152 0746     		mov	r7, r0
 5456              		.loc 1 1518 0
 5457 0154 6A1C     		adds	r2, r5, #1
 5458              		.loc 1 1522 0
 5459 0156 2046     		mov	r0, r4
 5460              	.LVL861:
 5461 0158 0121     		movs	r1, #1
 5462              		.loc 1 1514 0
 5463 015a 002F     		cmp	r7, #0
 5464 015c D5D1     		bne	.L881
 5465              	.LVL862:
 5466              		.loc 1 1515 0
 5467 015e 6369     		ldr	r3, [r4, #20]
 5468 0160 1B78     		ldrb	r3, [r3, #0]	@ zero_extendqisi2
 5469              	.LVL863:
 5470              		.loc 1 1516 0
 5471 0162 E52B     		cmp	r3, #229
 5472 0164 01D0     		beq	.L822
 5473              		.loc 1 1516 0 is_stmt 0 discriminator 1
 5474 0166 002B     		cmp	r3, #0
 5475 0168 E9D1     		bne	.L874
 5476              	.L822:
 5477              		.loc 1 1517 0 is_stmt 1
 5478 016a 0DB9     		cbnz	r5, .L824
 5479              		.loc 1 1517 0 is_stmt 0 discriminator 1
 5480 016c B4F80680 		ldrh	r8, [r4, #6]
 5481              	.L824:
 5482              		.loc 1 1518 0 is_stmt 1
 5483 0170 95B2     		uxth	r5, r2
 5484              	.LVL864:
 5485 0172 B542     		cmp	r5, r6
 5486 0174 E4D1     		bne	.L823
 5487              	.LVL865:
 5488              		.loc 1 1525 0
 5489 0176 012D     		cmp	r5, #1
 5490 0178 4AD1     		bne	.L869
 5491              	.LVL866:
 5492              	.L866:
 5493              		.loc 1 1554 0
 5494 017a 2068     		ldr	r0, [r4, #0]
 5495 017c 2169     		ldr	r1, [r4, #16]
 5496 017e FFF7FEFF 		bl	move_window
 5497              	.LVL867:
 5498              		.loc 1 1555 0
 5499 0182 0746     		mov	r7, r0
 5500 0184 0028     		cmp	r0, #0
 5501 0186 C0D1     		bne	.L881
 5502              		.loc 1 1556 0
 5503 0188 6569     		ldr	r5, [r4, #20]
 5504              	.LVL868:
 5505              	.LBB234:
 5506              	.LBB235:
 5507              		.loc 1 550 0
 5508 018a 3946     		mov	r1, r7
 5509              	.LBE235:
 5510              	.LBE234:
 5511              		.loc 1 1471 0
ARM GAS  C:\Users\Matuesz\AppData\Local\Temp\ccSJWVN7.s 			page 98


 5512 018c 05F12000 		add	r0, r5, #32
 5513              	.LVL869:
 5514              	.LBB237:
 5515              	.LBB238:
 5516              		.loc 1 1556 0
 5517 0190 2B46     		mov	r3, r5
 5518              	.LVL870:
 5519              	.L867:
 5520              	.LBE238:
 5521              	.LBE237:
 5522              	.LBB243:
 5523              	.LBB236:
 5524              		.loc 1 550 0
 5525 0192 1A46     		mov	r2, r3
 5526 0194 02F8011B 		strb	r1, [r2], #1
 5527 0198 5970     		strb	r1, [r3, #1]
 5528 019a 531C     		adds	r3, r2, #1
 5529              	.LVL871:
 5530              		.loc 1 549 0
 5531 019c 8342     		cmp	r3, r0
 5532 019e F8D1     		bne	.L867
 5533              	.LBE236:
 5534              	.LBE243:
 5535              		.loc 1 1558 0
 5536 01a0 A169     		ldr	r1, [r4, #24]
 5537              	.LVL872:
 5538              	.LBB244:
 5539              	.LBB245:
 5540              		.loc 1 541 0
 5541 01a2 0878     		ldrb	r0, [r1, #0]	@ zero_extendqisi2
 5542 01a4 2870     		strb	r0, [r5, #0]
 5543              	.LVL873:
 5544 01a6 4A78     		ldrb	r2, [r1, #1]	@ zero_extendqisi2
 5545 01a8 6A70     		strb	r2, [r5, #1]
 5546              	.LVL874:
 5547 01aa 8B78     		ldrb	r3, [r1, #2]	@ zero_extendqisi2
 5548              	.LVL875:
 5549 01ac AB70     		strb	r3, [r5, #2]
 5550              	.LVL876:
 5551 01ae C878     		ldrb	r0, [r1, #3]	@ zero_extendqisi2
 5552 01b0 E870     		strb	r0, [r5, #3]
 5553              	.LVL877:
 5554 01b2 0A79     		ldrb	r2, [r1, #4]	@ zero_extendqisi2
 5555 01b4 2A71     		strb	r2, [r5, #4]
 5556              	.LVL878:
 5557 01b6 4B79     		ldrb	r3, [r1, #5]	@ zero_extendqisi2
 5558 01b8 6B71     		strb	r3, [r5, #5]
 5559              	.LVL879:
 5560 01ba 8879     		ldrb	r0, [r1, #6]	@ zero_extendqisi2
 5561 01bc A871     		strb	r0, [r5, #6]
 5562              	.LVL880:
 5563 01be CA79     		ldrb	r2, [r1, #7]	@ zero_extendqisi2
 5564 01c0 EA71     		strb	r2, [r5, #7]
 5565              	.LVL881:
 5566 01c2 0B7A     		ldrb	r3, [r1, #8]	@ zero_extendqisi2
 5567 01c4 2B72     		strb	r3, [r5, #8]
 5568              	.LVL882:
ARM GAS  C:\Users\Matuesz\AppData\Local\Temp\ccSJWVN7.s 			page 99


 5569 01c6 487A     		ldrb	r0, [r1, #9]	@ zero_extendqisi2
 5570 01c8 6872     		strb	r0, [r5, #9]
 5571              	.LVL883:
 5572 01ca 897A     		ldrb	r1, [r1, #10]	@ zero_extendqisi2
 5573              	.LVL884:
 5574 01cc A972     		strb	r1, [r5, #10]
 5575              	.LVL885:
 5576              	.LBE245:
 5577              	.LBE244:
 5578              		.loc 1 1560 0
 5579 01ce A269     		ldr	r2, [r4, #24]
 5580 01d0 D37A     		ldrb	r3, [r2, #11]	@ zero_extendqisi2
 5581 01d2 03F01800 		and	r0, r3, #24
 5582 01d6 2873     		strb	r0, [r5, #12]
 5583              		.loc 1 1562 0
 5584 01d8 2168     		ldr	r1, [r4, #0]
 5585 01da 0122     		movs	r2, #1
 5586 01dc 0A71     		strb	r2, [r1, #4]
 5587 01de 94E7     		b	.L881
 5588              	.LVL886:
 5589              	.L916:
 5590              		.loc 1 1502 0 discriminator 1
 5591 01e0 3188     		ldrh	r1, [r6, #0]
 5592 01e2 0029     		cmp	r1, #0
 5593 01e4 A0D0     		beq	.L872
 5594              		.loc 1 1502 0 is_stmt 0
 5595 01e6 0020     		movs	r0, #0
 5596              	.LVL887:
 5597              	.L820:
 5598              		.loc 1 1502 0 discriminator 2
 5599 01e8 471C     		adds	r7, r0, #1
 5600 01ea B8B2     		uxth	r0, r7
 5601              	.LVL888:
 5602 01ec 36F81020 		ldrh	r2, [r6, r0, lsl #1]
 5603 01f0 002A     		cmp	r2, #0
 5604 01f2 F9D1     		bne	.L820
 5605 01f4 4EF64F46 		movw	r6, #60495
 5606              	.LVL889:
 5607 01f8 1930     		adds	r0, r0, #25
 5608 01fa C4F6C466 		movt	r6, 20164
 5609 01fe 86FB0017 		smull	r1, r7, r6, r0
 5610              	.LVL890:
 5611 0202 C317     		asrs	r3, r0, #31
 5612 0204 C3EBA701 		rsb	r1, r3, r7, asr #2
 5613 0208 8EB2     		uxth	r6, r1
 5614 020a 8EE7     		b	.L818
 5615              	.LVL891:
 5616              	.L913:
 5617              		.loc 1 1496 0 is_stmt 1
 5618 020c 0727     		movs	r7, #7
 5619 020e 7CE7     		b	.L881
 5620              	.LVL892:
 5621              	.L869:
 5622              		.loc 1 1526 0
 5623 0210 2046     		mov	r0, r4
 5624              	.LVL893:
 5625 0212 4146     		mov	r1, r8
ARM GAS  C:\Users\Matuesz\AppData\Local\Temp\ccSJWVN7.s 			page 100


 5626 0214 FFF7FEFF 		bl	dir_sdi
 5627              	.LVL894:
 5628              		.loc 1 1527 0
 5629 0218 0746     		mov	r7, r0
 5630 021a 0028     		cmp	r0, #0
 5631 021c 7FF475AF 		bne	.L881
 5632              		.loc 1 1528 0
 5633 0220 A169     		ldr	r1, [r4, #24]
 5634              	.LVL895:
 5635              	.LBB246:
 5636              	.LBB247:
 5637              		.loc 1 1340 0
 5638 0222 0A78     		ldrb	r2, [r1, #0]	@ zero_extendqisi2
 5639 0224 91F801B0 		ldrb	fp, [r1, #1]	@ zero_extendqisi2
 5640 0228 91F802A0 		ldrb	sl, [r1, #2]	@ zero_extendqisi2
 5641 022c 91F80390 		ldrb	r9, [r1, #3]	@ zero_extendqisi2
 5642 0230 91F80480 		ldrb	r8, [r1, #4]	@ zero_extendqisi2
 5643              	.LVL896:
 5644 0234 91F805C0 		ldrb	ip, [r1, #5]	@ zero_extendqisi2
 5645 0238 91F806E0 		ldrb	lr, [r1, #6]	@ zero_extendqisi2
 5646 023c CF79     		ldrb	r7, [r1, #7]	@ zero_extendqisi2
 5647 023e 0E7A     		ldrb	r6, [r1, #8]	@ zero_extendqisi2
 5648              	.LVL897:
 5649 0240 487A     		ldrb	r0, [r1, #9]	@ zero_extendqisi2
 5650              	.LVL898:
 5651 0242 897A     		ldrb	r1, [r1, #10]	@ zero_extendqisi2
 5652              	.LVL899:
 5653 0244 D301     		lsls	r3, r2, #7
 5654 0246 43EA5202 		orr	r2, r3, r2, lsr #1
 5655 024a 02EB0B03 		add	r3, r2, fp
 5656 024e DBB2     		uxtb	r3, r3
 5657              	.LVL900:
 5658 0250 DA01     		lsls	r2, r3, #7
 5659 0252 42EA5303 		orr	r3, r2, r3, lsr #1
 5660              	.LVL901:
 5661 0256 5AFA83F2 		uxtab	r2, sl, r3
 5662 025a D3B2     		uxtb	r3, r2
 5663              	.LVL902:
 5664 025c DA01     		lsls	r2, r3, #7
 5665              	.LVL903:
 5666 025e 42EA5303 		orr	r3, r2, r3, lsr #1
 5667              	.LVL904:
 5668 0262 59FA83F2 		uxtab	r2, r9, r3
 5669 0266 D3B2     		uxtb	r3, r2
 5670              	.LVL905:
 5671 0268 DA01     		lsls	r2, r3, #7
 5672              	.LVL906:
 5673 026a 42EA5303 		orr	r3, r2, r3, lsr #1
 5674              	.LVL907:
 5675 026e 58FA83F2 		uxtab	r2, r8, r3
 5676 0272 D3B2     		uxtb	r3, r2
 5677              	.LVL908:
 5678 0274 DA01     		lsls	r2, r3, #7
 5679              	.LVL909:
 5680 0276 42EA5303 		orr	r3, r2, r3, lsr #1
 5681              	.LVL910:
 5682 027a 5CFA83F2 		uxtab	r2, ip, r3
ARM GAS  C:\Users\Matuesz\AppData\Local\Temp\ccSJWVN7.s 			page 101


 5683 027e D3B2     		uxtb	r3, r2
 5684              	.LVL911:
 5685 0280 DA01     		lsls	r2, r3, #7
 5686              	.LVL912:
 5687 0282 42EA5303 		orr	r3, r2, r3, lsr #1
 5688              	.LVL913:
 5689 0286 5EFA83F2 		uxtab	r2, lr, r3
 5690 028a D3B2     		uxtb	r3, r2
 5691              	.LVL914:
 5692 028c DA01     		lsls	r2, r3, #7
 5693              	.LVL915:
 5694 028e 42EA5303 		orr	r3, r2, r3, lsr #1
 5695              	.LVL916:
 5696 0292 57FA83F7 		uxtab	r7, r7, r3
 5697 0296 FBB2     		uxtb	r3, r7
 5698              	.LVL917:
 5699 0298 DA01     		lsls	r2, r3, #7
 5700 029a 42EA5307 		orr	r7, r2, r3, lsr #1
 5701              	.LVL918:
 5702 029e 56FA87F6 		uxtab	r6, r6, r7
 5703 02a2 F3B2     		uxtb	r3, r6
 5704              	.LVL919:
 5705 02a4 DA01     		lsls	r2, r3, #7
 5706 02a6 42EA5307 		orr	r7, r2, r3, lsr #1
 5707 02aa 50FA87F0 		uxtab	r0, r0, r7
 5708 02ae C6B2     		uxtb	r6, r0
 5709              	.LVL920:
 5710 02b0 F301     		lsls	r3, r6, #7
 5711 02b2 43EA5602 		orr	r2, r3, r6, lsr #1
 5712 02b6 51FA82FB 		uxtab	fp, r1, r2
 5713              	.LBE247:
 5714              	.LBE246:
 5715              		.loc 1 1529 0
 5716 02ba 013D     		subs	r5, r5, #1
 5717              	.LVL921:
 5718              	.LBB249:
 5719              	.LBB248:
 5720              		.loc 1 1340 0
 5721 02bc 5FFA8BF8 		uxtb	r8, fp
 5722              	.LVL922:
 5723              	.LBE248:
 5724              	.LBE249:
 5725              		.loc 1 1529 0
 5726 02c0 1FFA85FB 		uxth	fp, r5
 5727              	.LVL923:
 5728              	.LBB250:
 5729              	.LBB239:
 5730              		.loc 1 1261 0
 5731 02c4 0F26     		movs	r6, #15
 5732              		.loc 1 1269 0
 5733 02c6 4FF0FF09 		mov	r9, #255
 5734 02ca 4FF6FF7A 		movw	sl, #65535
 5735              	.LBE239:
 5736              	.LBE250:
 5737              		.loc 1 1534 0
 5738 02ce 0125     		movs	r5, #1
 5739              	.LVL924:
ARM GAS  C:\Users\Matuesz\AppData\Local\Temp\ccSJWVN7.s 			page 102


 5740 02d0 5F46     		mov	r7, fp
 5741 02d2 8BE0     		b	.L865
 5742              	.LVL925:
 5743              	.L828:
 5744              	.LBB251:
 5745              	.LBB240:
 5746              		.loc 1 1269 0
 5747 02d4 83F80390 		strb	r9, [r3, #3]
 5748 02d8 83F80490 		strb	r9, [r3, #4]
 5749 02dc 4FF6FF70 		movw	r0, #65535
 5750              	.LVL926:
 5751              	.L832:
 5752              		.loc 1 1268 0
 5753 02e0 5045     		cmp	r0, sl
 5754 02e2 00F0B680 		beq	.L831
 5755 02e6 31F81200 		ldrh	r0, [r1, r2, lsl #1]
 5756              	.LVL927:
 5757              		.loc 1 1269 0
 5758 02ea 4FEA102C 		lsr	ip, r0, #8
 5759              		.loc 1 1268 0
 5760 02ee 0132     		adds	r2, r2, #1
 5761              	.LVL928:
 5762              		.loc 1 1269 0
 5763 02f0 5871     		strb	r0, [r3, #5]
 5764 02f2 83F806C0 		strb	ip, [r3, #6]
 5765              		.loc 1 1270 0
 5766 02f6 0028     		cmp	r0, #0
 5767 02f8 40F0B180 		bne	.L835
 5768              	.LVL929:
 5769              	.L834:
 5770              		.loc 1 1269 0
 5771 02fc 83F80790 		strb	r9, [r3, #7]
 5772 0300 83F80890 		strb	r9, [r3, #8]
 5773 0304 4FF6FF70 		movw	r0, #65535
 5774              	.LVL930:
 5775              	.L838:
 5776              		.loc 1 1268 0
 5777 0308 5045     		cmp	r0, sl
 5778 030a 00F0B680 		beq	.L837
 5779 030e 31F81200 		ldrh	r0, [r1, r2, lsl #1]
 5780              	.LVL931:
 5781              		.loc 1 1269 0
 5782 0312 4FEA102C 		lsr	ip, r0, #8
 5783              		.loc 1 1268 0
 5784 0316 0132     		adds	r2, r2, #1
 5785              	.LVL932:
 5786              		.loc 1 1269 0
 5787 0318 5872     		strb	r0, [r3, #9]
 5788 031a 83F80AC0 		strb	ip, [r3, #10]
 5789              		.loc 1 1270 0
 5790 031e 0028     		cmp	r0, #0
 5791 0320 40F0B180 		bne	.L841
 5792              	.LVL933:
 5793              	.L840:
 5794              		.loc 1 1269 0
 5795 0324 83F80E90 		strb	r9, [r3, #14]
 5796 0328 83F80F90 		strb	r9, [r3, #15]
ARM GAS  C:\Users\Matuesz\AppData\Local\Temp\ccSJWVN7.s 			page 103


 5797 032c 4FF6FF70 		movw	r0, #65535
 5798              	.LVL934:
 5799              	.L844:
 5800              		.loc 1 1268 0
 5801 0330 5045     		cmp	r0, sl
 5802 0332 00F0B680 		beq	.L843
 5803 0336 31F81200 		ldrh	r0, [r1, r2, lsl #1]
 5804              	.LVL935:
 5805              		.loc 1 1269 0
 5806 033a 4FEA102C 		lsr	ip, r0, #8
 5807              		.loc 1 1268 0
 5808 033e 0132     		adds	r2, r2, #1
 5809              	.LVL936:
 5810              		.loc 1 1269 0
 5811 0340 1874     		strb	r0, [r3, #16]
 5812 0342 83F811C0 		strb	ip, [r3, #17]
 5813              		.loc 1 1270 0
 5814 0346 0028     		cmp	r0, #0
 5815 0348 40F0B180 		bne	.L847
 5816              	.LVL937:
 5817              	.L846:
 5818              		.loc 1 1269 0
 5819 034c 83F81290 		strb	r9, [r3, #18]
 5820 0350 83F81390 		strb	r9, [r3, #19]
 5821 0354 4FF6FF70 		movw	r0, #65535
 5822              	.LVL938:
 5823              	.L850:
 5824              		.loc 1 1268 0
 5825 0358 5045     		cmp	r0, sl
 5826 035a 00F0B680 		beq	.L849
 5827 035e 31F81200 		ldrh	r0, [r1, r2, lsl #1]
 5828              	.LVL939:
 5829              		.loc 1 1269 0
 5830 0362 4FEA102C 		lsr	ip, r0, #8
 5831              		.loc 1 1268 0
 5832 0366 0132     		adds	r2, r2, #1
 5833              	.LVL940:
 5834              		.loc 1 1269 0
 5835 0368 1875     		strb	r0, [r3, #20]
 5836 036a 83F815C0 		strb	ip, [r3, #21]
 5837              		.loc 1 1270 0
 5838 036e 0028     		cmp	r0, #0
 5839 0370 40F0B180 		bne	.L853
 5840              	.LVL941:
 5841              	.L852:
 5842              		.loc 1 1269 0
 5843 0374 83F81690 		strb	r9, [r3, #22]
 5844 0378 83F81790 		strb	r9, [r3, #23]
 5845 037c 4FF6FF70 		movw	r0, #65535
 5846              	.LVL942:
 5847              	.L856:
 5848              		.loc 1 1268 0
 5849 0380 5045     		cmp	r0, sl
 5850 0382 00F0B680 		beq	.L855
 5851 0386 31F81200 		ldrh	r0, [r1, r2, lsl #1]
 5852              	.LVL943:
 5853              		.loc 1 1269 0
ARM GAS  C:\Users\Matuesz\AppData\Local\Temp\ccSJWVN7.s 			page 104


 5854 038a 4FEA102C 		lsr	ip, r0, #8
 5855              		.loc 1 1268 0
 5856 038e 0132     		adds	r2, r2, #1
 5857              	.LVL944:
 5858              		.loc 1 1269 0
 5859 0390 1876     		strb	r0, [r3, #24]
 5860 0392 83F819C0 		strb	ip, [r3, #25]
 5861              		.loc 1 1270 0
 5862 0396 0028     		cmp	r0, #0
 5863 0398 40F0B180 		bne	.L859
 5864              	.LVL945:
 5865              	.L858:
 5866              		.loc 1 1269 0
 5867 039c 83F81C90 		strb	r9, [r3, #28]
 5868 03a0 83F81D90 		strb	r9, [r3, #29]
 5869 03a4 4FF6FF70 		movw	r0, #65535
 5870              	.LVL946:
 5871              	.L862:
 5872              		.loc 1 1268 0
 5873 03a8 5045     		cmp	r0, sl
 5874 03aa 00F0B680 		beq	.L861
 5875 03ae 31F81200 		ldrh	r0, [r1, r2, lsl #1]
 5876              	.LVL947:
 5877              		.loc 1 1269 0
 5878 03b2 4FEA102C 		lsr	ip, r0, #8
 5879              		.loc 1 1268 0
 5880 03b6 0132     		adds	r2, r2, #1
 5881              	.LVL948:
 5882              		.loc 1 1269 0
 5883 03b8 9877     		strb	r0, [r3, #30]
 5884 03ba 83F81FC0 		strb	ip, [r3, #31]
 5885              		.loc 1 1270 0
 5886 03be 0028     		cmp	r0, #0
 5887 03c0 40F0B180 		bne	.L870
 5888              	.LVL949:
 5889              	.L863:
 5890              		.loc 1 1272 0
 5891 03c4 47F0400E 		orr	lr, r7, #64
 5892 03c8 5FFA8EFE 		uxtb	lr, lr
 5893              	.LVL950:
 5894              	.L864:
 5895              		.loc 1 1273 0
 5896 03cc 83F800E0 		strb	lr, [r3, #0]
 5897              	.LBE240:
 5898              	.LBE251:
 5899              		.loc 1 1534 0
 5900 03d0 2368     		ldr	r3, [r4, #0]
 5901              	.LVL951:
 5902              		.loc 1 1535 0
 5903 03d2 2046     		mov	r0, r4
 5904              		.loc 1 1534 0
 5905 03d4 1D71     		strb	r5, [r3, #4]
 5906              		.loc 1 1535 0
 5907 03d6 0021     		movs	r1, #0
 5908 03d8 FFF7FEFF 		bl	dir_next
 5909              	.LVL952:
 5910              		.loc 1 1536 0
ARM GAS  C:\Users\Matuesz\AppData\Local\Temp\ccSJWVN7.s 			page 105


 5911 03dc 0028     		cmp	r0, #0
 5912 03de 40F0AB80 		bne	.L909
 5913              		.loc 1 1536 0 is_stmt 0 discriminator 1
 5914 03e2 013F     		subs	r7, r7, #1
 5915              	.LVL953:
 5916 03e4 BFB2     		uxth	r7, r7
 5917              	.LVL954:
 5918 03e6 002F     		cmp	r7, #0
 5919 03e8 3FF4C7AE 		beq	.L866
 5920              	.LVL955:
 5921              	.L865:
 5922              		.loc 1 1531 0 is_stmt 1
 5923 03ec 2068     		ldr	r0, [r4, #0]
 5924 03ee 2169     		ldr	r1, [r4, #16]
 5925 03f0 FFF7FEFF 		bl	move_window
 5926              	.LVL956:
 5927 03f4 0246     		mov	r2, r0
 5928              	.LVL957:
 5929              		.loc 1 1532 0
 5930 03f6 002A     		cmp	r2, #0
 5931 03f8 40F09E80 		bne	.L909
 5932              		.loc 1 1533 0
 5933 03fc 5FFA87FE 		uxtb	lr, r7
 5934              	.LBB252:
 5935              	.LBB241:
 5936              		.loc 1 1265 0
 5937 0400 0EF1FF30 		add	r0, lr, #-1
 5938              	.LVL958:
 5939              	.LBE241:
 5940              	.LBE252:
 5941              		.loc 1 1533 0
 5942 0404 6369     		ldr	r3, [r4, #20]
 5943 0406 E169     		ldr	r1, [r4, #28]
 5944              	.LVL959:
 5945              	.LBB253:
 5946              	.LBB242:
 5947              		.loc 1 1262 0
 5948 0408 1A73     		strb	r2, [r3, #12]
 5949              		.loc 1 1265 0
 5950 040a 00EB400C 		add	ip, r0, r0, lsl #1
 5951 040e 00EB8C0C 		add	ip, r0, ip, lsl #2
 5952              	.LVL960:
 5953              		.loc 1 1263 0
 5954 0412 9A76     		strb	r2, [r3, #26]
 5955 0414 DA76     		strb	r2, [r3, #27]
 5956              		.loc 1 1260 0
 5957 0416 83F80D80 		strb	r8, [r3, #13]
 5958              		.loc 1 1261 0
 5959 041a DE72     		strb	r6, [r3, #11]
 5960              		.loc 1 1268 0
 5961 041c 31F81C00 		ldrh	r0, [r1, ip, lsl #1]
 5962              	.LVL961:
 5963              		.loc 1 1269 0
 5964 0420 4FEA102B 		lsr	fp, r0, #8
 5965              		.loc 1 1268 0
 5966 0424 0CF10102 		add	r2, ip, #1
 5967              	.LVL962:
ARM GAS  C:\Users\Matuesz\AppData\Local\Temp\ccSJWVN7.s 			page 106


 5968              		.loc 1 1269 0
 5969 0428 5870     		strb	r0, [r3, #1]
 5970 042a 83F802B0 		strb	fp, [r3, #2]
 5971              		.loc 1 1270 0
 5972 042e 0028     		cmp	r0, #0
 5973 0430 3FF450AF 		beq	.L828
 5974              	.LVL963:
 5975              		.loc 1 1268 0
 5976 0434 5045     		cmp	r0, sl
 5977 0436 3FF44DAF 		beq	.L828
 5978 043a 31F81200 		ldrh	r0, [r1, r2, lsl #1]
 5979              	.LVL964:
 5980              		.loc 1 1269 0
 5981 043e 4FEA102B 		lsr	fp, r0, #8
 5982              		.loc 1 1268 0
 5983 0442 0CF10202 		add	r2, ip, #2
 5984              	.LVL965:
 5985              		.loc 1 1269 0
 5986 0446 D870     		strb	r0, [r3, #3]
 5987 0448 83F804B0 		strb	fp, [r3, #4]
 5988              		.loc 1 1270 0
 5989 044c 0028     		cmp	r0, #0
 5990 044e 7FF447AF 		bne	.L832
 5991              	.LVL966:
 5992              	.L831:
 5993              		.loc 1 1269 0
 5994 0452 83F80590 		strb	r9, [r3, #5]
 5995 0456 83F80690 		strb	r9, [r3, #6]
 5996 045a 4FF6FF70 		movw	r0, #65535
 5997              	.LVL967:
 5998              	.L835:
 5999              		.loc 1 1268 0
 6000 045e 5045     		cmp	r0, sl
 6001 0460 3FF44CAF 		beq	.L834
 6002 0464 31F81200 		ldrh	r0, [r1, r2, lsl #1]
 6003              	.LVL968:
 6004              		.loc 1 1269 0
 6005 0468 4FEA102C 		lsr	ip, r0, #8
 6006              		.loc 1 1268 0
 6007 046c 0132     		adds	r2, r2, #1
 6008              	.LVL969:
 6009              		.loc 1 1269 0
 6010 046e D871     		strb	r0, [r3, #7]
 6011 0470 83F808C0 		strb	ip, [r3, #8]
 6012              		.loc 1 1270 0
 6013 0474 0028     		cmp	r0, #0
 6014 0476 7FF447AF 		bne	.L838
 6015              	.LVL970:
 6016              	.L837:
 6017              		.loc 1 1269 0
 6018 047a 83F80990 		strb	r9, [r3, #9]
 6019 047e 83F80A90 		strb	r9, [r3, #10]
 6020 0482 4FF6FF70 		movw	r0, #65535
 6021              	.LVL971:
 6022              	.L841:
 6023              		.loc 1 1268 0
 6024 0486 5045     		cmp	r0, sl
ARM GAS  C:\Users\Matuesz\AppData\Local\Temp\ccSJWVN7.s 			page 107


 6025 0488 3FF44CAF 		beq	.L840
 6026 048c 31F81200 		ldrh	r0, [r1, r2, lsl #1]
 6027              	.LVL972:
 6028              		.loc 1 1269 0
 6029 0490 4FEA102C 		lsr	ip, r0, #8
 6030              		.loc 1 1268 0
 6031 0494 0132     		adds	r2, r2, #1
 6032              	.LVL973:
 6033              		.loc 1 1269 0
 6034 0496 9873     		strb	r0, [r3, #14]
 6035 0498 83F80FC0 		strb	ip, [r3, #15]
 6036              		.loc 1 1270 0
 6037 049c 0028     		cmp	r0, #0
 6038 049e 7FF447AF 		bne	.L844
 6039              	.LVL974:
 6040              	.L843:
 6041              		.loc 1 1269 0
 6042 04a2 83F81090 		strb	r9, [r3, #16]
 6043 04a6 83F81190 		strb	r9, [r3, #17]
 6044 04aa 4FF6FF70 		movw	r0, #65535
 6045              	.LVL975:
 6046              	.L847:
 6047              		.loc 1 1268 0
 6048 04ae 5045     		cmp	r0, sl
 6049 04b0 3FF44CAF 		beq	.L846
 6050 04b4 31F81200 		ldrh	r0, [r1, r2, lsl #1]
 6051              	.LVL976:
 6052              		.loc 1 1269 0
 6053 04b8 4FEA102C 		lsr	ip, r0, #8
 6054              		.loc 1 1268 0
 6055 04bc 0132     		adds	r2, r2, #1
 6056              	.LVL977:
 6057              		.loc 1 1269 0
 6058 04be 9874     		strb	r0, [r3, #18]
 6059 04c0 83F813C0 		strb	ip, [r3, #19]
 6060              		.loc 1 1270 0
 6061 04c4 0028     		cmp	r0, #0
 6062 04c6 7FF447AF 		bne	.L850
 6063              	.LVL978:
 6064              	.L849:
 6065              		.loc 1 1269 0
 6066 04ca 83F81490 		strb	r9, [r3, #20]
 6067 04ce 83F81590 		strb	r9, [r3, #21]
 6068 04d2 4FF6FF70 		movw	r0, #65535
 6069              	.LVL979:
 6070              	.L853:
 6071              		.loc 1 1268 0
 6072 04d6 5045     		cmp	r0, sl
 6073 04d8 3FF44CAF 		beq	.L852
 6074 04dc 31F81200 		ldrh	r0, [r1, r2, lsl #1]
 6075              	.LVL980:
 6076              		.loc 1 1269 0
 6077 04e0 4FEA102C 		lsr	ip, r0, #8
 6078              		.loc 1 1268 0
 6079 04e4 0132     		adds	r2, r2, #1
 6080              	.LVL981:
 6081              		.loc 1 1269 0
ARM GAS  C:\Users\Matuesz\AppData\Local\Temp\ccSJWVN7.s 			page 108


 6082 04e6 9875     		strb	r0, [r3, #22]
 6083 04e8 83F817C0 		strb	ip, [r3, #23]
 6084              		.loc 1 1270 0
 6085 04ec 0028     		cmp	r0, #0
 6086 04ee 7FF447AF 		bne	.L856
 6087              	.LVL982:
 6088              	.L855:
 6089              		.loc 1 1269 0
 6090 04f2 83F81890 		strb	r9, [r3, #24]
 6091 04f6 83F81990 		strb	r9, [r3, #25]
 6092 04fa 4FF6FF70 		movw	r0, #65535
 6093              	.LVL983:
 6094              	.L859:
 6095              		.loc 1 1268 0
 6096 04fe 5045     		cmp	r0, sl
 6097 0500 3FF44CAF 		beq	.L858
 6098 0504 31F81200 		ldrh	r0, [r1, r2, lsl #1]
 6099              	.LVL984:
 6100              		.loc 1 1269 0
 6101 0508 4FEA102C 		lsr	ip, r0, #8
 6102              		.loc 1 1268 0
 6103 050c 0132     		adds	r2, r2, #1
 6104              	.LVL985:
 6105              		.loc 1 1269 0
 6106 050e 1877     		strb	r0, [r3, #28]
 6107 0510 83F81DC0 		strb	ip, [r3, #29]
 6108              		.loc 1 1270 0
 6109 0514 0028     		cmp	r0, #0
 6110 0516 7FF447AF 		bne	.L862
 6111              	.LVL986:
 6112              	.L861:
 6113              		.loc 1 1269 0
 6114 051a 83F81E90 		strb	r9, [r3, #30]
 6115 051e 83F81F90 		strb	r9, [r3, #31]
 6116 0522 4FF6FF70 		movw	r0, #65535
 6117              	.LVL987:
 6118              	.L870:
 6119              		.loc 1 1272 0
 6120 0526 5045     		cmp	r0, sl
 6121 0528 3FF44CAF 		beq	.L863
 6122 052c 31F81210 		ldrh	r1, [r1, r2, lsl #1]
 6123              	.LVL988:
 6124 0530 0029     		cmp	r1, #0
 6125 0532 3FF447AF 		beq	.L863
 6126 0536 49E7     		b	.L864
 6127              	.LVL989:
 6128              	.L909:
 6129 0538 0746     		mov	r7, r0
 6130              	.LVL990:
 6131 053a E6E5     		b	.L881
 6132              	.LBE242:
 6133              	.LBE253:
 6134              		.cfi_endproc
 6135              	.LFE29:
 6136              		.size	dir_register, .-dir_register
 6137 053c AFF30080 		.section	.text.f_mount,"ax",%progbits
 6138              		.align	2
ARM GAS  C:\Users\Matuesz\AppData\Local\Temp\ccSJWVN7.s 			page 109


 6139              		.p2align 4,,15
 6140              		.global	f_mount
 6141              		.thumb
 6142              		.thumb_func
 6143              		.type	f_mount, %function
 6144              	f_mount:
 6145              	.LFB37:
 6146              		.loc 1 2207 0
 6147              		.cfi_startproc
 6148              		@ args = 0, pretend = 0, frame = 0
 6149              		@ frame_needed = 0, uses_anonymous_args = 0
 6150              	.LVL991:
 6151 0000 F8B5     		push	{r3, r4, r5, r6, r7, lr}
 6152              	.LCFI24:
 6153              		.cfi_def_cfa_offset 24
 6154              		.cfi_offset 3, -24
 6155              		.cfi_offset 4, -20
 6156              		.cfi_offset 5, -16
 6157              		.cfi_offset 6, -12
 6158              		.cfi_offset 7, -8
 6159              		.cfi_offset 14, -4
 6160              		.loc 1 2211 0
 6161 0002 0446     		mov	r4, r0
 6162              		.loc 1 2207 0
 6163 0004 0D46     		mov	r5, r1
 6164              		.loc 1 2211 0
 6165 0006 08B1     		cbz	r0, .L931
 6166              		.loc 1 2212 0
 6167 0008 0B20     		movs	r0, #11
 6168              	.LVL992:
 6169              		.loc 1 2234 0
 6170 000a F8BD     		pop	{r3, r4, r5, r6, r7, pc}
 6171              	.LVL993:
 6172              	.L931:
 6173              		.loc 1 2213 0
 6174 000c 0A4F     		ldr	r7, .L932
 6175 000e 3E68     		ldr	r6, [r7, #0]
 6176              	.LVL994:
 6177              		.loc 1 2215 0
 6178 0010 36B1     		cbz	r6, .L919
 6179              		.loc 1 2220 0
 6180 0012 F068     		ldr	r0, [r6, #12]
 6181              	.LVL995:
 6182 0014 FFF7FEFF 		bl	ff_del_syncobj
 6183              	.LVL996:
 6184 0018 08B9     		cbnz	r0, .L920
 6185              	.L922:
 6186 001a 0220     		movs	r0, #2
 6187 001c F8BD     		pop	{r3, r4, r5, r6, r7, pc}
 6188              	.L920:
 6189              		.loc 1 2222 0
 6190 001e 3470     		strb	r4, [r6, #0]
 6191              	.L919:
 6192              		.loc 1 2225 0
 6193 0020 3DB1     		cbz	r5, .L923
 6194              		.loc 1 2226 0
 6195 0022 2946     		mov	r1, r5
ARM GAS  C:\Users\Matuesz\AppData\Local\Temp\ccSJWVN7.s 			page 110


 6196 0024 0020     		movs	r0, #0
 6197 0026 01F80C0B 		strb	r0, [r1], #12
 6198              		.loc 1 2228 0
 6199 002a FFF7FEFF 		bl	ff_cre_syncobj
 6200              	.LVL997:
 6201 002e 0028     		cmp	r0, #0
 6202 0030 F3D0     		beq	.L922
 6203              	.L923:
 6204              		.loc 1 2231 0
 6205 0032 3D60     		str	r5, [r7, #0]
 6206              		.loc 1 2233 0
 6207 0034 0020     		movs	r0, #0
 6208 0036 F8BD     		pop	{r3, r4, r5, r6, r7, pc}
 6209              	.L933:
 6210              		.align	2
 6211              	.L932:
 6212 0038 00000000 		.word	.LANCHOR0
 6213              		.cfi_endproc
 6214              	.LFE37:
 6215              		.size	f_mount, .-f_mount
 6216 003c AFF30080 		.section	.text.f_open,"ax",%progbits
 6217              		.align	2
 6218              		.p2align 4,,15
 6219              		.global	f_open
 6220              		.thumb
 6221              		.thumb_func
 6222              		.type	f_open, %function
 6223              	f_open:
 6224              	.LFB38:
 6225              		.loc 1 2248 0
 6226              		.cfi_startproc
 6227              		@ args = 0, pretend = 0, frame = 56
 6228              		@ frame_needed = 0, uses_anonymous_args = 0
 6229              	.LVL998:
 6230 0000 2DE9F047 		push	{r4, r5, r6, r7, r8, r9, sl, lr}
 6231              	.LCFI25:
 6232              		.cfi_def_cfa_offset 32
 6233              		.cfi_offset 4, -32
 6234              		.cfi_offset 5, -28
 6235              		.cfi_offset 6, -24
 6236              		.cfi_offset 7, -20
 6237              		.cfi_offset 8, -16
 6238              		.cfi_offset 9, -12
 6239              		.cfi_offset 10, -8
 6240              		.cfi_offset 14, -4
 6241 0004 8EB0     		sub	sp, sp, #56
 6242              	.LCFI26:
 6243              		.cfi_def_cfa_offset 88
 6244              		.loc 1 2248 0
 6245 0006 0EAB     		add	r3, sp, #56
 6246 0008 0646     		mov	r6, r0
 6247 000a 43F8341D 		str	r1, [r3, #-52]!
 6248              		.loc 1 2255 0
 6249 000e 0020     		movs	r0, #0
 6250              	.LVL999:
 6251              		.loc 1 2248 0
 6252 0010 9046     		mov	r8, r2
ARM GAS  C:\Users\Matuesz\AppData\Local\Temp\ccSJWVN7.s 			page 111


 6253              		.loc 1 2259 0
 6254 0012 05A9     		add	r1, sp, #20
 6255              	.LVL1000:
 6256 0014 02F01E02 		and	r2, r2, #30
 6257              	.LVL1001:
 6258              		.loc 1 2255 0
 6259 0018 3060     		str	r0, [r6, #0]
 6260              		.loc 1 2259 0
 6261 001a 1846     		mov	r0, r3
 6262 001c FFF7FEFF 		bl	chk_mounted
 6263              	.LVL1002:
 6264 0020 0446     		mov	r4, r0
 6265              		.loc 1 2264 0
 6266 0022 4FF40070 		mov	r0, #512
 6267 0026 FFF7FEFF 		bl	ff_memalloc
 6268              	.LVL1003:
 6269              		.loc 1 2258 0
 6270 002a 08F01F09 		and	r9, r8, #31
 6271              	.LVL1004:
 6272              		.loc 1 2264 0
 6273 002e 0746     		mov	r7, r0
 6274 0030 0028     		cmp	r0, #0
 6275 0032 78D0     		beq	.L968
 6276              		.loc 1 2264 0 is_stmt 0 discriminator 2
 6277 0034 02A9     		add	r1, sp, #8
 6278 0036 0C90     		str	r0, [sp, #48]
 6279 0038 0B91     		str	r1, [sp, #44]
 6280              		.loc 1 2265 0 is_stmt 1 discriminator 2
 6281 003a 6CB1     		cbz	r4, .L969
 6282              	.LVL1005:
 6283              	.L937:
 6284              		.loc 1 2279 0
 6285 003c 18F01C0F 		tst	r8, #28
 6286 0040 22D1     		bne	.L950
 6287              	.LVL1006:
 6288              	.L945:
 6289              		.loc 1 2349 0
 6290 0042 3846     		mov	r0, r7
 6291 0044 FFF7FEFF 		bl	ff_memfree
 6292              	.LVL1007:
 6293 0048 0598     		ldr	r0, [sp, #20]
 6294              	.LVL1008:
 6295              	.L952:
 6296              		.loc 1 2363 0
 6297 004a 2146     		mov	r1, r4
 6298 004c FFF7FEFF 		bl	unlock_fs
 6299              	.LVL1009:
 6300              	.L964:
 6301              		.loc 1 2364 0
 6302 0050 2046     		mov	r0, r4
 6303 0052 0EB0     		add	sp, sp, #56
 6304 0054 BDE8F087 		pop	{r4, r5, r6, r7, r8, r9, sl, pc}
 6305              	.LVL1010:
 6306              	.L969:
 6307              		.loc 1 2266 0
 6308 0058 05A8     		add	r0, sp, #20
 6309              	.LVL1011:
ARM GAS  C:\Users\Matuesz\AppData\Local\Temp\ccSJWVN7.s 			page 112


 6310 005a 0199     		ldr	r1, [sp, #4]
 6311 005c FFF7FEFF 		bl	follow_path
 6312              	.LVL1012:
 6313              		.loc 1 2267 0
 6314 0060 0A9D     		ldr	r5, [sp, #40]
 6315              	.LVL1013:
 6316              		.loc 1 2270 0
 6317 0062 0446     		mov	r4, r0
 6318 0064 0028     		cmp	r0, #0
 6319 0066 E9D1     		bne	.L937
 6320              		.loc 1 2271 0
 6321 0068 002D     		cmp	r5, #0
 6322 006a 62D0     		beq	.L970
 6323              	.LVL1014:
 6324              		.loc 1 2279 0
 6325 006c 18F01C0F 		tst	r8, #28
 6326 0070 1CD0     		beq	.L971
 6327              	.LBB259:
 6328              		.loc 1 2293 0
 6329 0072 E87A     		ldrb	r0, [r5, #11]	@ zero_extendqisi2
 6330 0074 10F0110F 		tst	r0, #17
 6331 0078 51D1     		bne	.L957
 6332              		.loc 1 2296 0
 6333 007a 08F00408 		and	r8, r8, #4
 6334 007e 5FFA88F1 		uxtb	r1, r8
 6335 0082 61B1     		cbz	r1, .L940
 6336              		.loc 1 2297 0
 6337 0084 0824     		movs	r4, #8
 6338              	.LVL1015:
 6339 0086 DCE7     		b	.L945
 6340              	.LVL1016:
 6341              	.L950:
 6342              		.loc 1 2283 0
 6343 0088 042C     		cmp	r4, #4
 6344 008a DAD1     		bne	.L945
 6345              		.loc 1 2287 0
 6346 008c 05A8     		add	r0, sp, #20
 6347 008e FFF7FEFF 		bl	dir_register
 6348              	.LVL1017:
 6349              		.loc 1 2289 0
 6350 0092 49F00809 		orr	r9, r9, #8
 6351              	.LVL1018:
 6352              		.loc 1 2300 0
 6353 0096 0446     		mov	r4, r0
 6354              		.loc 1 2290 0
 6355 0098 0A9D     		ldr	r5, [sp, #40]
 6356              	.LVL1019:
 6357              		.loc 1 2300 0
 6358 009a 0028     		cmp	r0, #0
 6359 009c D1D1     		bne	.L945
 6360              	.LVL1020:
 6361              	.L940:
 6362              		.loc 1 2300 0 is_stmt 0 discriminator 1
 6363 009e 09F00804 		and	r4, r9, #8
 6364 00a2 E2B2     		uxtb	r2, r4
 6365 00a4 002A     		cmp	r2, #0
 6366 00a6 46D1     		bne	.L972
ARM GAS  C:\Users\Matuesz\AppData\Local\Temp\ccSJWVN7.s 			page 113


 6367 00a8 059B     		ldr	r3, [sp, #20]
 6368              	.LVL1021:
 6369 00aa 12E0     		b	.L951
 6370              	.L971:
 6371              	.LBE259:
 6372              		.loc 1 2320 0 is_stmt 1
 6373 00ac EC7A     		ldrb	r4, [r5, #11]	@ zero_extendqisi2
 6374 00ae 04F01002 		and	r2, r4, #16
 6375 00b2 D3B2     		uxtb	r3, r2
 6376 00b4 002B     		cmp	r3, #0
 6377 00b6 34D1     		bne	.L956
 6378              		.loc 1 2323 0
 6379 00b8 08F00200 		and	r0, r8, #2
 6380 00bc C1B2     		uxtb	r1, r0
 6381 00be 09B1     		cbz	r1, .L967
 6382              		.loc 1 2323 0 is_stmt 0 discriminator 1
 6383 00c0 E307     		lsls	r3, r4, #31
 6384 00c2 2CD4     		bmi	.L957
 6385              	.L967:
 6386 00c4 08F00804 		and	r4, r8, #8
 6387 00c8 E2B2     		uxtb	r2, r4
 6388 00ca 059B     		ldr	r3, [sp, #20]
 6389              		.loc 1 2329 0 is_stmt 1
 6390 00cc 0AB1     		cbz	r2, .L951
 6391              	.LVL1022:
 6392              	.L943:
 6393              		.loc 1 2330 0
 6394 00ce 49F02009 		orr	r9, r9, #32
 6395              	.LVL1023:
 6396              	.L951:
 6397              		.loc 1 2331 0
 6398 00d2 186B     		ldr	r0, [r3, #48]
 6399              		.loc 1 2332 0
 6400 00d4 3562     		str	r5, [r6, #32]
 6401              		.loc 1 2331 0
 6402 00d6 F061     		str	r0, [r6, #28]
 6403              		.loc 1 2349 0
 6404 00d8 3846     		mov	r0, r7
 6405 00da FFF7FEFF 		bl	ff_memfree
 6406              	.LVL1024:
 6407              		.loc 1 2352 0
 6408 00de 86F80690 		strb	r9, [r6, #6]
 6409              		.loc 1 2353 0
 6410 00e2 6F7D     		ldrb	r7, [r5, #21]	@ zero_extendqisi2
 6411              	.LVL1025:
 6412 00e4 2C7D     		ldrb	r4, [r5, #20]	@ zero_extendqisi2
 6413 00e6 EB7E     		ldrb	r3, [r5, #27]	@ zero_extendqisi2
 6414 00e8 A97E     		ldrb	r1, [r5, #26]	@ zero_extendqisi2
 6415              		.loc 1 2360 0
 6416 00ea 0598     		ldr	r0, [sp, #20]
 6417              		.loc 1 2353 0
 6418 00ec 44EA0722 		orr	r2, r4, r7, lsl #8
 6419 00f0 41EA0327 		orr	r7, r1, r3, lsl #8
 6420 00f4 47EA0244 		orr	r4, r7, r2, lsl #16
 6421 00f8 3461     		str	r4, [r6, #16]
 6422              		.loc 1 2354 0
 6423 00fa AA7F     		ldrb	r2, [r5, #30]	@ zero_extendqisi2
ARM GAS  C:\Users\Matuesz\AppData\Local\Temp\ccSJWVN7.s 			page 114


 6424 00fc EF7F     		ldrb	r7, [r5, #31]	@ zero_extendqisi2
 6425 00fe 2C7F     		ldrb	r4, [r5, #28]	@ zero_extendqisi2
 6426 0100 697F     		ldrb	r1, [r5, #29]	@ zero_extendqisi2
 6427              		.loc 1 2360 0
 6428 0102 C388     		ldrh	r3, [r0, #6]
 6429 0104 3060     		str	r0, [r6, #0]
 6430              		.loc 1 2354 0
 6431 0106 1204     		lsls	r2, r2, #16
 6432 0108 42EA0762 		orr	r2, r2, r7, lsl #24
 6433 010c 2243     		orrs	r2, r2, r4
 6434 010e 42EA0121 		orr	r1, r2, r1, lsl #8
 6435              		.loc 1 2355 0
 6436 0112 0024     		movs	r4, #0
 6437              		.loc 1 2354 0
 6438 0114 F160     		str	r1, [r6, #12]
 6439              		.loc 1 2355 0
 6440 0116 B460     		str	r4, [r6, #8]
 6441              		.loc 1 2356 0
 6442 0118 B461     		str	r4, [r6, #24]
 6443              		.loc 1 2360 0
 6444 011a B380     		strh	r3, [r6, #4]	@ movhi
 6445 011c 95E7     		b	.L952
 6446              	.LVL1026:
 6447              	.L957:
 6448              		.loc 1 2324 0
 6449 011e 0724     		movs	r4, #7
 6450              	.LVL1027:
 6451 0120 8FE7     		b	.L945
 6452              	.LVL1028:
 6453              	.L956:
 6454              		.loc 1 2321 0
 6455 0122 0424     		movs	r4, #4
 6456 0124 8DE7     		b	.L945
 6457              	.LVL1029:
 6458              	.L968:
 6459              	.LBB260:
 6460              	.LBB261:
 6461              	.LBB262:
 6462              		.loc 1 596 0 discriminator 1
 6463 0126 0598     		ldr	r0, [sp, #20]
 6464              	.LVL1030:
 6465 0128 C068     		ldr	r0, [r0, #12]
 6466 012a FFF7FEFF 		bl	ff_rel_grant
 6467              	.LVL1031:
 6468              		.loc 1 2264 0 discriminator 1
 6469 012e 1124     		movs	r4, #17
 6470              	.LVL1032:
 6471 0130 8EE7     		b	.L964
 6472              	.LVL1033:
 6473              	.L970:
 6474              	.LBE262:
 6475              	.LBE261:
 6476              	.LBE260:
 6477              		.loc 1 2272 0
 6478 0132 0624     		movs	r4, #6
 6479 0134 85E7     		b	.L945
 6480              	.LVL1034:
ARM GAS  C:\Users\Matuesz\AppData\Local\Temp\ccSJWVN7.s 			page 115


 6481              	.L972:
 6482              	.LBB263:
 6483              		.loc 1 2301 0
 6484 0136 FFF7FEFF 		bl	get_fattime
 6485              	.LVL1035:
 6486              		.loc 1 2305 0
 6487 013a 95F81B80 		ldrb	r8, [r5, #27]	@ zero_extendqisi2
 6488 013e 95F815A0 		ldrb	sl, [r5, #21]	@ zero_extendqisi2
 6489 0142 2C7D     		ldrb	r4, [r5, #20]	@ zero_extendqisi2
 6490 0144 A97E     		ldrb	r1, [r5, #26]	@ zero_extendqisi2
 6491              		.loc 1 2307 0
 6492 0146 059B     		ldr	r3, [sp, #20]
 6493              		.loc 1 2302 0
 6494 0148 A873     		strb	r0, [r5, #14]
 6495              		.loc 1 2303 0
 6496 014a 0022     		movs	r2, #0
 6497              		.loc 1 2305 0
 6498 014c 44EA0A24 		orr	r4, r4, sl, lsl #8
 6499 0150 41EA0821 		orr	r1, r1, r8, lsl #8
 6500              	.LVL1036:
 6501              		.loc 1 2302 0
 6502 0154 C0F3072C 		ubfx	ip, r0, #8, #8
 6503 0158 4FEA104E 		lsr	lr, r0, #16
 6504              		.loc 1 2303 0
 6505 015c EA72     		strb	r2, [r5, #11]
 6506              		.loc 1 2302 0
 6507 015e 000E     		lsrs	r0, r0, #24
 6508              	.LVL1037:
 6509              		.loc 1 2304 0
 6510 0160 2A77     		strb	r2, [r5, #28]
 6511 0162 6A77     		strb	r2, [r5, #29]
 6512 0164 AA77     		strb	r2, [r5, #30]
 6513 0166 EA77     		strb	r2, [r5, #31]
 6514              		.loc 1 2306 0
 6515 0168 AA76     		strb	r2, [r5, #26]
 6516 016a EA76     		strb	r2, [r5, #27]
 6517 016c 2A75     		strb	r2, [r5, #20]
 6518 016e 6A75     		strb	r2, [r5, #21]
 6519              		.loc 1 2307 0
 6520 0170 0122     		movs	r2, #1
 6521              		.loc 1 2308 0
 6522 0172 51EA0448 		orrs	r8, r1, r4, lsl #16
 6523              	.LVL1038:
 6524              		.loc 1 2302 0
 6525 0176 85F80FC0 		strb	ip, [r5, #15]
 6526 017a 85F810E0 		strb	lr, [r5, #16]
 6527 017e 6874     		strb	r0, [r5, #17]
 6528              		.loc 1 2307 0
 6529 0180 1A71     		strb	r2, [r3, #4]
 6530              		.loc 1 2308 0
 6531 0182 A4D0     		beq	.L943
 6532              		.loc 1 2310 0
 6533 0184 1846     		mov	r0, r3
 6534 0186 4146     		mov	r1, r8
 6535              		.loc 1 2309 0
 6536 0188 D3F830A0 		ldr	sl, [r3, #48]
 6537              	.LVL1039:
ARM GAS  C:\Users\Matuesz\AppData\Local\Temp\ccSJWVN7.s 			page 116


 6538              		.loc 1 2310 0
 6539 018c FFF7FEFF 		bl	remove_chain
 6540              	.LVL1040:
 6541              		.loc 1 2311 0
 6542 0190 0446     		mov	r4, r0
 6543 0192 0028     		cmp	r0, #0
 6544 0194 7FF455AF 		bne	.L945
 6545              		.loc 1 2312 0
 6546 0198 0598     		ldr	r0, [sp, #20]
 6547              	.LVL1041:
 6548 019a 08F1FF33 		add	r3, r8, #-1
 6549 019e 0361     		str	r3, [r0, #16]
 6550              		.loc 1 2313 0
 6551 01a0 5146     		mov	r1, sl
 6552 01a2 FFF7FEFF 		bl	move_window
 6553              	.LVL1042:
 6554              	.LBE263:
 6555              		.loc 1 2328 0
 6556 01a6 0446     		mov	r4, r0
 6557 01a8 0028     		cmp	r0, #0
 6558 01aa 7FF44AAF 		bne	.L945
 6559 01ae 059B     		ldr	r3, [sp, #20]
 6560 01b0 8DE7     		b	.L943
 6561              		.cfi_endproc
 6562              	.LFE38:
 6563              		.size	f_open, .-f_open
 6564 01b2 00BFAFF3 		.section	.text.f_read,"ax",%progbits
 6564      0080AFF3 
 6564      0080AFF3 
 6564      0080
 6565              		.align	2
 6566              		.p2align 4,,15
 6567              		.global	f_read
 6568              		.thumb
 6569              		.thumb_func
 6570              		.type	f_read, %function
 6571              	f_read:
 6572              	.LFB39:
 6573              		.loc 1 2379 0
 6574              		.cfi_startproc
 6575              		@ args = 0, pretend = 0, frame = 8
 6576              		@ frame_needed = 0, uses_anonymous_args = 0
 6577              	.LVL1043:
 6578 0000 2DE9F04F 		push	{r4, r5, r6, r7, r8, r9, sl, fp, lr}
