ARM GAS  C:\Users\Matuesz\AppData\Local\Temp\ccCkLsuV.s 			page 1


   1              		.syntax unified
   2              		.cpu cortex-m4
   3              		.fpu softvfp
   4              		.eabi_attribute 20, 1
   5              		.eabi_attribute 21, 1
   6              		.eabi_attribute 23, 3
   7              		.eabi_attribute 24, 1
   8              		.eabi_attribute 25, 1
   9              		.eabi_attribute 26, 1
  10              		.eabi_attribute 30, 2
  11              		.eabi_attribute 34, 1
  12              		.eabi_attribute 18, 4
  13              		.thumb
  14              		.file	"hal.c"
  15              		.text
  16              	.Ltext0:
  17              		.cfi_sections	.debug_frame
  18              		.section	.text.halInit,"ax",%progbits
  19              		.align	2
  20              		.p2align 4,,15
  21              		.global	halInit
  22              		.thumb
  23              		.thumb_func
  24              		.type	halInit, %function
  25              	halInit:
  26              	.LFB118:
  27              		.file 1 "../../os/hal/src/hal.c"
  28              		.loc 1 68 0
  29              		.cfi_startproc
  30              		@ args = 0, pretend = 0, frame = 0
  31              		@ frame_needed = 0, uses_anonymous_args = 0
  32 0000 08B5     		push	{r3, lr}
  33              	.LCFI0:
  34              		.cfi_def_cfa_offset 8
  35              		.cfi_offset 3, -8
  36              		.cfi_offset 14, -4
  37              		.loc 1 70 0
  38 0002 FFF7FEFF 		bl	hal_lld_init
  39              	.LVL0:
  40              		.loc 1 73 0
  41 0006 FFF7FEFF 		bl	tmInit
  42              	.LVL1:
  43              		.loc 1 76 0
  44 000a 40F20000 		movw	r0, #:lower16:pal_default_config
  45 000e C0F20000 		movt	r0, #:upper16:pal_default_config
  46 0012 FFF7FEFF 		bl	_pal_lld_init
  47              	.LVL2:
  48              		.loc 1 79 0
  49 0016 FFF7FEFF 		bl	adcInit
  50              	.LVL3:
  51              		.loc 1 97 0
  52 001a FFF7FEFF 		bl	macInit
  53              	.LVL4:
  54              		.loc 1 103 0
  55 001e FFF7FEFF 		bl	sdInit
  56              	.LVL5:
  57              		.loc 1 106 0
ARM GAS  C:\Users\Matuesz\AppData\Local\Temp\ccCkLsuV.s 			page 2


  58 0022 FFF7FEFF 		bl	sdcInit
  59              	.LVL6:
  60              		.loc 1 115 0
  61 0026 FFF7FEFF 		bl	usbInit
  62              	.LVL7:
  63              		.loc 1 121 0
  64 002a FFF7FEFF 		bl	sduInit
  65              	.LVL8:
  66              		.loc 1 128 0
  67 002e BDE80840 		pop	{r3, lr}
  68              		.loc 1 127 0
  69 0032 FFF7FEBF 		b	boardInit
  70              	.LVL9:
  71              		.cfi_endproc
  72              	.LFE118:
  73              		.size	halInit, .-halInit
  74 0036 00BFAFF3 		.section	.text.halIsCounterWithin,"ax",%progbits
  74      0080AFF3 
  74      0080
  75              		.align	2
  76              		.p2align 4,,15
  77              		.global	halIsCounterWithin
  78              		.thumb
  79              		.thumb_func
  80              		.type	halIsCounterWithin, %function
  81              	halIsCounterWithin:
  82              	.LFB119:
  83              		.loc 1 174 0
  84              		.cfi_startproc
  85              		@ args = 0, pretend = 0, frame = 0
  86              		@ frame_needed = 0, uses_anonymous_args = 0
  87              		@ link register save eliminated.
  88              	.LVL10:
  89              		.loc 1 175 0
  90 0000 4FF48053 		mov	r3, #4096
  91 0004 CEF20003 		movt	r3, 57344
  92              		.loc 1 177 0
  93 0008 8142     		cmp	r1, r0
  94              		.loc 1 175 0
  95 000a 5A68     		ldr	r2, [r3, #4]
  96              	.LVL11:
  97              		.loc 1 177 0
  98 000c 06D9     		bls	.L3
  99              		.loc 1 177 0 is_stmt 0 discriminator 1
 100 000e 8242     		cmp	r2, r0
 101 0010 08D3     		bcc	.L7
 102              	.L9:
 103              		.loc 1 178 0 is_stmt 1 discriminator 2
 104 0012 8A42     		cmp	r2, r1
 105 0014 2CBF     		ite	cs
 106 0016 0020     		movcs	r0, #0
 107              	.LVL12:
 108 0018 0120     		movcc	r0, #1
 109 001a 7047     		bx	lr
 110              	.LVL13:
 111              	.L3:
 112              		.loc 1 178 0 is_stmt 0
ARM GAS  C:\Users\Matuesz\AppData\Local\Temp\ccCkLsuV.s 			page 3


 113 001c 8242     		cmp	r2, r0
 114 001e F8D3     		bcc	.L9
 115 0020 0120     		movs	r0, #1
 116              	.LVL14:
 117              		.loc 1 179 0 is_stmt 1
 118 0022 7047     		bx	lr
 119              	.LVL15:
 120              	.L7:
 121              		.loc 1 177 0
 122 0024 0020     		movs	r0, #0
 123              	.LVL16:
 124 0026 7047     		bx	lr
 125              		.cfi_endproc
 126              	.LFE119:
 127              		.size	halIsCounterWithin, .-halIsCounterWithin
 128 0028 AFF30080 		.section	.text.halPolledDelay,"ax",%progbits
 128      AFF30080 
 129              		.align	2
 130              		.p2align 4,,15
 131              		.global	halPolledDelay
 132              		.thumb
 133              		.thumb_func
 134              		.type	halPolledDelay, %function
 135              	halPolledDelay:
 136              	.LFB120:
 137              		.loc 1 193 0
 138              		.cfi_startproc
 139              		@ args = 0, pretend = 0, frame = 0
 140              		@ frame_needed = 0, uses_anonymous_args = 0
 141              		@ link register save eliminated.
 142              	.LVL17:
 143              		.loc 1 194 0
 144 0000 4FF48053 		mov	r3, #4096
 145 0004 CEF20003 		movt	r3, 57344
 146              	.LBB4:
 147              	.LBB5:
 148              		.loc 1 175 0
 149 0008 1946     		mov	r1, r3
 150              	.LBE5:
 151              	.LBE4:
 152              		.loc 1 194 0
 153 000a 5A68     		ldr	r2, [r3, #4]
 154              	.LVL18:
 155              		.loc 1 195 0
 156 000c 8018     		adds	r0, r0, r2
 157              	.LVL19:
 158              	.L21:
 159              	.LBB7:
 160              	.LBB6:
 161              		.loc 1 177 0 discriminator 1
 162 000e 8242     		cmp	r2, r0
 163              		.loc 1 175 0 discriminator 1
 164 0010 4B68     		ldr	r3, [r1, #4]
 165              	.LVL20:
 166              		.loc 1 177 0 discriminator 1
 167 0012 02D2     		bcs	.L12
 168              		.loc 1 177 0 is_stmt 0
ARM GAS  C:\Users\Matuesz\AppData\Local\Temp\ccCkLsuV.s 			page 4


 169 0014 9A42     		cmp	r2, r3
 170 0016 02D9     		bls	.L22
 171 0018 7047     		bx	lr
 172              	.L12:
 173              		.loc 1 178 0 is_stmt 1
 174 001a 9A42     		cmp	r2, r3
 175 001c F7D9     		bls	.L21
 176              	.L22:
 177 001e 9842     		cmp	r0, r3
 178 0020 94BF     		ite	ls
 179 0022 0023     		movls	r3, #0
 180              	.LVL21:
 181 0024 0123     		movhi	r3, #1
 182              	.LBE6:
 183              	.LBE7:
 184              		.loc 1 196 0
 185 0026 002B     		cmp	r3, #0
 186 0028 F1D1     		bne	.L21
 187 002a 7047     		bx	lr
 188              		.cfi_endproc
 189              	.LFE120:
 190              		.size	halPolledDelay, .-halPolledDelay
 191 002c AFF30080 		.text
 192              	.Letext0:
 193              		.file 2 "c:\\chibistudio\\tools\\gnu tools arm embedded\\4.7 2014q2\\bin\\../lib/gcc/arm-none-eabi
 194              		.file 3 "../../os/ports/GCC/ARMCMx/chtypes.h"
 195              		.file 4 "../../os/ports/common/ARMCMx/nvic.h"
 196              		.file 5 "../../os/hal/platforms/STM32F4xx/hal_lld.h"
 197              		.file 6 "../../os/hal/platforms/STM32/GPIOv2/pal_lld.h"
 198              		.file 7 "../../os/ports/common/ARMCMx/CMSIS/include/core_cm4.h"
 199              		.file 8 "../../os/hal/include/tm.h"
 200              		.file 9 "../../os/hal/include/adc.h"
 201              		.file 10 "../../os/hal/include/mac.h"
 202              		.file 11 "../../os/hal/include/serial.h"
 203              		.file 12 "../../os/hal/include/sdc.h"
 204              		.file 13 "../../os/hal/include/usb.h"
 205              		.file 14 "../../os/hal/include/serial_usb.h"
 206              		.file 15 "../../boards/OLIMEX_STM32_E407_REV_D/board.h"