ARM GAS  C:\Users\Matuesz\AppData\Local\Temp\ccy2g9Gf.s 			page 1


   1              		.syntax unified
   2              		.cpu cortex-m4
   3              		.fpu softvfp
   4              		.eabi_attribute 20, 1
   5              		.eabi_attribute 21, 1
   6              		.eabi_attribute 23, 3
   7              		.eabi_attribute 24, 1
   8              		.eabi_attribute 25, 1
   9              		.eabi_attribute 26, 1
  10              		.eabi_attribute 30, 2
  11              		.eabi_attribute 34, 1
  12              		.eabi_attribute 18, 4
  13              		.thumb
  14              		.file	"sdc_lld.c"
  15              		.text
  16              	.Ltext0:
  17              		.cfi_sections	.debug_frame
  18              		.section	.text.sdc_lld_collect_errors,"ax",%progbits
  19              		.align	2
  20              		.p2align 4,,15
  21              		.thumb
  22              		.thumb_func
  23              		.type	sdc_lld_collect_errors, %function
  24              	sdc_lld_collect_errors:
  25              	.LFB121:
  26              		.file 1 "../../os/hal/platforms/STM32/sdc_lld.c"
  27              		.loc 1 215 0
  28              		.cfi_startproc
  29              		@ args = 0, pretend = 0, frame = 0
  30              		@ frame_needed = 0, uses_anonymous_args = 0
  31              		@ link register save eliminated.
  32              	.LVL0:
  33              		.loc 1 218 0
  34 0000 01F00103 		and	r3, r1, #1
  35              	.LVL1:
  36              		.loc 1 220 0
  37 0004 8A07     		lsls	r2, r1, #30
  38              		.loc 1 221 0
  39 0006 48BF     		it	mi
  40 0008 43F00203 		orrmi	r3, r3, #2
  41              	.LVL2:
  42              		.loc 1 222 0
  43 000c 4A07     		lsls	r2, r1, #29
  44              		.loc 1 223 0
  45 000e 48BF     		it	mi
  46 0010 43F00803 		orrmi	r3, r3, #8
  47              	.LVL3:
  48              		.loc 1 224 0
  49 0014 0A07     		lsls	r2, r1, #28
  50              		.loc 1 225 0
  51 0016 48BF     		it	mi
  52 0018 43F00403 		orrmi	r3, r3, #4
  53              	.LVL4:
  54              		.loc 1 226 0
  55 001c CA06     		lsls	r2, r1, #27
  56              		.loc 1 227 0
  57 001e 48BF     		it	mi
ARM GAS  C:\Users\Matuesz\AppData\Local\Temp\ccy2g9Gf.s 			page 2


  58 0020 43F01003 		orrmi	r3, r3, #16
  59              	.LVL5:
  60              		.loc 1 228 0
  61 0024 8A06     		lsls	r2, r1, #26
  62              		.loc 1 229 0
  63 0026 48BF     		it	mi
  64 0028 43F02003 		orrmi	r3, r3, #32
  65              	.LVL6:
  66              		.loc 1 230 0
  67 002c 8A05     		lsls	r2, r1, #22
  68              		.loc 1 233 0
  69 002e 426B     		ldr	r2, [r0, #52]
  70              		.loc 1 231 0
  71 0030 48BF     		it	mi
  72 0032 43F04003 		orrmi	r3, r3, #64
  73              	.LVL7:
  74              		.loc 1 233 0
  75 0036 42EA0301 		orr	r1, r2, r3
  76              	.LVL8:
  77 003a 4163     		str	r1, [r0, #52]
  78 003c 7047     		bx	lr
  79              		.cfi_endproc
  80              	.LFE121:
  81              		.size	sdc_lld_collect_errors, .-sdc_lld_collect_errors
  82 003e 00BF     		.section	.text.Vector104,"ax",%progbits
  83              		.align	2
  84              		.p2align 4,,15
  85              		.global	Vector104
  86              		.thumb
  87              		.thumb_func
  88              		.type	Vector104, %function
  89              	Vector104:
  90              	.LFB123:
  91              		.loc 1 274 0
  92              		.cfi_startproc
  93              		@ args = 0, pretend = 0, frame = 0
  94              		@ frame_needed = 0, uses_anonymous_args = 0
  95 0000 38B5     		push	{r3, r4, r5, lr}
  96              	.LCFI0:
  97              		.cfi_def_cfa_offset 16
  98              		.cfi_offset 3, -16
  99              		.cfi_offset 4, -12
 100              		.cfi_offset 5, -8
 101              		.cfi_offset 14, -4
 102              	.LBB5:
 103              		.loc 1 278 0
 104 0002 2023     		movs	r3, #32
 105              	.LVL9:
 106              	@ 278 "../../os/hal/platforms/STM32/sdc_lld.c" 1
 107 0004 83F31188 		msr     BASEPRI, r3
 108              	@ 0 "" 2
 109              	.LVL10:
 110              		.thumb
 111              	.LBE5:
 112              		.loc 1 284 0
 113 0008 094C     		ldr	r4, .L32
 114              		.loc 1 282 0
ARM GAS  C:\Users\Matuesz\AppData\Local\Temp\ccy2g9Gf.s 			page 3


 115 000a 4FF43053 		mov	r3, #11264
 116              	.LVL11:
 117 000e C4F20103 		movt	r3, 16385
 118              		.loc 1 284 0
 119 0012 E06B     		ldr	r0, [r4, #60]
 120              		.loc 1 282 0
 121 0014 0025     		movs	r5, #0
 122 0016 DD63     		str	r5, [r3, #60]
 123              		.loc 1 284 0
 124 0018 10B1     		cbz	r0, .L27
 125              		.loc 1 285 0
 126 001a FFF7FEFF 		bl	chSchReadyI
 127              	.LVL12:
 128              		.loc 1 286 0
 129 001e E563     		str	r5, [r4, #60]
 130              	.L27:
 131              	.LBB6:
 132              		.loc 1 289 0
 133 0020 0023     		movs	r3, #0
 134              	.LVL13:
 135              	@ 289 "../../os/hal/platforms/STM32/sdc_lld.c" 1
 136 0022 83F31188 		msr     BASEPRI, r3
 137              	@ 0 "" 2
 138              	.LVL14:
 139              		.thumb
 140              	.LBE6:
 141              		.loc 1 292 0
 142 0026 BDE83840 		pop	{r3, r4, r5, lr}
 143              		.loc 1 291 0
 144 002a FFF7FEBF 		b	_port_irq_epilogue
 145              	.LVL15:
 146              	.L33:
 147 002e 00BF     		.align	2
 148              	.L32:
 149 0030 00000000 		.word	.LANCHOR0
 150              		.cfi_endproc
 151              	.LFE123:
 152              		.size	Vector104, .-Vector104
 153 0034 AFF30080 		.section	.text.sdc_lld_init,"ax",%progbits
 153      AFF30080 
 153      AFF30080 
 154              		.align	2
 155              		.p2align 4,,15
 156              		.global	sdc_lld_init
 157              		.thumb
 158              		.thumb_func
 159              		.type	sdc_lld_init, %function
 160              	sdc_lld_init:
 161              	.LFB124:
 162              		.loc 1 303 0
 163              		.cfi_startproc
 164              		@ args = 0, pretend = 0, frame = 0
 165              		@ frame_needed = 0, uses_anonymous_args = 0
 166 0000 10B5     		push	{r4, lr}
 167              	.LCFI1:
 168              		.cfi_def_cfa_offset 8
 169              		.cfi_offset 4, -8
ARM GAS  C:\Users\Matuesz\AppData\Local\Temp\ccy2g9Gf.s 			page 4


 170              		.cfi_offset 14, -4
 171              		.loc 1 305 0
 172 0002 40F20004 		movw	r4, #:lower16:.LANCHOR0
 173 0006 C0F20004 		movt	r4, #:upper16:.LANCHOR0
 174 000a 2046     		mov	r0, r4
 175 000c FFF7FEFF 		bl	sdcObjectInit
 176              	.LVL16:
 177              		.loc 1 307 0
 178 0010 0248     		ldr	r0, .L35
 179              		.loc 1 306 0
 180 0012 0023     		movs	r3, #0
 181 0014 E363     		str	r3, [r4, #60]
 182              		.loc 1 307 0
 183 0016 6064     		str	r0, [r4, #68]
 184 0018 10BD     		pop	{r4, pc}
 185              	.L36:
 186 001a 00BF     		.align	2
 187              	.L35:
 188 001c 84000000 		.word	_stm32_dma_streams+132
 189              		.cfi_endproc
 190              	.LFE124:
 191              		.size	sdc_lld_init, .-sdc_lld_init
 192              		.section	.text.sdc_lld_start,"ax",%progbits
 193              		.align	2
 194              		.p2align 4,,15
 195              		.global	sdc_lld_start
 196              		.thumb
 197              		.thumb_func
 198              		.type	sdc_lld_start, %function
 199              	sdc_lld_start:
 200              	.LFB125:
 201              		.loc 1 320 0
 202              		.cfi_startproc
 203              		@ args = 0, pretend = 0, frame = 0
 204              		@ frame_needed = 0, uses_anonymous_args = 0
 205              	.LVL17:
 206              		.loc 1 334 0
 207 0000 0279     		ldrb	r2, [r0, #4]	@ zero_extendqisi2
 208              		.loc 1 329 0
 209 0002 45F22043 		movw	r3, #21536
 210 0006 C0F6A303 		movt	r3, 2211
 211              		.loc 1 334 0
 212 000a 012A     		cmp	r2, #1
 213              		.loc 1 320 0
 214 000c 10B5     		push	{r4, lr}
 215              	.LCFI2:
 216              		.cfi_def_cfa_offset 8
 217              		.cfi_offset 4, -8
 218              		.cfi_offset 14, -4
 219              		.loc 1 320 0
 220 000e 0446     		mov	r4, r0
 221              		.loc 1 329 0
 222 0010 0364     		str	r3, [r0, #64]
 223              		.loc 1 334 0
 224 0012 09D0     		beq	.L39
 225              	.LVL18:
 226              	.L38:
ARM GAS  C:\Users\Matuesz\AppData\Local\Temp\ccy2g9Gf.s 			page 5


 227              		.loc 1 349 0
 228 0014 4FF43050 		mov	r0, #11264
 229 0018 C4F20100 		movt	r0, 16385
 230 001c 0022     		movs	r2, #0
 231 001e 0260     		str	r2, [r0, #0]
 232              		.loc 1 350 0
 233 0020 4260     		str	r2, [r0, #4]
 234              		.loc 1 351 0
 235 0022 C262     		str	r2, [r0, #44]
 236              		.loc 1 352 0
 237 0024 4262     		str	r2, [r0, #36]
 238 0026 10BD     		pop	{r4, pc}
 239              	.LVL19:
 240              	.L39:
 241              	.LBB7:
 242              		.loc 1 337 0
 243 0028 0022     		movs	r2, #0
 244 002a 1346     		mov	r3, r2
 245 002c 0921     		movs	r1, #9
 246 002e 406C     		ldr	r0, [r0, #68]
 247              	.LVL20:
 248 0030 FFF7FEFF 		bl	dmaStreamAllocate
 249              	.LVL21:
 250              		.loc 1 339 0
 251 0034 606C     		ldr	r0, [r4, #68]
 252 0036 4FF43251 		mov	r1, #11392
 253 003a 0368     		ldr	r3, [r0, #0]
 254 003c C4F20101 		movt	r1, 16385
 255              		.loc 1 341 0
 256 0040 0722     		movs	r2, #7
 257              		.loc 1 339 0
 258 0042 9960     		str	r1, [r3, #8]
 259              		.loc 1 343 0
 260 0044 3120     		movs	r0, #49
 261              		.loc 1 341 0
 262 0046 5A61     		str	r2, [r3, #20]
 263              		.loc 1 343 0
 264 0048 9021     		movs	r1, #144
 265 004a FFF7FEFF 		bl	nvicEnableVector
 266              	.LVL22:
 267              		.loc 1 345 0
 268 004e 4FF46050 		mov	r0, #14336
 269 0052 C4F20200 		movt	r0, 16386
 270 0056 416C     		ldr	r1, [r0, #68]
 271 0058 41F40063 		orr	r3, r1, #2048
 272 005c 4364     		str	r3, [r0, #68]
 273 005e D9E7     		b	.L38
 274              	.LBE7:
 275              		.cfi_endproc
 276              	.LFE125:
 277              		.size	sdc_lld_start, .-sdc_lld_start
 278              		.section	.text.sdc_lld_stop,"ax",%progbits
 279              		.align	2
 280              		.p2align 4,,15
 281              		.global	sdc_lld_stop
 282              		.thumb
 283              		.thumb_func
ARM GAS  C:\Users\Matuesz\AppData\Local\Temp\ccy2g9Gf.s 			page 6


 284              		.type	sdc_lld_stop, %function
 285              	sdc_lld_stop:
 286              	.LFB126:
 287              		.loc 1 362 0
 288              		.cfi_startproc
 289              		@ args = 0, pretend = 0, frame = 0
 290              		@ frame_needed = 0, uses_anonymous_args = 0
 291              	.LVL23:
 292              		.loc 1 364 0
 293 0000 0379     		ldrb	r3, [r0, #4]	@ zero_extendqisi2
 294 0002 012B     		cmp	r3, #1
 295              		.loc 1 362 0
 296 0004 10B5     		push	{r4, lr}
 297              	.LCFI3:
 298              		.cfi_def_cfa_offset 8
 299              		.cfi_offset 4, -8
 300              		.cfi_offset 14, -4
 301              		.loc 1 362 0
 302 0006 0446     		mov	r4, r0
 303              		.loc 1 364 0
 304 0008 16D0     		beq	.L40
 305              		.loc 1 367 0
 306 000a 4FF43051 		mov	r1, #11264
 307 000e C4F20101 		movt	r1, 16385
 308 0012 0022     		movs	r2, #0
 309 0014 0A60     		str	r2, [r1, #0]
 310              		.loc 1 373 0
 311 0016 3120     		movs	r0, #49
 312              	.LVL24:
 313              		.loc 1 368 0
 314 0018 4A60     		str	r2, [r1, #4]
 315              		.loc 1 369 0
 316 001a CA62     		str	r2, [r1, #44]
 317              		.loc 1 370 0
 318 001c 4A62     		str	r2, [r1, #36]
 319              		.loc 1 373 0
 320 001e FFF7FEFF 		bl	nvicDisableVector
 321              	.LVL25:
 322              		.loc 1 374 0
 323 0022 606C     		ldr	r0, [r4, #68]
 324 0024 FFF7FEFF 		bl	dmaStreamRelease
 325              	.LVL26:
 326              		.loc 1 375 0
 327 0028 4FF46050 		mov	r0, #14336
 328 002c C4F20200 		movt	r0, 16386
 329 0030 436C     		ldr	r3, [r0, #68]
 330 0032 23F40061 		bic	r1, r3, #2048
 331 0036 4164     		str	r1, [r0, #68]
 332              	.L40:
 333 0038 10BD     		pop	{r4, pc}
 334              		.cfi_endproc
 335              	.LFE126:
 336              		.size	sdc_lld_stop, .-sdc_lld_stop
 337 003a 00BFAFF3 		.section	.text.sdc_lld_start_clk,"ax",%progbits
 337      0080
 338              		.align	2
 339              		.p2align 4,,15
ARM GAS  C:\Users\Matuesz\AppData\Local\Temp\ccy2g9Gf.s 			page 7


 340              		.global	sdc_lld_start_clk
 341              		.thumb
 342              		.thumb_func
 343              		.type	sdc_lld_start_clk, %function
 344              	sdc_lld_start_clk:
 345              	.LFB127:
 346              		.loc 1 386 0
 347              		.cfi_startproc
 348              		@ args = 0, pretend = 0, frame = 0
 349              		@ frame_needed = 0, uses_anonymous_args = 0
 350              		@ link register save eliminated.
 351              	.LVL27:
 352              		.loc 1 391 0
 353 0000 4FF43053 		mov	r3, #11264
 354 0004 C4F20103 		movt	r3, 16385
 355 0008 7822     		movs	r2, #120
 356 000a 5A60     		str	r2, [r3, #4]
 357              		.loc 1 392 0
 358 000c 1868     		ldr	r0, [r3, #0]
 359              	.LVL28:
 360 000e 40F00301 		orr	r1, r0, #3
 361 0012 1960     		str	r1, [r3, #0]
 362              		.loc 1 393 0
 363 0014 5A68     		ldr	r2, [r3, #4]
 364 0016 42F48070 		orr	r0, r2, #256
 365 001a 5860     		str	r0, [r3, #4]
 366              		.loc 1 396 0
 367 001c 0A20     		movs	r0, #10
 368              		.loc 1 397 0
 369              		.loc 1 396 0
 370 001e FFF7FEBF 		b	chThdSleep
 371              	.LVL29:
 372              		.cfi_endproc
 373              	.LFE127:
 374              		.size	sdc_lld_start_clk, .-sdc_lld_start_clk
 375 0022 00BFAFF3 		.section	.text.sdc_lld_set_data_clk,"ax",%progbits
 375      0080AFF3 
 375      0080AFF3 
 375      0080
 376              		.align	2
 377              		.p2align 4,,15
 378              		.global	sdc_lld_set_data_clk
 379              		.thumb
 380              		.thumb_func
 381              		.type	sdc_lld_set_data_clk, %function
 382              	sdc_lld_set_data_clk:
 383              	.LFB128:
 384              		.loc 1 406 0
 385              		.cfi_startproc
 386              		@ args = 0, pretend = 0, frame = 0
 387              		@ frame_needed = 0, uses_anonymous_args = 0
 388              		@ link register save eliminated.
 389              	.LVL30:
 390              		.loc 1 410 0
 391 0000 4FF43053 		mov	r3, #11264
 392 0004 C4F20103 		movt	r3, 16385
 393 0008 5A68     		ldr	r2, [r3, #4]
ARM GAS  C:\Users\Matuesz\AppData\Local\Temp\ccy2g9Gf.s 			page 8


 394 000a 22F0FF00 		bic	r0, r2, #255
 395              	.LVL31:
 396 000e 5860     		str	r0, [r3, #4]
 397 0010 7047     		bx	lr
 398              		.cfi_endproc
 399              	.LFE128:
 400              		.size	sdc_lld_set_data_clk, .-sdc_lld_set_data_clk
 401 0012 00BFAFF3 		.section	.text.sdc_lld_stop_clk,"ax",%progbits
 401      0080AFF3 
 401      0080AFF3 
 401      0080
 402              		.align	2
 403              		.p2align 4,,15
 404              		.global	sdc_lld_stop_clk
 405              		.thumb
 406              		.thumb_func
 407              		.type	sdc_lld_stop_clk, %function
 408              	sdc_lld_stop_clk:
 409              	.LFB129:
 410              		.loc 1 420 0
 411              		.cfi_startproc
 412              		@ args = 0, pretend = 0, frame = 0
 413              		@ frame_needed = 0, uses_anonymous_args = 0
 414              		@ link register save eliminated.
 415              	.LVL32:
 416              		.loc 1 424 0
 417 0000 4FF43053 		mov	r3, #11264
 418 0004 C4F20103 		movt	r3, 16385
 419 0008 0022     		movs	r2, #0
 420 000a 5A60     		str	r2, [r3, #4]
 421              		.loc 1 425 0
 422 000c 1A60     		str	r2, [r3, #0]
 423 000e 7047     		bx	lr
 424              		.cfi_endproc
 425              	.LFE129:
 426              		.size	sdc_lld_stop_clk, .-sdc_lld_stop_clk
 427              		.section	.text.sdc_lld_set_bus_mode,"ax",%progbits
 428              		.align	2
 429              		.p2align 4,,15
 430              		.global	sdc_lld_set_bus_mode
 431              		.thumb
 432              		.thumb_func
 433              		.type	sdc_lld_set_bus_mode, %function
 434              	sdc_lld_set_bus_mode:
 435              	.LFB130:
 436              		.loc 1 436 0
 437              		.cfi_startproc
 438              		@ args = 0, pretend = 0, frame = 0
 439              		@ frame_needed = 0, uses_anonymous_args = 0
 440              		@ link register save eliminated.
 441              	.LVL33:
 442              		.loc 1 437 0
 443 0000 4FF43053 		mov	r3, #11264
 444 0004 C4F20103 		movt	r3, 16385
 445              		.loc 1 441 0
 446 0008 0129     		cmp	r1, #1
 447              		.loc 1 437 0
ARM GAS  C:\Users\Matuesz\AppData\Local\Temp\ccy2g9Gf.s 			page 9


 448 000a 5A68     		ldr	r2, [r3, #4]
 449 000c 22F4C050 		bic	r0, r2, #6144
 450              	.LVL34:
 451              		.loc 1 441 0
 452 0010 07D0     		beq	.L51
 453 0012 01D2     		bcs	.L54
 454              	.LVL35:
 455              	.L53:
 456              		.loc 1 449 0
 457 0014 5860     		str	r0, [r3, #4]
 458              	.L48:
 459 0016 7047     		bx	lr
 460              	.LVL36:
 461              	.L54:
 462              		.loc 1 441 0
 463 0018 0229     		cmp	r1, #2
 464 001a FCD1     		bne	.L48
 465              		.loc 1 449 0
 466 001c 40F48050 		orr	r0, r0, #4096
 467              	.LVL37:
 468 0020 F8E7     		b	.L53
 469              	.LVL38:
 470              	.L51:
 471              		.loc 1 446 0
 472 0022 40F40061 		orr	r1, r0, #2048
 473              	.LVL39:
 474 0026 5960     		str	r1, [r3, #4]
 475              		.loc 1 447 0
 476 0028 7047     		bx	lr
 477              		.cfi_endproc
 478              	.LFE130:
 479              		.size	sdc_lld_set_bus_mode, .-sdc_lld_set_bus_mode
 480 002a 00BFAFF3 		.section	.text.sdc_lld_send_cmd_none,"ax",%progbits
 480      0080
 481              		.align	2
 482              		.p2align 4,,15
 483              		.global	sdc_lld_send_cmd_none
 484              		.thumb
 485              		.thumb_func
 486              		.type	sdc_lld_send_cmd_none, %function
 487              	sdc_lld_send_cmd_none:
 488              	.LFB131:
 489              		.loc 1 463 0
 490              		.cfi_startproc
 491              		@ args = 0, pretend = 0, frame = 0
 492              		@ frame_needed = 0, uses_anonymous_args = 0
 493              		@ link register save eliminated.
 494              	.LVL40:
 495              		.loc 1 467 0
 496 0000 4FF43053 		mov	r3, #11264
 497 0004 C4F20103 		movt	r3, 16385
 498              		.loc 1 468 0
 499 0008 41F48061 		orr	r1, r1, #1024
 500              	.LVL41:
 501              		.loc 1 467 0
 502 000c 9A60     		str	r2, [r3, #8]
 503              		.loc 1 469 0
ARM GAS  C:\Users\Matuesz\AppData\Local\Temp\ccy2g9Gf.s 			page 10


 504 000e 1846     		mov	r0, r3
 505              	.LVL42:
 506              		.loc 1 468 0
 507 0010 D960     		str	r1, [r3, #12]
 508              	.LVL43:
 509              	.L56:
 510              		.loc 1 469 0 discriminator 1
 511 0012 426B     		ldr	r2, [r0, #52]
 512 0014 4FF43053 		mov	r3, #11264
 513 0018 1206     		lsls	r2, r2, #24
 514 001a C4F20103 		movt	r3, 16385
 515 001e F8D5     		bpl	.L56
 516              		.loc 1 471 0
 517 0020 8021     		movs	r1, #128
 518 0022 9963     		str	r1, [r3, #56]
 519 0024 7047     		bx	lr
 520              		.cfi_endproc
 521              	.LFE131:
 522              		.size	sdc_lld_send_cmd_none, .-sdc_lld_send_cmd_none
 523 0026 00BFAFF3 		.section	.text.sdc_lld_send_cmd_short,"ax",%progbits
 523      0080AFF3 
 523      0080
 524              		.align	2
 525              		.p2align 4,,15
 526              		.global	sdc_lld_send_cmd_short
 527              		.thumb
 528              		.thumb_func
 529              		.type	sdc_lld_send_cmd_short, %function
 530              	sdc_lld_send_cmd_short:
 531              	.LFB132:
 532              		.loc 1 490 0
 533              		.cfi_startproc
 534              		@ args = 0, pretend = 0, frame = 0
 535              		@ frame_needed = 0, uses_anonymous_args = 0
 536              	.LVL44:
 537 0000 10B5     		push	{r4, lr}
 538              	.LCFI4:
 539              		.cfi_def_cfa_offset 8
 540              		.cfi_offset 4, -8
 541              		.cfi_offset 14, -4
 542              		.loc 1 495 0
 543 0002 4FF43054 		mov	r4, #11264
 544 0006 C4F20104 		movt	r4, 16385
 545              		.loc 1 496 0
 546 000a 41F48861 		orr	r1, r1, #1088
 547              	.LVL45:
 548              		.loc 1 495 0
 549 000e A260     		str	r2, [r4, #8]
 550              		.loc 1 496 0
 551 0010 E160     		str	r1, [r4, #12]
 552              	.LVL46:
 553              	.L62:
 554              		.loc 1 497 0 discriminator 1
 555 0012 616B     		ldr	r1, [r4, #52]
 556              	.LVL47:
 557 0014 4FF43052 		mov	r2, #11264
 558 0018 11F0450F 		tst	r1, #69
ARM GAS  C:\Users\Matuesz\AppData\Local\Temp\ccy2g9Gf.s 			page 11


 559 001c C4F20102 		movt	r2, 16385
 560 0020 F7D0     		beq	.L62
 561              		.loc 1 501 0
 562 0022 11F00404 		ands	r4, r1, #4
 563              	.LVL48:
 564              		.loc 1 500 0
 565 0026 9163     		str	r1, [r2, #56]
 566              		.loc 1 501 0
 567 0028 03D1     		bne	.L69
 568              		.loc 1 505 0
 569 002a 5169     		ldr	r1, [r2, #20]
 570              	.LVL49:
 571              		.loc 1 506 0
 572 002c 2046     		mov	r0, r4
 573              	.LVL50:
 574              		.loc 1 505 0
 575 002e 1960     		str	r1, [r3, #0]
 576              		.loc 1 507 0
 577 0030 10BD     		pop	{r4, pc}
 578              	.LVL51:
 579              	.L69:
 580              		.loc 1 502 0
 581 0032 FFF7FEFF 		bl	sdc_lld_collect_errors
 582              	.LVL52:
 583              		.loc 1 503 0
 584 0036 0120     		movs	r0, #1
 585 0038 10BD     		pop	{r4, pc}
 586              		.cfi_endproc
 587              	.LFE132:
 588              		.size	sdc_lld_send_cmd_short, .-sdc_lld_send_cmd_short
 589 003a 00BFAFF3 		.section	.text.sdc_lld_send_cmd_short_crc,"ax",%progbits
 589      0080
 590              		.align	2
 591              		.p2align 4,,15
 592              		.global	sdc_lld_send_cmd_short_crc
 593              		.thumb
 594              		.thumb_func
 595              		.type	sdc_lld_send_cmd_short_crc, %function
 596              	sdc_lld_send_cmd_short_crc:
 597              	.LFB133:
 598              		.loc 1 524 0
 599              		.cfi_startproc
 600              		@ args = 0, pretend = 0, frame = 0
 601              		@ frame_needed = 0, uses_anonymous_args = 0
 602              	.LVL53:
 603 0000 10B5     		push	{r4, lr}
 604              	.LCFI5:
 605              		.cfi_def_cfa_offset 8
 606              		.cfi_offset 4, -8
 607              		.cfi_offset 14, -4
 608              		.loc 1 529 0
 609 0002 4FF43054 		mov	r4, #11264
 610 0006 C4F20104 		movt	r4, 16385
 611              		.loc 1 530 0
 612 000a 41F48861 		orr	r1, r1, #1088
 613              	.LVL54:
 614              		.loc 1 529 0
ARM GAS  C:\Users\Matuesz\AppData\Local\Temp\ccy2g9Gf.s 			page 12


 615 000e A260     		str	r2, [r4, #8]
 616              		.loc 1 530 0
 617 0010 E160     		str	r1, [r4, #12]
 618              	.LVL55:
 619              	.L71:
 620              		.loc 1 531 0 discriminator 1
 621 0012 616B     		ldr	r1, [r4, #52]
 622              	.LVL56:
 623 0014 4FF43052 		mov	r2, #11264
 624 0018 11F0450F 		tst	r1, #69
 625 001c C4F20102 		movt	r2, 16385
 626 0020 F7D0     		beq	.L71
 627              		.loc 1 535 0
 628 0022 11F00504 		ands	r4, r1, #5
 629              	.LVL57:
 630              		.loc 1 534 0
 631 0026 9163     		str	r1, [r2, #56]
 632              		.loc 1 535 0
 633 0028 03D1     		bne	.L78
 634              		.loc 1 539 0
 635 002a 5169     		ldr	r1, [r2, #20]
 636              	.LVL58:
 637              		.loc 1 540 0
 638 002c 2046     		mov	r0, r4
 639              	.LVL59:
 640              		.loc 1 539 0
 641 002e 1960     		str	r1, [r3, #0]
 642              		.loc 1 541 0
 643 0030 10BD     		pop	{r4, pc}
 644              	.LVL60:
 645              	.L78:
 646              		.loc 1 536 0
 647 0032 FFF7FEFF 		bl	sdc_lld_collect_errors
 648              	.LVL61:
 649              		.loc 1 537 0
 650 0036 0120     		movs	r0, #1
 651 0038 10BD     		pop	{r4, pc}
 652              		.cfi_endproc
 653              	.LFE133:
 654              		.size	sdc_lld_send_cmd_short_crc, .-sdc_lld_send_cmd_short_crc
 655 003a 00BFAFF3 		.section	.text.sdc_lld_wait_transaction_end,"ax",%progbits
 655      0080
 656              		.align	2
 657              		.p2align 4,,15
 658              		.thumb
 659              		.thumb_func
 660              		.type	sdc_lld_wait_transaction_end, %function
 661              	sdc_lld_wait_transaction_end:
 662              	.LFB120:
 663              		.loc 1 157 0
 664              		.cfi_startproc
 665              		@ args = 0, pretend = 0, frame = 0
 666              		@ frame_needed = 0, uses_anonymous_args = 0
 667              	.LVL62:
 668 0000 2DE9F041 		push	{r4, r5, r6, r7, r8, lr}
 669              	.LCFI6:
 670              		.cfi_def_cfa_offset 24
ARM GAS  C:\Users\Matuesz\AppData\Local\Temp\ccy2g9Gf.s 			page 13


 671              		.cfi_offset 4, -24
 672              		.cfi_offset 5, -20
 673              		.cfi_offset 6, -16
 674              		.cfi_offset 7, -12
 675              		.cfi_offset 8, -8
 676              		.cfi_offset 14, -4
 677              	.LBB16:
 678              		.loc 1 161 0
 679 0004 2023     		movs	r3, #32
 680              	.LVL63:
 681              	.LBE16:
 682              		.loc 1 157 0
 683 0006 0646     		mov	r6, r0
 684 0008 8846     		mov	r8, r1
 685 000a 1746     		mov	r7, r2
 686              	.LBB17:
 687              		.loc 1 161 0
 688              	@ 161 "../../os/hal/platforms/STM32/sdc_lld.c" 1
 689 000c 83F31188 		msr     BASEPRI, r3
 690              	@ 0 "" 2
 691              	.LVL64:
 692              		.thumb
 693              	.LBE17:
 694              		.loc 1 162 0
 695 0010 4FF43054 		mov	r4, #11264
 696 0014 C4F20104 		movt	r4, 16385
 697 0018 E36B     		ldr	r3, [r4, #60]
 698              	.LVL65:
 699 001a 002B     		cmp	r3, #0
 700 001c 33D1     		bne	.L89
 701              	.LVL66:
 702              	.L80:
 703              		.loc 1 170 0
 704 001e 4FF43052 		mov	r2, #11264
 705 0022 C4F20102 		movt	r2, 16385
 706 0026 546B     		ldr	r4, [r2, #52]
 707 0028 14F48073 		ands	r3, r4, #256
 708 002c 26D0     		beq	.L90
 709 002e 736C     		ldr	r3, [r6, #68]
 710 0030 1D68     		ldr	r5, [r3, #0]
 711              	.L83:
 712              		.loc 1 177 0 discriminator 1
 713 0032 2C68     		ldr	r4, [r5, #0]
 714 0034 14F00104 		ands	r4, r4, #1
 715 0038 FBD1     		bne	.L83
 716              		.loc 1 181 0
 717 003a 197A     		ldrb	r1, [r3, #8]	@ zero_extendqisi2
 718 003c 5B68     		ldr	r3, [r3, #4]
 719              		.loc 1 183 0
 720 003e 4FF43055 		mov	r5, #11264
 721 0042 C4F20105 		movt	r5, 16385
 722              		.loc 1 181 0
 723 0046 3D20     		movs	r0, #61
 724              		.loc 1 183 0
 725 0048 40F2FF72 		movw	r2, #2047
 726              		.loc 1 181 0
 727 004c 00FA01F1 		lsl	r1, r0, r1
ARM GAS  C:\Users\Matuesz\AppData\Local\Temp\ccy2g9Gf.s 			page 14


 728              		.loc 1 183 0
 729 0050 C0F2C002 		movt	r2, 192
 730              		.loc 1 181 0
 731 0054 1960     		str	r1, [r3, #0]
 732              		.loc 1 183 0
 733 0056 AA63     		str	r2, [r5, #56]
 734              	.LBB18:
 735              		.loc 1 185 0
 736 0058 2346     		mov	r3, r4
 737              	.LVL67:
 738              	.LBE18:
 739              		.loc 1 184 0
 740 005a EC62     		str	r4, [r5, #44]
 741              	.LBB19:
 742              		.loc 1 185 0
 743              	@ 185 "../../os/hal/platforms/STM32/sdc_lld.c" 1
 744 005c 83F31188 		msr     BASEPRI, r3
 745              	@ 0 "" 2
 746              	.LVL68:
 747              		.thumb
 748              	.LBE19:
 749              		.loc 1 201 0
 750 0060 B8F1010F 		cmp	r8, #1
 751 0064 07D9     		bls	.L84
 752              	.LVL69:
 753              	.LBB20:
 754              	.LBB21:
 755              		.loc 1 202 0
 756 0066 3046     		mov	r0, r6
 757 0068 0C21     		movs	r1, #12
 758 006a 2246     		mov	r2, r4
 759 006c 3B46     		mov	r3, r7
 760              	.LVL70:
 761              	.LBE21:
 762              	.LBE20:
 763              		.loc 1 205 0
 764 006e BDE8F041 		pop	{r4, r5, r6, r7, r8, lr}
 765              	.LBB23:
 766              	.LBB22:
 767              		.loc 1 202 0
 768 0072 FFF7FEBF 		b	sdc_lld_send_cmd_short_crc
 769              	.LVL71:
 770              	.L84:
 771              	.LBE22:
 772              	.LBE23:
 773              		.loc 1 204 0
 774 0076 2046     		mov	r0, r4
 775              		.loc 1 205 0
 776 0078 BDE8F081 		pop	{r4, r5, r6, r7, r8, pc}
 777              	.LVL72:
 778              	.L90:
 779              	.LBB24:
 780              		.loc 1 171 0
 781              	@ 171 "../../os/hal/platforms/STM32/sdc_lld.c" 1
 782 007c 83F31188 		msr     BASEPRI, r3
 783              	@ 0 "" 2
 784              	.LVL73:
ARM GAS  C:\Users\Matuesz\AppData\Local\Temp\ccy2g9Gf.s 			page 15


 785              		.thumb
 786              	.LBE24:
 787              		.loc 1 172 0
 788 0080 0120     		movs	r0, #1
 789 0082 BDE8F081 		pop	{r4, r5, r6, r7, r8, pc}
 790              	.LVL74:
 791              	.L89:
 792              		.loc 1 165 0
 793 0086 0348     		ldr	r0, .L91
 794              	.LVL75:
 795 0088 8169     		ldr	r1, [r0, #24]
 796              	.LVL76:
 797              		.loc 1 166 0
 798 008a 0220     		movs	r0, #2
 799              		.loc 1 165 0
 800 008c F163     		str	r1, [r6, #60]
 801              		.loc 1 166 0
 802 008e FFF7FEFF 		bl	chSchGoSleepS
 803              	.LVL77:
 804 0092 C4E7     		b	.L80
 805              	.L92:
 806              		.align	2
 807              	.L91:
 808 0094 00000000 		.word	rlist
 809              		.cfi_endproc
 810              	.LFE120:
 811              		.size	sdc_lld_wait_transaction_end, .-sdc_lld_wait_transaction_end
 812 0098 AFF30080 		.section	.text.sdc_lld_error_cleanup,"ax",%progbits
 812      AFF30080 
 813              		.align	2
 814              		.p2align 4,,15
 815              		.thumb
 816              		.thumb_func
 817              		.type	sdc_lld_error_cleanup, %function
 818              	sdc_lld_error_cleanup:
 819              	.LFB122:
 820              		.loc 1 247 0
 821              		.cfi_startproc
 822              		@ args = 0, pretend = 0, frame = 0
 823              		@ frame_needed = 0, uses_anonymous_args = 0
 824              	.LVL78:
 825 0000 2DE9F047 		push	{r4, r5, r6, r7, r8, r9, sl, lr}
 826              	.LCFI7:
 827              		.cfi_def_cfa_offset 32
 828              		.cfi_offset 4, -32
 829              		.cfi_offset 5, -28
 830              		.cfi_offset 6, -24
 831              		.cfi_offset 7, -20
 832              		.cfi_offset 8, -16
 833              		.cfi_offset 9, -12
 834              		.cfi_offset 10, -8
 835              		.cfi_offset 14, -4
 836              		.loc 1 250 0
 837 0004 466C     		ldr	r6, [r0, #68]
 838              		.loc 1 248 0
 839 0006 4FF43053 		mov	r3, #11264
 840              		.loc 1 250 0
ARM GAS  C:\Users\Matuesz\AppData\Local\Temp\ccy2g9Gf.s 			page 16


 841 000a 347A     		ldrb	r4, [r6, #8]	@ zero_extendqisi2
 842              		.loc 1 251 0
 843 000c 3568     		ldr	r5, [r6, #0]
 844              		.loc 1 248 0
 845 000e C4F20103 		movt	r3, 16385
 846              		.loc 1 247 0
 847 0012 0746     		mov	r7, r0
 848              		.loc 1 250 0
 849 0014 4FF03D0E 		mov	lr, #61
 850 0018 7068     		ldr	r0, [r6, #4]
 851              	.LVL79:
 852              		.loc 1 248 0
 853 001a D3F834C0 		ldr	ip, [r3, #52]
 854              	.LVL80:
 855              		.loc 1 250 0
 856 001e 0EFA04F4 		lsl	r4, lr, r4
 857 0022 0460     		str	r4, [r0, #0]
 858              		.loc 1 251 0
 859 0024 2B68     		ldr	r3, [r5, #0]
 860 0026 23F01F04 		bic	r4, r3, #31
 861              		.loc 1 247 0
 862 002a 8946     		mov	r9, r1
 863 002c 9046     		mov	r8, r2
 864              		.loc 1 251 0
 865 002e 2C60     		str	r4, [r5, #0]
 866              	.LVL81:
 867              	.L94:
 868              		.loc 1 251 0 is_stmt 0 discriminator 1
 869 0030 2968     		ldr	r1, [r5, #0]
 870 0032 11F00104 		ands	r4, r1, #1
 871 0036 FBD1     		bne	.L94
 872              		.loc 1 251 0 discriminator 2
 873 0038 327A     		ldrb	r2, [r6, #8]	@ zero_extendqisi2
 874              	.LVL82:
 875              		.loc 1 252 0 is_stmt 1 discriminator 2
 876 003a 4FF43055 		mov	r5, #11264
 877 003e C4F20105 		movt	r5, 16385
 878              		.loc 1 251 0 discriminator 2
 879 0042 3D21     		movs	r1, #61
 880              		.loc 1 252 0 discriminator 2
 881 0044 40F2FF73 		movw	r3, #2047
 882              		.loc 1 251 0 discriminator 2
 883 0048 01FA02F2 		lsl	r2, r1, r2
 884              		.loc 1 252 0 discriminator 2
 885 004c C0F2C003 		movt	r3, 192
 886              		.loc 1 251 0 discriminator 2
 887 0050 0260     		str	r2, [r0, #0]
 888              		.loc 1 255 0 discriminator 2
 889 0052 6146     		mov	r1, ip
 890              		.loc 1 252 0 discriminator 2
 891 0054 AB63     		str	r3, [r5, #56]
 892              		.loc 1 255 0 discriminator 2
 893 0056 3846     		mov	r0, r7
 894              		.loc 1 253 0 discriminator 2
 895 0058 EC63     		str	r4, [r5, #60]
 896              		.loc 1 254 0 discriminator 2
 897 005a EC62     		str	r4, [r5, #44]
ARM GAS  C:\Users\Matuesz\AppData\Local\Temp\ccy2g9Gf.s 			page 17


 898              		.loc 1 255 0 discriminator 2
 899 005c FFF7FEFF 		bl	sdc_lld_collect_errors
 900              	.LVL83:
 901              		.loc 1 256 0 discriminator 2
 902 0060 B9F1010F 		cmp	r9, #1
 903 0064 07D9     		bls	.L93
 904              	.LVL84:
 905              	.LBB27:
 906              	.LBB28:
 907              		.loc 1 257 0
 908 0066 3846     		mov	r0, r7
 909 0068 0C21     		movs	r1, #12
 910 006a 2246     		mov	r2, r4
 911 006c 4346     		mov	r3, r8
 912              	.LBE28:
 913              	.LBE27:
 914              		.loc 1 258 0
 915 006e BDE8F047 		pop	{r4, r5, r6, r7, r8, r9, sl, lr}
 916              	.LBB30:
 917              	.LBB29:
 918              		.loc 1 257 0
 919 0072 FFF7FEBF 		b	sdc_lld_send_cmd_short_crc
 920              	.LVL85:
 921              	.L93:
 922 0076 BDE8F087 		pop	{r4, r5, r6, r7, r8, r9, sl, pc}
 923              	.LBE29:
 924              	.LBE30:
 925              		.cfi_endproc
 926              	.LFE122:
 927              		.size	sdc_lld_error_cleanup, .-sdc_lld_error_cleanup
 928 007a 00BFAFF3 		.section	.text.sdc_lld_send_cmd_long_crc,"ax",%progbits
 928      0080
 929              		.align	2
 930              		.p2align 4,,15
 931              		.global	sdc_lld_send_cmd_long_crc
 932              		.thumb
 933              		.thumb_func
 934              		.type	sdc_lld_send_cmd_long_crc, %function
 935              	sdc_lld_send_cmd_long_crc:
 936              	.LFB134:
 937              		.loc 1 558 0
 938              		.cfi_startproc
 939              		@ args = 0, pretend = 0, frame = 0
 940              		@ frame_needed = 0, uses_anonymous_args = 0
 941              	.LVL86:
 942 0000 10B5     		push	{r4, lr}
 943              	.LCFI8:
 944              		.cfi_def_cfa_offset 8
 945              		.cfi_offset 4, -8
 946              		.cfi_offset 14, -4
 947              		.loc 1 563 0
 948 0002 4FF43054 		mov	r4, #11264
 949 0006 C4F20104 		movt	r4, 16385
 950              		.loc 1 564 0
 951 000a 41F49861 		orr	r1, r1, #1216
 952              	.LVL87:
 953              		.loc 1 563 0
ARM GAS  C:\Users\Matuesz\AppData\Local\Temp\ccy2g9Gf.s 			page 18


 954 000e A260     		str	r2, [r4, #8]
 955              		.loc 1 564 0
 956 0010 E160     		str	r1, [r4, #12]
 957              	.LVL88:
 958              	.L98:
 959              		.loc 1 566 0 discriminator 1
 960 0012 616B     		ldr	r1, [r4, #52]
 961              	.LVL89:
 962 0014 4FF43052 		mov	r2, #11264
 963 0018 11F0450F 		tst	r1, #69
 964 001c C4F20102 		movt	r2, 16385
 965 0020 F7D0     		beq	.L98
 966              		.loc 1 570 0
 967 0022 11F03F04 		ands	r4, r1, #63
 968              	.LVL90:
 969              		.loc 1 569 0
 970 0026 9163     		str	r1, [r2, #56]
 971              		.loc 1 570 0
 972 0028 09D1     		bne	.L105
 973              		.loc 1 575 0
 974 002a 106A     		ldr	r0, [r2, #32]
 975              	.LVL91:
 976 002c 1860     		str	r0, [r3, #0]
 977              	.LVL92:
 978              		.loc 1 576 0
 979 002e D169     		ldr	r1, [r2, #28]
 980              	.LVL93:
 981 0030 5960     		str	r1, [r3, #4]
 982              	.LVL94:
 983              		.loc 1 577 0
 984 0032 9069     		ldr	r0, [r2, #24]
 985 0034 9860     		str	r0, [r3, #8]
 986              	.LVL95:
 987              		.loc 1 578 0
 988 0036 5269     		ldr	r2, [r2, #20]
 989              	.LVL96:
 990              		.loc 1 579 0
 991 0038 2046     		mov	r0, r4
 992              		.loc 1 578 0
 993 003a DA60     		str	r2, [r3, #12]
 994              		.loc 1 580 0
 995 003c 10BD     		pop	{r4, pc}
 996              	.LVL97:
 997              	.L105:
 998              		.loc 1 571 0
 999 003e FFF7FEFF 		bl	sdc_lld_collect_errors
 1000              	.LVL98:
 1001              		.loc 1 572 0
 1002 0042 0120     		movs	r0, #1
 1003 0044 10BD     		pop	{r4, pc}
 1004              		.cfi_endproc
 1005              	.LFE134:
 1006              		.size	sdc_lld_send_cmd_long_crc, .-sdc_lld_send_cmd_long_crc
 1007 0046 00BFAFF3 		.section	.text.sdc_lld_read_aligned,"ax",%progbits
 1007      0080AFF3 
 1007      0080
 1008              		.align	2
ARM GAS  C:\Users\Matuesz\AppData\Local\Temp\ccy2g9Gf.s 			page 19


 1009              		.p2align 4,,15
 1010              		.global	sdc_lld_read_aligned
 1011              		.thumb
 1012              		.thumb_func
 1013              		.type	sdc_lld_read_aligned, %function
 1014              	sdc_lld_read_aligned:
 1015              	.LFB135:
 1016              		.loc 1 597 0
 1017              		.cfi_startproc
 1018              		@ args = 0, pretend = 0, frame = 8
 1019              		@ frame_needed = 0, uses_anonymous_args = 0
 1020              	.LVL99:
 1021 0000 2DE9F041 		push	{r4, r5, r6, r7, r8, lr}
 1022              	.LCFI9:
 1023              		.cfi_def_cfa_offset 24
 1024              		.cfi_offset 4, -24
 1025              		.cfi_offset 5, -20
 1026              		.cfi_offset 6, -16
 1027              		.cfi_offset 7, -12
 1028              		.cfi_offset 8, -8
 1029              		.cfi_offset 14, -4
 1030              		.loc 1 602 0
 1031 0004 4FF43054 		mov	r4, #11264
 1032 0008 C4F20104 		movt	r4, 16385
 1033 000c 4FF41F55 		mov	r5, #10176
 1034 0010 C0F20905 		movt	r5, 9
 1035              		.loc 1 597 0
 1036 0014 82B0     		sub	sp, sp, #8
 1037              	.LCFI10:
 1038              		.cfi_def_cfa_offset 32
 1039              		.loc 1 602 0
 1040 0016 6562     		str	r5, [r4, #36]
 1041              		.loc 1 597 0
 1042 0018 0F46     		mov	r7, r1
 1043 001a 0546     		mov	r5, r0
 1044 001c 9046     		mov	r8, r2
 1045 001e 1E46     		mov	r6, r3
 1046              		.loc 1 605 0
 1047 0020 FFF7FEFF 		bl	_sdc_wait_for_transfer_state
 1048              	.LVL100:
 1049 0024 18B1     		cbz	r0, .L117
 1050              		.loc 1 606 0
 1051 0026 0120     		movs	r0, #1
 1052              	.LVL101:
 1053              	.L115:
 1054              		.loc 1 642 0
 1055 0028 02B0     		add	sp, sp, #8
 1056 002a BDE8F081 		pop	{r4, r5, r6, r7, r8, pc}
 1057              	.LVL102:
 1058              	.L117:
 1059              	.LBB35:
 1060              	.LBB36:
 1061              		.loc 1 609 0
 1062 002e 6B6C     		ldr	r3, [r5, #68]
 1063              		.loc 1 612 0
 1064 0030 2A6C     		ldr	r2, [r5, #64]
 1065              		.loc 1 609 0
ARM GAS  C:\Users\Matuesz\AppData\Local\Temp\ccy2g9Gf.s 			page 20


 1066 0032 1868     		ldr	r0, [r3, #0]
 1067              		.loc 1 610 0
 1068 0034 7302     		lsls	r3, r6, #9
 1069 0036 9908     		lsrs	r1, r3, #2
 1070              		.loc 1 609 0
 1071 0038 C0F80C80 		str	r8, [r0, #12]
 1072              		.loc 1 610 0
 1073 003c 4160     		str	r1, [r0, #4]
 1074              		.loc 1 612 0
 1075 003e 0260     		str	r2, [r0, #0]
 1076              		.loc 1 613 0
 1077 0040 0168     		ldr	r1, [r0, #0]
 1078              		.loc 1 616 0
 1079 0042 40F2FF72 		movw	r2, #2047
 1080              		.loc 1 613 0
 1081 0046 41F00101 		orr	r1, r1, #1
 1082 004a 0160     		str	r1, [r0, #0]
 1083              		.loc 1 616 0
 1084 004c C0F2C002 		movt	r2, 192
 1085              		.loc 1 617 0
 1086 0050 40F22A30 		movw	r0, #810
 1087              		.loc 1 616 0
 1088 0054 A263     		str	r2, [r4, #56]
 1089              		.loc 1 617 0
 1090 0056 E063     		str	r0, [r4, #60]
 1091              		.loc 1 622 0
 1092 0058 A362     		str	r3, [r4, #40]
 1093              		.loc 1 625 0
 1094 005a 9B23     		movs	r3, #155
 1095 005c E362     		str	r3, [r4, #44]
 1096              	.LVL103:
 1097              	.LBB37:
 1098              	.LBB38:
 1099              		.loc 1 88 0
 1100 005e 2C6B     		ldr	r4, [r5, #48]
 1101 0060 E306     		lsls	r3, r4, #27
 1102              		.loc 1 89 0
 1103 0062 58BF     		it	pl
 1104 0064 7F02     		lslpl	r7, r7, #9
 1105              	.LVL104:
 1106              		.loc 1 91 0
 1107 0066 012E     		cmp	r6, #1
 1108              		.loc 1 632 0
 1109 0068 01AC     		add	r4, sp, #4
 1110              	.LVL105:
 1111              		.loc 1 93 0
 1112 006a 2846     		mov	r0, r5
 1113              		.loc 1 91 0
 1114 006c 1AD9     		bls	.L109
 1115              	.LVL106:
 1116              		.loc 1 93 0
 1117 006e 1221     		movs	r1, #18
 1118 0070 3A46     		mov	r2, r7
 1119 0072 2346     		mov	r3, r4
 1120 0074 FFF7FEFF 		bl	sdc_lld_send_cmd_short_crc
 1121              	.LVL107:
 1122 0078 68B9     		cbnz	r0, .L112
ARM GAS  C:\Users\Matuesz\AppData\Local\Temp\ccy2g9Gf.s 			page 21


 1123              	.L116:
 1124              		.loc 1 100 0
 1125 007a 4EF20801 		movw	r1, #57352
 1126 007e 019A     		ldr	r2, [sp, #4]
 1127 0080 CFF6FF51 		movt	r1, 65023
 1128 0084 1140     		ands	r1, r1, r2
 1129 0086 31B9     		cbnz	r1, .L112
 1130              	.LBE38:
 1131              	.LBE37:
 1132              		.loc 1 634 0
 1133 0088 2846     		mov	r0, r5
 1134 008a 3146     		mov	r1, r6
 1135 008c 2246     		mov	r2, r4
 1136 008e FFF7FEFF 		bl	sdc_lld_wait_transaction_end
 1137              	.LVL108:
 1138 0092 0028     		cmp	r0, #0
 1139 0094 C8D0     		beq	.L115
 1140              	.L112:
 1141              		.loc 1 640 0
 1142 0096 2846     		mov	r0, r5
 1143 0098 3146     		mov	r1, r6
 1144 009a 2246     		mov	r2, r4
 1145 009c FFF7FEFF 		bl	sdc_lld_error_cleanup
 1146              	.LVL109:
 1147              		.loc 1 641 0
 1148 00a0 0120     		movs	r0, #1
 1149 00a2 C1E7     		b	.L115
 1150              	.LVL110:
 1151              	.L109:
 1152              	.LBB40:
 1153              	.LBB39:
 1154              		.loc 1 99 0
 1155 00a4 1121     		movs	r1, #17
 1156 00a6 3A46     		mov	r2, r7
 1157 00a8 2346     		mov	r3, r4
 1158 00aa FFF7FEFF 		bl	sdc_lld_send_cmd_short_crc
 1159              	.LVL111:
 1160 00ae 0028     		cmp	r0, #0
 1161 00b0 E3D0     		beq	.L116
 1162 00b2 F0E7     		b	.L112
 1163              	.LBE39:
 1164              	.LBE40:
 1165              	.LBE36:
 1166              	.LBE35:
 1167              		.cfi_endproc
 1168              	.LFE135:
 1169              		.size	sdc_lld_read_aligned, .-sdc_lld_read_aligned
 1170 00b4 AFF30080 		.section	.text.sdc_lld_write_aligned,"ax",%progbits
 1170      AFF30080 
 1170      AFF30080 
 1171              		.align	2
 1172              		.p2align 4,,15
 1173              		.global	sdc_lld_write_aligned
 1174              		.thumb
 1175              		.thumb_func
 1176              		.type	sdc_lld_write_aligned, %function
 1177              	sdc_lld_write_aligned:
ARM GAS  C:\Users\Matuesz\AppData\Local\Temp\ccy2g9Gf.s 			page 22


 1178              	.LFB136:
 1179              		.loc 1 659 0
 1180              		.cfi_startproc
 1181              		@ args = 0, pretend = 0, frame = 8
 1182              		@ frame_needed = 0, uses_anonymous_args = 0
 1183              	.LVL112:
 1184 0000 2DE9F041 		push	{r4, r5, r6, r7, r8, lr}
 1185              	.LCFI11:
 1186              		.cfi_def_cfa_offset 24
 1187              		.cfi_offset 4, -24
 1188              		.cfi_offset 5, -20
 1189              		.cfi_offset 6, -16
 1190              		.cfi_offset 7, -12
 1191              		.cfi_offset 8, -8
 1192              		.cfi_offset 14, -4
 1193              		.loc 1 664 0
 1194 0004 4FF43054 		mov	r4, #11264
 1195 0008 C4F20104 		movt	r4, 16385
 1196 000c 48F68055 		movw	r5, #36224
 1197 0010 C0F25B05 		movt	r5, 91
 1198              		.loc 1 659 0
 1199 0014 82B0     		sub	sp, sp, #8
 1200              	.LCFI12:
 1201              		.cfi_def_cfa_offset 32
 1202              		.loc 1 664 0
 1203 0016 6562     		str	r5, [r4, #36]
 1204              		.loc 1 659 0
 1205 0018 0F46     		mov	r7, r1
 1206 001a 0546     		mov	r5, r0
 1207 001c 9046     		mov	r8, r2
 1208 001e 1E46     		mov	r6, r3
 1209              		.loc 1 667 0
 1210 0020 FFF7FEFF 		bl	_sdc_wait_for_transfer_state
 1211              	.LVL113:
 1212 0024 18B1     		cbz	r0, .L129
 1213              		.loc 1 668 0
 1214 0026 0120     		movs	r0, #1
 1215              	.LVL114:
 1216              	.L127:
 1217              		.loc 1 703 0
 1218 0028 02B0     		add	sp, sp, #8
 1219 002a BDE8F081 		pop	{r4, r5, r6, r7, r8, pc}
 1220              	.LVL115:
 1221              	.L129:
 1222              	.LBB45:
 1223              	.LBB46:
 1224              		.loc 1 671 0
 1225 002e 6B6C     		ldr	r3, [r5, #68]
 1226              		.loc 1 674 0
 1227 0030 2A6C     		ldr	r2, [r5, #64]
 1228              		.loc 1 671 0
 1229 0032 1868     		ldr	r0, [r3, #0]
 1230              		.loc 1 672 0
 1231 0034 7302     		lsls	r3, r6, #9
 1232 0036 9908     		lsrs	r1, r3, #2
 1233              		.loc 1 674 0
 1234 0038 42F04002 		orr	r2, r2, #64
ARM GAS  C:\Users\Matuesz\AppData\Local\Temp\ccy2g9Gf.s 			page 23


 1235              		.loc 1 671 0
 1236 003c C0F80C80 		str	r8, [r0, #12]
 1237              		.loc 1 672 0
 1238 0040 4160     		str	r1, [r0, #4]
 1239              		.loc 1 674 0
 1240 0042 0260     		str	r2, [r0, #0]
 1241              		.loc 1 675 0
 1242 0044 0168     		ldr	r1, [r0, #0]
 1243              		.loc 1 678 0
 1244 0046 40F2FF72 		movw	r2, #2047
 1245              		.loc 1 675 0
 1246 004a 41F00101 		orr	r1, r1, #1
 1247 004e 0160     		str	r1, [r0, #0]
 1248              		.loc 1 678 0
 1249 0050 C0F2C002 		movt	r2, 192
 1250              		.loc 1 679 0
 1251 0054 40F21A30 		movw	r0, #794
 1252              		.loc 1 678 0
 1253 0058 A263     		str	r2, [r4, #56]
 1254              		.loc 1 679 0
 1255 005a E063     		str	r0, [r4, #60]
 1256              		.loc 1 684 0
 1257 005c A362     		str	r3, [r4, #40]
 1258              	.LVL116:
 1259              	.LBB47:
 1260              	.LBB48:
 1261              		.loc 1 126 0
 1262 005e 2C6B     		ldr	r4, [r5, #48]
 1263 0060 E306     		lsls	r3, r4, #27
 1264              		.loc 1 127 0
 1265 0062 58BF     		it	pl
 1266 0064 7F02     		lslpl	r7, r7, #9
 1267              	.LVL117:
 1268              		.loc 1 129 0
 1269 0066 012E     		cmp	r6, #1
 1270              		.loc 1 687 0
 1271 0068 01AC     		add	r4, sp, #4
 1272              	.LVL118:
 1273              		.loc 1 131 0
 1274 006a 2846     		mov	r0, r5
 1275              		.loc 1 129 0
 1276 006c 20D9     		bls	.L121
 1277              	.LVL119:
 1278              		.loc 1 131 0
 1279 006e 1921     		movs	r1, #25
 1280 0070 3A46     		mov	r2, r7
 1281 0072 2346     		mov	r3, r4
 1282 0074 FFF7FEFF 		bl	sdc_lld_send_cmd_short_crc
 1283              	.LVL120:
 1284 0078 98B9     		cbnz	r0, .L124
 1285              	.L128:
 1286              		.loc 1 138 0
 1287 007a 4EF20803 		movw	r3, #57352
 1288 007e 019A     		ldr	r2, [sp, #4]
 1289 0080 CFF6FF53 		movt	r3, 65023
 1290 0084 1340     		ands	r3, r3, r2
 1291 0086 63B9     		cbnz	r3, .L124
ARM GAS  C:\Users\Matuesz\AppData\Local\Temp\ccy2g9Gf.s 			page 24


 1292              	.LBE48:
 1293              	.LBE47:
 1294              		.loc 1 691 0
 1295 0088 4FF43051 		mov	r1, #11264
 1296 008c C4F20101 		movt	r1, 16385
 1297 0090 9920     		movs	r0, #153
 1298 0092 C862     		str	r0, [r1, #44]
 1299              		.loc 1 695 0
 1300 0094 2246     		mov	r2, r4
 1301 0096 2846     		mov	r0, r5
 1302 0098 3146     		mov	r1, r6
 1303 009a FFF7FEFF 		bl	sdc_lld_wait_transaction_end
 1304              	.LVL121:
 1305 009e 0028     		cmp	r0, #0
 1306 00a0 C2D0     		beq	.L127
 1307              	.L124:
 1308              		.loc 1 701 0
 1309 00a2 2846     		mov	r0, r5
 1310 00a4 3146     		mov	r1, r6
 1311 00a6 2246     		mov	r2, r4
 1312 00a8 FFF7FEFF 		bl	sdc_lld_error_cleanup
 1313              	.LVL122:
 1314              		.loc 1 702 0
 1315 00ac 0120     		movs	r0, #1
 1316 00ae BBE7     		b	.L127
 1317              	.LVL123:
 1318              	.L121:
 1319              	.LBB50:
 1320              	.LBB49:
 1321              		.loc 1 137 0
 1322 00b0 1821     		movs	r1, #24
 1323 00b2 3A46     		mov	r2, r7
 1324 00b4 2346     		mov	r3, r4
 1325 00b6 FFF7FEFF 		bl	sdc_lld_send_cmd_short_crc
 1326              	.LVL124:
 1327 00ba 0028     		cmp	r0, #0
 1328 00bc DDD0     		beq	.L128
 1329 00be F0E7     		b	.L124
 1330              	.LBE49:
 1331              	.LBE50:
 1332              	.LBE46:
 1333              	.LBE45:
 1334              		.cfi_endproc
 1335              	.LFE136:
 1336              		.size	sdc_lld_write_aligned, .-sdc_lld_write_aligned
 1337              		.section	.text.sdc_lld_read,"ax",%progbits
 1338              		.align	2
 1339              		.p2align 4,,15
 1340              		.global	sdc_lld_read
 1341              		.thumb
 1342              		.thumb_func
 1343              		.type	sdc_lld_read, %function
 1344              	sdc_lld_read:
 1345              	.LFB137:
 1346              		.loc 1 720 0
 1347              		.cfi_startproc
 1348              		@ args = 0, pretend = 0, frame = 0
ARM GAS  C:\Users\Matuesz\AppData\Local\Temp\ccy2g9Gf.s 			page 25


 1349              		@ frame_needed = 0, uses_anonymous_args = 0
 1350              	.LVL125:
 1351              		.loc 1 723 0
 1352 0000 12F0030F 		tst	r2, #3
 1353              		.loc 1 720 0
 1354 0004 2DE9F047 		push	{r4, r5, r6, r7, r8, r9, sl, lr}
 1355              	.LCFI13:
 1356              		.cfi_def_cfa_offset 32
 1357              		.cfi_offset 4, -32
 1358              		.cfi_offset 5, -28
 1359              		.cfi_offset 6, -24
 1360              		.cfi_offset 7, -20
 1361              		.cfi_offset 8, -16
 1362              		.cfi_offset 9, -12
 1363              		.cfi_offset 10, -8
 1364              		.cfi_offset 14, -4
 1365              		.loc 1 720 0
 1366 0008 1546     		mov	r5, r2
 1367 000a 8046     		mov	r8, r0
 1368 000c 0C46     		mov	r4, r1
 1369 000e 1E46     		mov	r6, r3
 1370              		.loc 1 723 0
 1371 0010 52D0     		beq	.L131
 1372              	.LVL126:
 1373              	.LBB51:
 1374              		.loc 1 725 0 discriminator 1
 1375 0012 002B     		cmp	r3, #0
 1376 0014 4DD0     		beq	.L135
 1377              		.loc 1 719 0
 1378 0016 03EB0109 		add	r9, r3, r1
 1379 001a CE43     		mvns	r6, r1
 1380 001c 4E44     		add	r6, r6, r9
 1381              		.loc 1 726 0
 1382 001e 0123     		movs	r3, #1
 1383              	.LVL127:
 1384 0020 274A     		ldr	r2, .L147
 1385              	.LVL128:
 1386 0022 1E40     		ands	r6, r6, r3
 1387 0024 FFF7FEFF 		bl	sdc_lld_read_aligned
 1388              	.LVL129:
 1389 0028 0028     		cmp	r0, #0
 1390 002a 3FD1     		bne	.L136
 1391              		.loc 1 728 0
 1392 002c 2846     		mov	r0, r5
 1393 002e 2449     		ldr	r1, .L147
 1394 0030 4FF40072 		mov	r2, #512
 1395              		.loc 1 730 0
 1396 0034 0134     		adds	r4, r4, #1
 1397              	.LVL130:
 1398              		.loc 1 728 0
 1399 0036 FFF7FEFF 		bl	memcpy
 1400              	.LVL131:
 1401              		.loc 1 725 0
 1402 003a 4C45     		cmp	r4, r9
 1403              		.loc 1 729 0
 1404 003c 05F50075 		add	r5, r5, #512
 1405              	.LVL132:
ARM GAS  C:\Users\Matuesz\AppData\Local\Temp\ccy2g9Gf.s 			page 26


 1406              		.loc 1 725 0
 1407 0040 37D0     		beq	.L135
 1408 0042 2EB3     		cbz	r6, .L134
 1409              		.loc 1 726 0
 1410 0044 4046     		mov	r0, r8
 1411 0046 2146     		mov	r1, r4
 1412 0048 1D4A     		ldr	r2, .L147
 1413 004a 0123     		movs	r3, #1
 1414 004c FFF7FEFF 		bl	sdc_lld_read_aligned
 1415              	.LVL133:
 1416 0050 60BB     		cbnz	r0, .L136
 1417              		.loc 1 728 0
 1418 0052 2846     		mov	r0, r5
 1419 0054 1A49     		ldr	r1, .L147
 1420 0056 4FF40072 		mov	r2, #512
 1421              		.loc 1 730 0
 1422 005a 0134     		adds	r4, r4, #1
 1423              	.LVL134:
 1424              		.loc 1 728 0
 1425 005c FFF7FEFF 		bl	memcpy
 1426              	.LVL135:
 1427              		.loc 1 725 0
 1428 0060 4C45     		cmp	r4, r9
 1429              		.loc 1 729 0
 1430 0062 05F50075 		add	r5, r5, #512
 1431              	.LVL136:
 1432              		.loc 1 725 0
 1433 0066 13D1     		bne	.L134
 1434 0068 23E0     		b	.L135
 1435              	.L146:
 1436              		.loc 1 728 0
 1437 006a 2846     		mov	r0, r5
 1438 006c FFF7FEFF 		bl	memcpy
 1439              	.LVL137:
 1440              		.loc 1 726 0
 1441 0070 3146     		mov	r1, r6
 1442 0072 134A     		ldr	r2, .L147
 1443 0074 0123     		movs	r3, #1
 1444 0076 4046     		mov	r0, r8
 1445 0078 FFF7FEFF 		bl	sdc_lld_read_aligned
 1446              	.LVL138:
 1447              		.loc 1 728 0
 1448 007c 4FF40072 		mov	r2, #512
 1449 0080 0F49     		ldr	r1, .L147
 1450              		.loc 1 729 0
 1451 0082 BD18     		adds	r5, r7, r2
 1452              		.loc 1 726 0
 1453 0084 90B9     		cbnz	r0, .L136
 1454              		.loc 1 728 0
 1455 0086 3846     		mov	r0, r7
 1456 0088 FFF7FEFF 		bl	memcpy
 1457              	.LVL139:
 1458              		.loc 1 725 0
 1459 008c 4C45     		cmp	r4, r9
 1460 008e 10D0     		beq	.L135
 1461              	.L134:
 1462              		.loc 1 726 0
ARM GAS  C:\Users\Matuesz\AppData\Local\Temp\ccy2g9Gf.s 			page 27


 1463 0090 2146     		mov	r1, r4
 1464 0092 0123     		movs	r3, #1
 1465 0094 0A4A     		ldr	r2, .L147
 1466              		.loc 1 730 0
 1467 0096 661C     		adds	r6, r4, #1
 1468              		.loc 1 726 0
 1469 0098 4046     		mov	r0, r8
 1470              		.loc 1 730 0
 1471 009a F418     		adds	r4, r6, r3
 1472              		.loc 1 726 0
 1473 009c FFF7FEFF 		bl	sdc_lld_read_aligned
 1474              	.LVL140:
 1475              		.loc 1 728 0
 1476 00a0 4FF40072 		mov	r2, #512
 1477 00a4 0649     		ldr	r1, .L147
 1478              		.loc 1 729 0
 1479 00a6 AF18     		adds	r7, r5, r2
 1480              		.loc 1 726 0
 1481 00a8 0028     		cmp	r0, #0
 1482 00aa DED0     		beq	.L146
 1483              	.L136:
 1484              		.loc 1 727 0
 1485 00ac 0120     		movs	r0, #1
 1486              	.LBE51:
 1487              		.loc 1 736 0
 1488 00ae BDE8F087 		pop	{r4, r5, r6, r7, r8, r9, sl, pc}
 1489              	.L135:
 1490              	.LBB52:
 1491              		.loc 1 732 0
 1492 00b2 0020     		movs	r0, #0
 1493 00b4 BDE8F087 		pop	{r4, r5, r6, r7, r8, r9, sl, pc}
 1494              	.LVL141:
 1495              	.L131:
 1496              	.LBE52:
 1497              		.loc 1 736 0
 1498 00b8 BDE8F047 		pop	{r4, r5, r6, r7, r8, r9, sl, lr}
 1499              		.loc 1 735 0
 1500 00bc FFF7FEBF 		b	sdc_lld_read_aligned
 1501              	.LVL142:
 1502              	.L148:
 1503              		.align	2
 1504              	.L147:
 1505 00c0 00000000 		.word	.LANCHOR1
 1506              		.cfi_endproc
 1507              	.LFE137:
 1508              		.size	sdc_lld_read, .-sdc_lld_read
 1509 00c4 AFF30080 		.section	.text.sdc_lld_write,"ax",%progbits
 1509      AFF30080 
 1509      AFF30080 
 1510              		.align	2
 1511              		.p2align 4,,15
 1512              		.global	sdc_lld_write
 1513              		.thumb
 1514              		.thumb_func
 1515              		.type	sdc_lld_write, %function
 1516              	sdc_lld_write:
 1517              	.LFB138:
ARM GAS  C:\Users\Matuesz\AppData\Local\Temp\ccy2g9Gf.s 			page 28


 1518              		.loc 1 753 0
 1519              		.cfi_startproc
 1520              		@ args = 0, pretend = 0, frame = 0
 1521              		@ frame_needed = 0, uses_anonymous_args = 0
 1522              	.LVL143:
 1523              		.loc 1 756 0
 1524 0000 12F0030F 		tst	r2, #3
 1525              		.loc 1 753 0
 1526 0004 2DE9F041 		push	{r4, r5, r6, r7, r8, lr}
 1527              	.LCFI14:
 1528              		.cfi_def_cfa_offset 24
 1529              		.cfi_offset 4, -24
 1530              		.cfi_offset 5, -20
 1531              		.cfi_offset 6, -16
 1532              		.cfi_offset 7, -12
 1533              		.cfi_offset 8, -8
 1534              		.cfi_offset 14, -4
 1535              		.loc 1 753 0
 1536 0008 1546     		mov	r5, r2
 1537 000a 0746     		mov	r7, r0
 1538 000c 0C46     		mov	r4, r1
 1539 000e 1E46     		mov	r6, r3
 1540              		.loc 1 756 0
 1541 0010 57D0     		beq	.L150
 1542              	.LVL144:
 1543              	.LBB53:
 1544              		.loc 1 758 0 discriminator 1
 1545 0012 002B     		cmp	r3, #0
 1546 0014 52D0     		beq	.L154
 1547              		.loc 1 752 0
 1548 0016 03EB0108 		add	r8, r3, r1
 1549              		.loc 1 759 0
 1550 001a 2C48     		ldr	r0, .L166
 1551              	.LVL145:
 1552 001c CB43     		mvns	r3, r1
 1553              	.LVL146:
 1554 001e 1146     		mov	r1, r2
 1555              	.LVL147:
 1556 0020 4FF40072 		mov	r2, #512
 1557              	.LVL148:
 1558 0024 03EB0806 		add	r6, r3, r8
 1559              	.LVL149:
 1560 0028 FFF7FEFF 		bl	memcpy
 1561              	.LVL150:
 1562              		.loc 1 761 0
 1563 002c 3846     		mov	r0, r7
 1564 002e 2146     		mov	r1, r4
 1565 0030 264A     		ldr	r2, .L166
 1566 0032 0123     		movs	r3, #1
 1567 0034 06F00106 		and	r6, r6, #1
 1568              		.loc 1 760 0
 1569 0038 05F50075 		add	r5, r5, #512
 1570              	.LVL151:
 1571              		.loc 1 761 0
 1572 003c FFF7FEFF 		bl	sdc_lld_write_aligned
 1573              	.LVL152:
 1574 0040 0028     		cmp	r0, #0
ARM GAS  C:\Users\Matuesz\AppData\Local\Temp\ccy2g9Gf.s 			page 29


 1575 0042 38D1     		bne	.L155
 1576              		.loc 1 763 0
 1577 0044 0134     		adds	r4, r4, #1
 1578              	.LVL153:
 1579              		.loc 1 758 0
 1580 0046 4445     		cmp	r4, r8
 1581 0048 38D0     		beq	.L154
 1582 004a F6B1     		cbz	r6, .L153
 1583              		.loc 1 759 0
 1584 004c 2946     		mov	r1, r5
 1585 004e 4FF40072 		mov	r2, #512
 1586 0052 1E48     		ldr	r0, .L166
 1587 0054 FFF7FEFF 		bl	memcpy
 1588              	.LVL154:
 1589              		.loc 1 761 0
 1590 0058 3846     		mov	r0, r7
 1591 005a 2146     		mov	r1, r4
 1592 005c 1B4A     		ldr	r2, .L166
 1593 005e 0123     		movs	r3, #1
 1594              		.loc 1 760 0
 1595 0060 05F50075 		add	r5, r5, #512
 1596              		.loc 1 761 0
 1597 0064 FFF7FEFF 		bl	sdc_lld_write_aligned
 1598              	.LVL155:
 1599 0068 28BB     		cbnz	r0, .L155
 1600              		.loc 1 763 0
 1601 006a 0134     		adds	r4, r4, #1
 1602              	.LVL156:
 1603              		.loc 1 758 0
 1604 006c 4445     		cmp	r4, r8
 1605 006e 0CD1     		bne	.L153
 1606 0070 24E0     		b	.L154
 1607              	.L165:
 1608              		.loc 1 759 0
 1609 0072 1648     		ldr	r0, .L166
 1610 0074 FFF7FEFF 		bl	memcpy
 1611              	.LVL157:
 1612              		.loc 1 761 0
 1613 0078 3846     		mov	r0, r7
 1614 007a 3146     		mov	r1, r6
 1615 007c 134A     		ldr	r2, .L166
 1616 007e 0123     		movs	r3, #1
 1617 0080 FFF7FEFF 		bl	sdc_lld_write_aligned
 1618              	.LVL158:
 1619 0084 B8B9     		cbnz	r0, .L155
 1620              		.loc 1 758 0
 1621 0086 4445     		cmp	r4, r8
 1622 0088 18D0     		beq	.L154
 1623              	.L153:
 1624              		.loc 1 759 0
 1625 008a 2946     		mov	r1, r5
 1626 008c 4FF40072 		mov	r2, #512
 1627 0090 0E48     		ldr	r0, .L166
 1628 0092 FFF7FEFF 		bl	memcpy
 1629              	.LVL159:
 1630              		.loc 1 763 0
 1631 0096 661C     		adds	r6, r4, #1
ARM GAS  C:\Users\Matuesz\AppData\Local\Temp\ccy2g9Gf.s 			page 30


 1632              		.loc 1 761 0
 1633 0098 2146     		mov	r1, r4
 1634 009a 0123     		movs	r3, #1
 1635 009c 0B4A     		ldr	r2, .L166
 1636 009e 3846     		mov	r0, r7
 1637              		.loc 1 763 0
 1638 00a0 F418     		adds	r4, r6, r3
 1639              		.loc 1 761 0
 1640 00a2 FFF7FEFF 		bl	sdc_lld_write_aligned
 1641              	.LVL160:
 1642              		.loc 1 760 0
 1643 00a6 05F50075 		add	r5, r5, #512
 1644              		.loc 1 759 0
 1645 00aa 4FF40072 		mov	r2, #512
 1646 00ae 2946     		mov	r1, r5
 1647              		.loc 1 760 0
 1648 00b0 AD18     		adds	r5, r5, r2
 1649              		.loc 1 761 0
 1650 00b2 0028     		cmp	r0, #0
 1651 00b4 DDD0     		beq	.L165
 1652              	.L155:
 1653              		.loc 1 762 0
 1654 00b6 0120     		movs	r0, #1
 1655              	.LBE53:
 1656              		.loc 1 769 0
 1657 00b8 BDE8F081 		pop	{r4, r5, r6, r7, r8, pc}
 1658              	.L154:
 1659              	.LBB54:
 1660              		.loc 1 765 0
 1661 00bc 0020     		movs	r0, #0
 1662 00be BDE8F081 		pop	{r4, r5, r6, r7, r8, pc}
 1663              	.LVL161:
 1664              	.L150:
 1665              	.LBE54:
 1666              		.loc 1 769 0
 1667 00c2 BDE8F041 		pop	{r4, r5, r6, r7, r8, lr}
 1668              		.loc 1 768 0
 1669 00c6 FFF7FEBF 		b	sdc_lld_write_aligned
 1670              	.LVL162:
 1671              	.L167:
 1672 00ca 00BF     		.align	2
 1673              	.L166:
 1674 00cc 00000000 		.word	.LANCHOR1
 1675              		.cfi_endproc
 1676              	.LFE138:
 1677              		.size	sdc_lld_write, .-sdc_lld_write
 1678              		.section	.text.sdc_lld_sync,"ax",%progbits
 1679              		.align	2
 1680              		.p2align 4,,15
 1681              		.global	sdc_lld_sync
 1682              		.thumb
 1683              		.thumb_func
 1684              		.type	sdc_lld_sync, %function
 1685              	sdc_lld_sync:
 1686              	.LFB139:
 1687              		.loc 1 782 0
 1688              		.cfi_startproc
ARM GAS  C:\Users\Matuesz\AppData\Local\Temp\ccy2g9Gf.s 			page 31


 1689              		@ args = 0, pretend = 0, frame = 0
 1690              		@ frame_needed = 0, uses_anonymous_args = 0
 1691              		@ link register save eliminated.
 1692              	.LVL163:
 1693              		.loc 1 787 0
 1694 0000 0020     		movs	r0, #0
 1695              	.LVL164:
 1696 0002 7047     		bx	lr
 1697              		.cfi_endproc
 1698              	.LFE139:
 1699              		.size	sdc_lld_sync, .-sdc_lld_sync
 1700              		.global	SDCD1
 1701 0004 AFF30080 		.section	.bss.SDCD1,"aw",%nobits
 1701      AFF30080 
 1701      AFF30080 
 1702              		.align	2
 1703              		.set	.LANCHOR0,. + 0
 1704              		.type	SDCD1, %object
 1705              		.size	SDCD1, 72
 1706              	SDCD1:
 1707 0000 00000000 		.space	72
 1707      00000000 
 1707      00000000 
 1707      00000000 
 1707      00000000 
 1708              		.section	.bss.u,"aw",%nobits
 1709              		.align	2
 1710              		.set	.LANCHOR1,. + 0
 1711              		.type	u, %object
 1712              		.size	u, 512
 1713              	u:
 1714 0000 00000000 		.space	512
 1714      00000000 
 1714      00000000 
 1714      00000000 
 1714      00000000 
 1715              		.text
 1716              	.Letext0:
 1717              		.file 2 "c:\\chibistudio\\tools\\gnu tools arm embedded\\4.7 2014q2\\bin\\../lib/gcc/arm-none-eabi
 1718              		.file 3 "../../os/ports/GCC/ARMCMx/chtypes.h"
 1719              		.file 4 "../../os/kernel/include/chlists.h"
 1720              		.file 5 "../../os/kernel/include/chthreads.h"
 1721              		.file 6 "../../os/ports/GCC/ARMCMx/chcore_v7m.h"
 1722              		.file 7 "../../os/kernel/include/chschd.h"
 1723              		.file 8 "../../os/kernel/include/chmtx.h"
 1724              		.file 9 "../../os/hal/platforms/STM32F4xx/stm32f4xx.h"
 1725              		.file 10 "../../os/hal/platforms/STM32F4xx/stm32_dma.h"
 1726              		.file 11 "../../os/hal/include/io_block.h"
 1727              		.file 12 "../../os/hal/platforms/STM32/sdc_lld.h"
 1728              		.file 13 "../../os/ports/common/ARMCMx/CMSIS/include/core_cm4.h"
 1729              		.file 14 "../../os/hal/include/sdc.h"
 1730              		.file 15 "../../os/ports/common/ARMCMx/nvic.h"