ARM GAS  C:\Users\Matuesz\AppData\Local\Temp\ccLA85Wr.s 			page 1


   1              		.syntax unified
   2              		.cpu cortex-m4
   3              		.fpu softvfp
   4              		.eabi_attribute 20, 1
   5              		.eabi_attribute 21, 1
   6              		.eabi_attribute 23, 3
   7              		.eabi_attribute 24, 1
   8              		.eabi_attribute 25, 1
   9              		.eabi_attribute 26, 1
  10              		.eabi_attribute 30, 2
  11              		.eabi_attribute 34, 1
  12              		.eabi_attribute 18, 4
  13              		.thumb
  14              		.file	"usb_lld.c"
  15              		.text
  16              	.Ltext0:
  17              		.cfi_sections	.debug_frame
  18              		.section	.text.otg_disable_ep,"ax",%progbits
  19              		.align	2
  20              		.p2align 4,,15
  21              		.thumb
  22              		.thumb_func
  23              		.type	otg_disable_ep, %function
  24              	otg_disable_ep:
  25              	.LFB120:
  26              		.file 1 "../../os/hal/platforms/STM32/OTGv1/usb_lld.c"
  27              		.loc 1 147 0
  28              		.cfi_startproc
  29              		@ args = 0, pretend = 0, frame = 0
  30              		@ frame_needed = 0, uses_anonymous_args = 0
  31              		@ link register save eliminated.
  32              	.LVL0:
  33 0000 C16E     		ldr	r1, [r0, #108]
  34              		.loc 1 148 0
  35 0002 836E     		ldr	r3, [r0, #104]
  36              	.LVL1:
  37              		.loc 1 151 0
  38 0004 0022     		movs	r2, #0
  39              		.loc 1 147 0
  40 0006 2DE9F001 		push	{r4, r5, r6, r7, r8}
  41              	.LCFI0:
  42              		.cfi_def_cfa_offset 20
  43              		.cfi_offset 4, -20
  44              		.cfi_offset 5, -16
  45              		.cfi_offset 6, -12
  46              		.cfi_offset 7, -8
  47              		.cfi_offset 8, -4
  48              		.loc 1 162 0
  49 000a 1046     		mov	r0, r2
  50              	.LVL2:
  51 000c 8F68     		ldr	r7, [r1, #8]
  52              		.loc 1 156 0
  53 000e 4FF0804C 		mov	ip, #1073741824
  54              		.loc 1 164 0
  55 0012 4FF0FF36 		mov	r6, #-1
  56 0016 17E0     		b	.L8
  57              	.LVL3:
ARM GAS  C:\Users\Matuesz\AppData\Local\Temp\ccLA85Wr.s 			page 2


  58              	.L2:
  59              		.loc 1 162 0
  60 0018 5850     		str	r0, [r3, r1]
  61 001a 5501     		lsls	r5, r2, #5
  62              	.L4:
  63              		.loc 1 163 0
  64 001c 5C19     		adds	r4, r3, r5
  65              		.loc 1 170 0
  66 001e 02F15801 		add	r1, r2, #88
  67 0022 4901     		lsls	r1, r1, #5
  68              		.loc 1 163 0
  69 0024 C4F81009 		str	r0, [r4, #2320]
  70              		.loc 1 164 0
  71 0028 C4F80869 		str	r6, [r4, #2312]
  72              		.loc 1 170 0
  73 002c 53F80180 		ldr	r8, [r3, r1]
  74 0030 B8F1000F 		cmp	r8, #0
  75 0034 17DB     		blt	.L19
  76              		.loc 1 177 0
  77 0036 5850     		str	r0, [r3, r1]
  78              	.L7:
  79              		.loc 1 178 0
  80 0038 5D19     		adds	r5, r3, r5
  81              		.loc 1 151 0
  82 003a 0132     		adds	r2, r2, #1
  83              	.LVL4:
  84 003c BA42     		cmp	r2, r7
  85              		.loc 1 178 0
  86 003e C5F8100B 		str	r0, [r5, #2832]
  87              		.loc 1 179 0
  88 0042 C5F8086B 		str	r6, [r5, #2824]
  89              		.loc 1 151 0
  90 0046 15D8     		bhi	.L20
  91              	.LVL5:
  92              	.L8:
  93              		.loc 1 155 0
  94 0048 02F14804 		add	r4, r2, #72
  95 004c 6101     		lsls	r1, r4, #5
  96 004e 5D58     		ldr	r5, [r3, r1]
  97 0050 002D     		cmp	r5, #0
  98 0052 E1DA     		bge	.L2
  99 0054 5501     		lsls	r5, r2, #5
 100              		.loc 1 156 0
 101 0056 43F801C0 		str	ip, [r3, r1]
 102              		.loc 1 158 0
 103 005a 5C19     		adds	r4, r3, r5
 104              	.L3:
 105              		.loc 1 158 0 is_stmt 0 discriminator 1
 106 005c D4F80819 		ldr	r1, [r4, #2312]
 107 0060 8907     		lsls	r1, r1, #30
 108 0062 FBD5     		bpl	.L3
 109 0064 DAE7     		b	.L4
 110              	.L19:
 111              		.loc 1 171 0 is_stmt 1
 112 0066 43F801C0 		str	ip, [r3, r1]
 113              	.L6:
 114              		.loc 1 173 0 discriminator 1
ARM GAS  C:\Users\Matuesz\AppData\Local\Temp\ccLA85Wr.s 			page 3


 115 006a D4F8081B 		ldr	r1, [r4, #2824]
 116 006e C906     		lsls	r1, r1, #27
 117 0070 FBD5     		bpl	.L6
 118 0072 E1E7     		b	.L7
 119              	.LVL6:
 120              	.L20:
 121              		.loc 1 181 0
 122 0074 4FF00110 		mov	r0, #65537
 123 0078 C3F81C08 		str	r0, [r3, #2076]
 124              		.loc 1 182 0
 125 007c BDE8F001 		pop	{r4, r5, r6, r7, r8}
 126 0080 7047     		bx	lr
 127              		.cfi_endproc
 128              	.LFE120:
 129              		.size	otg_disable_ep, .-otg_disable_ep
 130 0082 00BFAFF3 		.section	.text.otg_epout_handler,"ax",%progbits
 130      0080AFF3 
 130      0080AFF3 
 130      0080
 131              		.align	2
 132              		.p2align 4,,15
 133              		.thumb
 134              		.thumb_func
 135              		.type	otg_epout_handler, %function
 136              	otg_epout_handler:
 137              	.LFB134:
 138              		.loc 1 598 0
 139              		.cfi_startproc
 140              		@ args = 0, pretend = 0, frame = 0
 141              		@ frame_needed = 0, uses_anonymous_args = 0
 142              	.LVL7:
 143 0000 F8B5     		push	{r3, r4, r5, r6, r7, lr}
 144              	.LCFI1:
 145              		.cfi_def_cfa_offset 24
 146              		.cfi_offset 3, -24
 147              		.cfi_offset 4, -20
 148              		.cfi_offset 5, -16
 149              		.cfi_offset 6, -12
 150              		.cfi_offset 7, -8
 151              		.cfi_offset 14, -4
 152              		.loc 1 599 0
 153 0002 856E     		ldr	r5, [r0, #104]
 154              	.LVL8:
 155              		.loc 1 600 0
 156 0004 05EB4113 		add	r3, r5, r1, lsl #5
 157              		.loc 1 598 0
 158 0008 0646     		mov	r6, r0
 159              		.loc 1 600 0
 160 000a D3F8084B 		ldr	r4, [r3, #2824]
 161              	.LVL9:
 162              		.loc 1 605 0
 163 000e 2207     		lsls	r2, r4, #28
 164              		.loc 1 598 0
 165 0010 0F46     		mov	r7, r1
 166              		.loc 1 603 0
 167 0012 C3F8084B 		str	r4, [r3, #2824]
 168              		.loc 1 605 0
ARM GAS  C:\Users\Matuesz\AppData\Local\Temp\ccLA85Wr.s 			page 4


 169 0016 03D5     		bpl	.L22
 170              		.loc 1 605 0 is_stmt 0 discriminator 1
 171 0018 D5F81428 		ldr	r2, [r5, #2068]
 172 001c 1307     		lsls	r3, r2, #28
 173 001e 15D4     		bmi	.L36
 174              	.LVL10:
 175              	.L22:
 176              		.loc 1 611 0 is_stmt 1
 177 0020 E207     		lsls	r2, r4, #31
 178 0022 03D5     		bpl	.L21
 179              		.loc 1 611 0 is_stmt 0 discriminator 1
 180 0024 D5F81408 		ldr	r0, [r5, #2068]
 181 0028 C307     		lsls	r3, r0, #31
 182 002a 00D4     		bmi	.L37
 183              	.L21:
 184 002c F8BD     		pop	{r3, r4, r5, r6, r7, pc}
 185              	.L37:
 186              		.loc 1 613 0 is_stmt 1
 187 002e 06EB8702 		add	r2, r6, r7, lsl #2
 188 0032 7189     		ldrh	r1, [r6, #10]
 189 0034 D368     		ldr	r3, [r2, #12]
 190 0036 0120     		movs	r0, #1
 191 0038 00FA07F0 		lsl	r0, r0, r7
 192 003c 21EA0002 		bic	r2, r1, r0
 193 0040 7281     		strh	r2, [r6, #10]	@ movhi
 194 0042 DB68     		ldr	r3, [r3, #12]
 195 0044 3046     		mov	r0, r6
 196 0046 3946     		mov	r1, r7
 197 0048 9847     		blx	r3
 198              	.LVL11:
 199 004a F8BD     		pop	{r3, r4, r5, r6, r7, pc}
 200              	.LVL12:
 201              	.L36:
 202              		.loc 1 608 0
 203 004c 00EB8103 		add	r3, r0, r1, lsl #2
 204 0050 DA68     		ldr	r2, [r3, #12]
 205 0052 5368     		ldr	r3, [r2, #4]
 206 0054 9847     		blx	r3
 207              	.LVL13:
 208 0056 E3E7     		b	.L22
 209              		.cfi_endproc
 210              	.LFE134:
 211              		.size	otg_epout_handler, .-otg_epout_handler
 212 0058 AFF30080 		.section	.text.otg_txfifo_flush,"ax",%progbits
 212      AFF30080 
 213              		.align	2
 214              		.p2align 4,,15
 215              		.thumb
 216              		.thumb_func
 217              		.type	otg_txfifo_flush, %function
 218              	otg_txfifo_flush:
 219              	.LFB122:
 220              		.loc 1 194 0
 221              		.cfi_startproc
 222              		@ args = 0, pretend = 0, frame = 0
 223              		@ frame_needed = 0, uses_anonymous_args = 0
 224              		@ link register save eliminated.
ARM GAS  C:\Users\Matuesz\AppData\Local\Temp\ccLA85Wr.s 			page 5


 225              	.LVL14:
 226              		.loc 1 195 0
 227 0000 826E     		ldr	r2, [r0, #104]
 228              	.LVL15:
 229              		.loc 1 197 0
 230 0002 8901     		lsls	r1, r1, #6
 231              	.LVL16:
 232 0004 41F02003 		orr	r3, r1, #32
 233 0008 1361     		str	r3, [r2, #16]
 234              	.LVL17:
 235              	.L39:
 236              		.loc 1 198 0 discriminator 1
 237 000a 1069     		ldr	r0, [r2, #16]
 238 000c 8306     		lsls	r3, r0, #26
 239 000e FCD4     		bmi	.L39
 240              		.loc 1 201 0
 241 0010 0C20     		movs	r0, #12
 242              		.loc 1 202 0
 243              		.loc 1 201 0
 244 0012 FFF7FEBF 		b	halPolledDelay
 245              	.LVL18:
 246              		.cfi_endproc
 247              	.LFE122:
 248              		.size	otg_txfifo_flush, .-otg_txfifo_flush
 249 0016 00BFAFF3 		.section	.text.usb_lld_pump,"ax",%progbits
 249      0080AFF3 
 249      0080
 250              		.align	2
 251              		.p2align 4,,15
 252              		.thumb
 253              		.thumb_func
 254              		.type	usb_lld_pump, %function
 255              	usb_lld_pump:
 256              	.LFB136:
 257              		.loc 1 697 0
 258              		.cfi_startproc
 259              		@ args = 0, pretend = 0, frame = 24
 260              		@ frame_needed = 0, uses_anonymous_args = 0
 261              	.LVL19:
 262 0000 2DE9F04F 		push	{r4, r5, r6, r7, r8, r9, sl, fp, lr}
 263              	.LCFI2:
 264              		.cfi_def_cfa_offset 36
 265              		.cfi_offset 4, -36
 266              		.cfi_offset 5, -32
 267              		.cfi_offset 6, -28
 268              		.cfi_offset 7, -24
 269              		.cfi_offset 8, -20
 270              		.cfi_offset 9, -16
 271              		.cfi_offset 10, -12
 272              		.cfi_offset 11, -8
 273              		.cfi_offset 14, -4
 274              		.loc 1 701 0
 275 0004 40F20001 		movw	r1, #:lower16:rlist
 276 0008 C0F20001 		movt	r1, #:upper16:rlist
 277              		.loc 1 699 0
 278 000c D0F868A0 		ldr	sl, [r0, #104]
 279              		.loc 1 701 0
ARM GAS  C:\Users\Matuesz\AppData\Local\Temp\ccLA85Wr.s 			page 6


 280 0010 8A69     		ldr	r2, [r1, #24]
 281              		.loc 1 697 0
 282 0012 8346     		mov	fp, r0
 283              	.LVL20:
 284              		.loc 1 701 0
 285 0014 9148     		ldr	r0, .L225
 286              	.LVL21:
 287              		.loc 1 697 0
 288 0016 87B0     		sub	sp, sp, #28
 289              	.LCFI3:
 290              		.cfi_def_cfa_offset 64
 291              	.LBB90:
 292              		.loc 1 702 0
 293 0018 2023     		movs	r3, #32
 294              	.LVL22:
 295              	.LBE90:
 296              		.loc 1 701 0
 297 001a 9061     		str	r0, [r2, #24]
 298              	.LBB91:
 299              		.loc 1 702 0
 300              	@ 702 "../../os/hal/platforms/STM32/OTGv1/usb_lld.c" 1
 301 001c 83F31188 		msr     BASEPRI, r3
 302              	@ 0 "" 2
 303              	.LVL23:
 304              		.thumb
 305              	.LBE91:
 306              	.LBB92:
 307              	.LBB93:
 308              		.loc 1 714 0
 309 0020 4FF00008 		mov	r8, #0
 310              	.LVL24:
 311              	.L104:
 312              	.LBE93:
 313              		.loc 1 708 0
 314 0024 9BF80030 		ldrb	r3, [fp, #0]	@ zero_extendqisi2
 315              	.LVL25:
 316 0028 012B     		cmp	r3, #1
 317 002a 06D0     		beq	.L42
 318              		.loc 1 708 0 is_stmt 0 discriminator 1
 319 002c DBF87440 		ldr	r4, [fp, #116]
 320 0030 9CB9     		cbnz	r4, .L43
 321              		.loc 1 709 0 is_stmt 1
 322 0032 DAF81450 		ldr	r5, [sl, #20]
 323 0036 EB06     		lsls	r3, r5, #27
 324 0038 0FD4     		bmi	.L43
 325              	.L42:
 326              		.loc 1 711 0
 327 003a 40F20007 		movw	r7, #:lower16:rlist
 328 003e C0F20007 		movt	r7, #:upper16:rlist
 329              		.loc 1 710 0
 330 0042 DAF81860 		ldr	r6, [sl, #24]
 331              		.loc 1 711 0
 332 0046 B969     		ldr	r1, [r7, #24]
 333              		.loc 1 710 0
 334 0048 46F01002 		orr	r2, r6, #16
 335 004c CAF81820 		str	r2, [sl, #24]
 336              		.loc 1 712 0
ARM GAS  C:\Users\Matuesz\AppData\Local\Temp\ccLA85Wr.s 			page 7


 337 0050 0220     		movs	r0, #2
 338              		.loc 1 711 0
 339 0052 CBF87C10 		str	r1, [fp, #124]
 340              		.loc 1 712 0
 341 0056 FFF7FEFF 		bl	chSchGoSleepS
 342              	.LVL26:
 343              	.L43:
 344              	.LBB94:
 345              		.loc 1 714 0
 346 005a 0023     		movs	r3, #0
 347              	.LVL27:
 348              	@ 714 "../../os/hal/platforms/STM32/OTGv1/usb_lld.c" 1
 349 005c 83F31188 		msr     BASEPRI, r3
 350              	@ 0 "" 2
 351              	.LVL28:
 352              		.loc 1 717 0
 353              		.thumb
 354 0060 1C46     		mov	r4, r3
 355              	.LVL29:
 356              	.L197:
 357              	.LBE94:
 358              		.loc 1 720 0 discriminator 1
 359 0062 DAF81400 		ldr	r0, [sl, #20]
 360 0066 10F01007 		ands	r7, r0, #16
 361 006a 3AD0     		beq	.L221
 362              	.L69:
 363              	.LVL30:
 364              	.LBB95:
 365              	.LBB96:
 366              		.loc 1 454 0
 367 006c DBF86800 		ldr	r0, [fp, #104]
 368 0070 016A     		ldr	r1, [r0, #32]
 369              	.LVL31:
 370              		.loc 1 455 0
 371 0072 01F4F015 		and	r5, r1, #1966080
 372 0076 B5F5802F 		cmp	r5, #262144
 373 007a 47D0     		beq	.L46
 374 007c B5F5402F 		cmp	r5, #786432
 375 0080 EFD1     		bne	.L197
 376              	.LVL32:
 377              		.loc 1 460 0
 378 0082 01F00F07 		and	r7, r1, #15
 379              	.LVL33:
 380              		.loc 1 461 0
 381 0086 0BEB8702 		add	r2, fp, r7, lsl #2
 382              		.loc 1 459 0
 383 008a C1F30A16 		ubfx	r6, r1, #4, #11
 384              		.loc 1 461 0
 385 008e D368     		ldr	r3, [r2, #12]
 386              	.LVL34:
 387              	.LBB97:
 388              	.LBB98:
 389              		.loc 1 372 0
 390 0090 F11C     		adds	r1, r6, #3
 391              	.LVL35:
 392              		.loc 1 374 0
 393 0092 8D08     		lsrs	r5, r1, #2
ARM GAS  C:\Users\Matuesz\AppData\Local\Temp\ccLA85Wr.s 			page 8


 394              	.LBE98:
 395              	.LBE97:
 396              		.loc 1 461 0
 397 0094 1F6A     		ldr	r7, [r3, #32]
 398              	.LVL36:
 399              	.LBB105:
 400              	.LBB104:
 401              		.loc 1 374 0
 402 0096 E4D0     		beq	.L197
 403 0098 00F58050 		add	r0, r0, #4096
 404              	.LVL37:
 405 009c 6A1E     		subs	r2, r5, #1
 406              	.LBB99:
 407              		.loc 1 375 0
 408 009e 0368     		ldr	r3, [r0, #0]
 409              	.LVL38:
 410              	.LBE99:
 411              		.loc 1 374 0
 412 00a0 1146     		mov	r1, r2
 413              	.LBB100:
 414              		.loc 1 379 0
 415 00a2 47F8043B 		str	r3, [r7], #4
 416              	.LVL39:
 417 00a6 02F00106 		and	r6, r2, #1
 418              		.loc 1 381 0
 419 00aa 0123     		movs	r3, #1
 420              	.LVL40:
 421              	.LBE100:
 422              		.loc 1 374 0
 423 00ac 002A     		cmp	r2, #0
 424 00ae D8D0     		beq	.L197
 425 00b0 2EB1     		cbz	r6, .L48
 426              	.LBB101:
 427              		.loc 1 375 0
 428 00b2 0568     		ldr	r5, [r0, #0]
 429              	.LVL41:
 430              		.loc 1 381 0
 431 00b4 0023     		movs	r3, #0
 432              	.LVL42:
 433              	.LBE101:
 434              		.loc 1 374 0
 435 00b6 511E     		subs	r1, r2, #1
 436              	.LVL43:
 437              	.LBB102:
 438              		.loc 1 379 0
 439 00b8 47F8045B 		str	r5, [r7], #4
 440              	.LVL44:
 441              	.LBE102:
 442              		.loc 1 374 0
 443 00bc D1D0     		beq	.L197
 444              	.L48:
 445              	.LBB103:
 446              		.loc 1 375 0
 447 00be 0268     		ldr	r2, [r0, #0]
 448              		.loc 1 376 0
 449 00c0 13B1     		cbz	r3, .L50
 450              		.loc 1 379 0
ARM GAS  C:\Users\Matuesz\AppData\Local\Temp\ccLA85Wr.s 			page 9


 451 00c2 47F8042B 		str	r2, [r7], #4
 452              	.LVL45:
 453              		.loc 1 381 0
 454 00c6 013B     		subs	r3, r3, #1
 455              	.LVL46:
 456              	.L50:
 457              		.loc 1 383 0
 458 00c8 0139     		subs	r1, r1, #1
 459              		.loc 1 375 0
 460 00ca 0668     		ldr	r6, [r0, #0]
 461              		.loc 1 376 0
 462 00cc 13B1     		cbz	r3, .L158
 463              		.loc 1 379 0
 464 00ce 47F8046B 		str	r6, [r7], #4
 465              	.LVL47:
 466              		.loc 1 381 0
 467 00d2 013B     		subs	r3, r3, #1
 468              	.LVL48:
 469              	.L158:
 470              	.LBE103:
 471              		.loc 1 374 0
 472 00d4 0139     		subs	r1, r1, #1
 473 00d6 F2D1     		bne	.L48
 474              	.LBE104:
 475              	.LBE105:
 476              	.LBE96:
 477              	.LBE95:
 478              		.loc 1 720 0
 479 00d8 DAF81400 		ldr	r0, [sl, #20]
 480              	.LVL49:
 481 00dc 10F01007 		ands	r7, r0, #16
 482              	.LVL50:
 483 00e0 C4D1     		bne	.L69
 484              	.LVL51:
 485              	.L221:
 486              		.loc 1 724 0
 487 00e2 0125     		movs	r5, #1
 488              		.loc 1 725 0
 489 00e4 DBF87430 		ldr	r3, [fp, #116]
 490              	.LVL52:
 491              		.loc 1 724 0
 492 00e8 A540     		lsls	r5, r5, r4
 493              		.loc 1 725 0
 494 00ea 1D42     		tst	r5, r3
 495              		.loc 1 724 0
 496 00ec 0495     		str	r5, [sp, #16]
 497              	.LVL53:
 498              		.loc 1 725 0
 499 00ee 40F0B780 		bne	.L202
 500 00f2 0134     		adds	r4, r4, #1
 501 00f4 0594     		str	r4, [sp, #20]
 502              	.LVL54:
 503              	.L70:
 504              		.loc 1 717 0
 505 00f6 DBF86C20 		ldr	r2, [fp, #108]
 506 00fa 059B     		ldr	r3, [sp, #20]
 507              	.LVL55:
ARM GAS  C:\Users\Matuesz\AppData\Local\Temp\ccLA85Wr.s 			page 10


 508 00fc 9068     		ldr	r0, [r2, #8]
 509 00fe DCB2     		uxtb	r4, r3
 510              	.LVL56:
 511 0100 8442     		cmp	r4, r0
 512 0102 AED9     		bls	.L197
 513              	.LBB122:
 514              		.loc 1 749 0
 515 0104 2023     		movs	r3, #32
 516              	.LVL57:
 517              	@ 749 "../../os/hal/platforms/STM32/OTGv1/usb_lld.c" 1
 518 0106 83F31188 		msr     BASEPRI, r3
 519              	@ 0 "" 2
 520              	.LVL58:
 521              		.thumb
 522              	.LBE122:
 523              	.LBE92:
 524              		.loc 1 750 0
 525 010a 8BE7     		b	.L104
 526              	.LVL59:
 527              	.L46:
 528              	.LBB159:
 529              	.LBB123:
 530              	.LBB121:
 531              		.loc 1 466 0
 532 010c 01F00F07 		and	r7, r1, #15
 533              		.loc 1 467 0
 534 0110 0237     		adds	r7, r7, #2
 535 0112 0BEB8705 		add	r5, fp, r7, lsl #2
 536              		.loc 1 465 0
 537 0116 C1F30A16 		ubfx	r6, r1, #4, #11
 538              	.LVL60:
 539              		.loc 1 467 0
 540 011a 6A68     		ldr	r2, [r5, #4]
 541 011c 9169     		ldr	r1, [r2, #24]
 542              	.LVL61:
 543 011e 0B78     		ldrb	r3, [r1, #0]	@ zero_extendqisi2
 544              	.LVL62:
 545 0120 002B     		cmp	r3, #0
 546 0122 3BD1     		bne	.L222
 547              		.loc 1 474 0
 548 0124 0D1D     		adds	r5, r1, #4
 549 0126 2CCD     		ldmia	r5, {r2, r3, r5}
 550              	.LVL63:
 551 0128 0332     		adds	r2, r2, #3
 552              	.LVL64:
 553              	.LBB106:
 554              	.LBB107:
 555              		.loc 1 373 0
 556 012a D31A     		subs	r3, r2, r3
 557              		.loc 1 372 0
 558 012c F21C     		adds	r2, r6, #3
 559              	.LVL65:
 560              		.loc 1 373 0
 561 012e 9B08     		lsrs	r3, r3, #2
 562              	.LVL66:
 563              		.loc 1 374 0
 564 0130 9208     		lsrs	r2, r2, #2
ARM GAS  C:\Users\Matuesz\AppData\Local\Temp\ccLA85Wr.s 			page 11


 565              	.LVL67:
 566 0132 29D0     		beq	.L68
 567 0134 00F58050 		add	r0, r0, #4096
 568              	.LVL68:
 569 0138 02F1FF39 		add	r9, r2, #-1
 570 013c 09F0010C 		and	ip, r9, #1
 571 0140 AE46     		mov	lr, r5
 572              	.LBB108:
 573              		.loc 1 375 0
 574 0142 D0F80090 		ldr	r9, [r0, #0]
 575              	.LVL69:
 576              		.loc 1 376 0
 577 0146 1BB1     		cbz	r3, .L146
 578              		.loc 1 379 0
 579 0148 AE46     		mov	lr, r5
 580              		.loc 1 381 0
 581 014a 013B     		subs	r3, r3, #1
 582              	.LVL70:
 583              		.loc 1 379 0
 584 014c 4EF8049B 		str	r9, [lr], #4
 585              	.LVL71:
 586              	.L146:
 587              	.LBE108:
 588              		.loc 1 374 0
 589 0150 013A     		subs	r2, r2, #1
 590              	.LVL72:
 591 0152 19D0     		beq	.L68
 592 0154 BCF1000F 		cmp	ip, #0
 593 0158 07D0     		beq	.L214
 594              	.LBB109:
 595              		.loc 1 375 0
 596 015a D0F800C0 		ldr	ip, [r0, #0]
 597              	.LVL73:
 598              		.loc 1 376 0
 599 015e 13B1     		cbz	r3, .L148
 600              		.loc 1 379 0
 601 0160 4EF804CB 		str	ip, [lr], #4
 602              	.LVL74:
 603              		.loc 1 381 0
 604 0164 013B     		subs	r3, r3, #1
 605              	.LVL75:
 606              	.L148:
 607              	.LBE109:
 608              		.loc 1 374 0
 609 0166 013A     		subs	r2, r2, #1
 610 0168 0ED0     		beq	.L68
 611              	.L214:
 612 016a 8946     		mov	r9, r1
 613              	.L67:
 614              	.LBB110:
 615              		.loc 1 375 0
 616 016c 0168     		ldr	r1, [r0, #0]
 617              		.loc 1 376 0
 618 016e 13B1     		cbz	r3, .L66
 619              		.loc 1 379 0
 620 0170 4EF8041B 		str	r1, [lr], #4
 621              	.LVL76:
ARM GAS  C:\Users\Matuesz\AppData\Local\Temp\ccLA85Wr.s 			page 12


 622              		.loc 1 381 0
 623 0174 013B     		subs	r3, r3, #1
 624              	.LVL77:
 625              	.L66:
 626              		.loc 1 383 0
 627 0176 013A     		subs	r2, r2, #1
 628              		.loc 1 375 0
 629 0178 0168     		ldr	r1, [r0, #0]
 630              		.loc 1 376 0
 631 017a 13B1     		cbz	r3, .L151
 632              		.loc 1 379 0
 633 017c 4EF8041B 		str	r1, [lr], #4
 634              	.LVL78:
 635              		.loc 1 381 0
 636 0180 013B     		subs	r3, r3, #1
 637              	.LVL79:
 638              	.L151:
 639              	.LBE110:
 640              		.loc 1 374 0
 641 0182 013A     		subs	r2, r2, #1
 642 0184 F2D1     		bne	.L67
 643 0186 4946     		mov	r1, r9
 644              	.LVL80:
 645              	.L68:
 646              	.LBE107:
 647              	.LBE106:
 648              		.loc 1 479 0
 649 0188 AD19     		adds	r5, r5, r6
 650 018a CD60     		str	r5, [r1, #12]
 651              	.LVL81:
 652              	.L62:
 653              		.loc 1 481 0
 654 018c 0BEB8707 		add	r7, fp, r7, lsl #2
 655              	.LVL82:
 656 0190 7868     		ldr	r0, [r7, #4]
 657 0192 8569     		ldr	r5, [r0, #24]
 658 0194 A968     		ldr	r1, [r5, #8]
 659 0196 8E19     		adds	r6, r1, r6
 660              	.LVL83:
 661 0198 AE60     		str	r6, [r5, #8]
 662 019a 62E7     		b	.L197
 663              	.LVL84:
 664              	.L222:
 665              		.loc 1 469 0
 666 019c 00F58050 		add	r0, r0, #4096
 667 01a0 CD68     		ldr	r5, [r1, #12]
 668              	.LVL85:
 669              	.LBB111:
 670              	.LBB112:
 671              		.loc 1 402 0
 672 01a2 002E     		cmp	r6, #0
 673 01a4 40D0     		beq	.L53
 674 01a6 3346     		mov	r3, r6
 675 01a8 A446     		mov	ip, r4
 676              	.LVL86:
 677              	.L196:
 678              	.LBB113:
ARM GAS  C:\Users\Matuesz\AppData\Local\Temp\ccLA85Wr.s 			page 13


 679              		.loc 1 406 0
 680 01aa 032B     		cmp	r3, #3
 681              	.LBB114:
 682              		.loc 1 412 0
 683 01ac 6969     		ldr	r1, [r5, #20]
 684              	.LBE114:
 685              		.loc 1 406 0
 686 01ae 07D9     		bls	.L55
 687              	.LVL87:
 688              	.L199:
 689              	.LBB115:
 690              		.loc 1 412 0
 691 01b0 2C69     		ldr	r4, [r5, #16]
 692 01b2 A142     		cmp	r1, r4
 693 01b4 04D3     		bcc	.L55
 694              		.loc 1 413 0
 695 01b6 EC68     		ldr	r4, [r5, #12]
 696              	.LBE115:
 697              		.loc 1 406 0
 698 01b8 032B     		cmp	r3, #3
 699              	.LBB116:
 700              		.loc 1 413 0
 701 01ba 6C61     		str	r4, [r5, #20]
 702              	.LVL88:
 703              		.loc 1 412 0
 704 01bc 6969     		ldr	r1, [r5, #20]
 705              	.LBE116:
 706              		.loc 1 406 0
 707 01be F7D8     		bhi	.L199
 708              	.LVL89:
 709              	.L55:
 710              		.loc 1 424 0
 711 01c0 0268     		ldr	r2, [r0, #0]
 712              	.LVL90:
 713              		.loc 1 427 0
 714 01c2 01F8012B 		strb	r2, [r1], #1
 715              		.loc 1 428 0
 716 01c6 2C69     		ldr	r4, [r5, #16]
 717              		.loc 1 427 0
 718 01c8 6961     		str	r1, [r5, #20]
 719              		.loc 1 428 0
 720 01ca A142     		cmp	r1, r4
 721              		.loc 1 429 0
 722 01cc 24BF     		itt	cs
 723 01ce E968     		ldrcs	r1, [r5, #12]
 724 01d0 6961     		strcs	r1, [r5, #20]
 725              		.loc 1 426 0
 726 01d2 012B     		cmp	r3, #1
 727 01d4 27D0     		beq	.L208
 728              	.LVL91:
 729              		.loc 1 427 0
 730 01d6 D5F814E0 		ldr	lr, [r5, #20]
 731 01da 110A     		lsrs	r1, r2, #8
 732 01dc 0EF8011B 		strb	r1, [lr], #1
 733              		.loc 1 428 0
 734 01e0 2C69     		ldr	r4, [r5, #16]
 735              		.loc 1 427 0
ARM GAS  C:\Users\Matuesz\AppData\Local\Temp\ccLA85Wr.s 			page 14


 736 01e2 C5F814E0 		str	lr, [r5, #20]
 737              		.loc 1 428 0
 738 01e6 A645     		cmp	lr, r4
 739              		.loc 1 429 0
 740 01e8 24BF     		itt	cs
 741 01ea EC68     		ldrcs	r4, [r5, #12]
 742 01ec 6C61     		strcs	r4, [r5, #20]
 743              		.loc 1 426 0
 744 01ee 022B     		cmp	r3, #2
 745 01f0 19D0     		beq	.L208
 746              	.LVL92:
 747              		.loc 1 427 0
 748 01f2 D5F81490 		ldr	r9, [r5, #20]
 749 01f6 110C     		lsrs	r1, r2, #16
 750 01f8 09F8011B 		strb	r1, [r9], #1
 751              		.loc 1 428 0
 752 01fc 2C69     		ldr	r4, [r5, #16]
 753              		.loc 1 427 0
 754 01fe C5F81490 		str	r9, [r5, #20]
 755              		.loc 1 428 0
 756 0202 A145     		cmp	r9, r4
 757              		.loc 1 429 0
 758 0204 24BF     		itt	cs
 759 0206 EC68     		ldrcs	r4, [r5, #12]
 760 0208 6C61     		strcs	r4, [r5, #20]
 761              		.loc 1 426 0
 762 020a 032B     		cmp	r3, #3
 763 020c 0BD0     		beq	.L208
 764              	.LVL93:
 765              		.loc 1 427 0
 766 020e 6969     		ldr	r1, [r5, #20]
 767 0210 120E     		lsrs	r2, r2, #24
 768              	.LVL94:
 769 0212 01F8012B 		strb	r2, [r1], #1
 770              		.loc 1 428 0
 771 0216 2C69     		ldr	r4, [r5, #16]
 772              		.loc 1 427 0
 773 0218 6961     		str	r1, [r5, #20]
 774              		.loc 1 428 0
 775 021a A142     		cmp	r1, r4
 776              		.loc 1 429 0
 777 021c 24BF     		itt	cs
 778 021e EC68     		ldrcs	r4, [r5, #12]
 779 0220 6C61     		strcs	r4, [r5, #20]
 780              		.loc 1 426 0
 781 0222 043B     		subs	r3, r3, #4
 782              	.LVL95:
 783 0224 C1D1     		bne	.L196
 784              	.LVL96:
 785              	.L208:
 786 0226 6446     		mov	r4, ip
 787              	.L53:
 788              	.LBE113:
 789              	.LBB117:
 790              		.loc 1 436 0
 791 0228 2023     		movs	r3, #32
 792              	.LVL97:
ARM GAS  C:\Users\Matuesz\AppData\Local\Temp\ccLA85Wr.s 			page 15


 793              	@ 436 "../../os/hal/platforms/STM32/OTGv1/usb_lld.c" 1
 794 022a 83F31188 		msr     BASEPRI, r3
 795              	@ 0 "" 2
 796              	.LVL98:
 797              		.thumb
 798              	.LBE117:
 799              		.loc 1 437 0
 800 022e A968     		ldr	r1, [r5, #8]
 801              		.loc 1 438 0
 802 0230 2868     		ldr	r0, [r5, #0]
 803              	.LVL99:
 804              		.loc 1 437 0
 805 0232 8A19     		adds	r2, r1, r6
 806              		.loc 1 438 0
 807 0234 A842     		cmp	r0, r5
 808              		.loc 1 437 0
 809 0236 AA60     		str	r2, [r5, #8]
 810              		.loc 1 438 0
 811 0238 09D0     		beq	.L64
 812              	.LVL100:
 813              	.L137:
 814              	.LBB118:
 815              	.LBB119:
 816              		.file 2 "../../os/kernel/include/chinline.h"
 817              		.loc 2 62 0
 818 023a 0368     		ldr	r3, [r0, #0]
 819              	.LVL101:
 820 023c 2B60     		str	r3, [r5, #0]
 821 023e 5D60     		str	r5, [r3, #4]
 822              	.LBE119:
 823              	.LBE118:
 824              		.loc 1 439 0
 825 0240 FFF7FEFF 		bl	chSchReadyI
 826              	.LVL102:
 827 0244 C0F82480 		str	r8, [r0, #36]
 828              		.loc 1 438 0
 829 0248 2868     		ldr	r0, [r5, #0]
 830 024a A842     		cmp	r0, r5
 831 024c F5D1     		bne	.L137
 832              	.LVL103:
 833              	.L64:
 834              		.loc 1 440 0
 835 024e FFF7FEFF 		bl	chSchRescheduleS
 836              	.LVL104:
 837              	.LBB120:
 838              		.loc 1 441 0
 839 0252 0023     		movs	r3, #0
 840              	@ 441 "../../os/hal/platforms/STM32/OTGv1/usb_lld.c" 1
 841 0254 83F31188 		msr     BASEPRI, r3
 842              	@ 0 "" 2
 843              	.LVL105:
 844              		.thumb
 845 0258 98E7     		b	.L62
 846              	.L226:
 847 025a 00BF     		.align	2
 848              	.L225:
 849 025c 00000000 		.word	.LC0
ARM GAS  C:\Users\Matuesz\AppData\Local\Temp\ccLA85Wr.s 			page 16


 850              	.LVL106:
 851              	.L202:
 852              	.LBE120:
 853              	.LBE112:
 854              	.LBE111:
 855              	.LBE121:
 856              	.LBE123:
 857              	.LBB124:
 858              	.LBB125:
 859              		.loc 1 728 0
 860 0260 2023     		movs	r3, #32
 861              	.LVL107:
 862              	@ 728 "../../os/hal/platforms/STM32/OTGv1/usb_lld.c" 1
 863 0262 83F31188 		msr     BASEPRI, r3
 864              	@ 0 "" 2
 865              	.LVL108:
 866              		.thumb
 867              	.LBE125:
 868              		.loc 1 736 0
 869 0266 DAF80860 		ldr	r6, [sl, #8]
 870              		.loc 1 737 0
 871 026a DBF87410 		ldr	r1, [fp, #116]
 872 026e 0498     		ldr	r0, [sp, #16]
 873              		.loc 1 736 0
 874 0270 26F00102 		bic	r2, r6, #1
 875              		.loc 1 737 0
 876 0274 21EA0005 		bic	r5, r1, r0
 877              	.LVL109:
 878              		.loc 1 736 0
 879 0278 CAF80820 		str	r2, [sl, #8]
 880              	.LBB126:
 881              		.loc 1 738 0
 882 027c 3B46     		mov	r3, r7
 883              	.LVL110:
 884              	.LBE126:
 885              		.loc 1 737 0
 886 027e CBF87450 		str	r5, [fp, #116]
 887              	.LBB127:
 888              		.loc 1 738 0
 889              	@ 738 "../../os/hal/platforms/STM32/OTGv1/usb_lld.c" 1
 890 0282 83F31188 		msr     BASEPRI, r3
 891              	@ 0 "" 2
 892              	.LVL111:
 893              		.thumb
 894              	.LBE127:
 895              	.LBB128:
 896              	.LBB129:
 897              		.loc 1 505 0
 898 0286 A71C     		adds	r7, r4, #2
 899 0288 0BEB8703 		add	r3, fp, r7, lsl #2
 900              	.LVL112:
 901 028c 5D68     		ldr	r5, [r3, #4]
 902 028e 6869     		ldr	r0, [r5, #20]
 903 0290 8268     		ldr	r2, [r0, #8]
 904 0292 4668     		ldr	r6, [r0, #4]
 905 0294 9642     		cmp	r6, r2
 906 0296 40F2FA80 		bls	.L223
ARM GAS  C:\Users\Matuesz\AppData\Local\Temp\ccLA85Wr.s 			page 17


 907              		.loc 1 515 0
 908 029a DBF86810 		ldr	r1, [fp, #104]
 909              		.loc 1 510 0
 910 029e 2D8A     		ldrh	r5, [r5, #16]
 911              		.loc 1 515 0
 912 02a0 6701     		lsls	r7, r4, #5
 913 02a2 0297     		str	r7, [sp, #8]
 914 02a4 CF19     		adds	r7, r1, r7
 915              		.loc 1 509 0
 916 02a6 B61A     		subs	r6, r6, r2
 917              	.LVL113:
 918              		.loc 1 515 0
 919 02a8 D7F81829 		ldr	r2, [r7, #2328]
 920 02ac B542     		cmp	r5, r6
 921 02ae 28BF     		it	cs
 922 02b0 3546     		movcs	r5, r6
 923              	.LVL114:
 924 02b2 97B2     		uxth	r7, r2
 925 02b4 0134     		adds	r4, r4, #1
 926              	.LVL115:
 927 02b6 B5EB870F 		cmp	r5, r7, lsl #2
 928 02ba 0594     		str	r4, [sp, #20]
 929 02bc 47D8     		bhi	.L74
 930              		.loc 1 530 0
 931 02be 2603     		lsls	r6, r4, #12
 932 02c0 0196     		str	r6, [sp, #4]
 933              		.loc 1 535 0
 934 02c2 0393     		str	r3, [sp, #12]
 935              	.LVL116:
 936              	.L75:
 937              		.loc 1 522 0
 938 02c4 0378     		ldrb	r3, [r0, #0]	@ zero_extendqisi2
 939 02c6 002B     		cmp	r3, #0
 940 02c8 57D1     		bne	.L224
 941              		.loc 1 530 0
 942 02ca 019F     		ldr	r7, [sp, #4]
 943              	.LBB130:
 944              	.LBB131:
 945              		.loc 1 271 0
 946 02cc EA1C     		adds	r2, r5, #3
 947              	.LBB132:
 948              	.LBB133:
 949              		.loc 1 248 0
 950 02ce 5FEA920E 		lsrs	lr, r2, #2
 951              	.LBE133:
 952              	.LBE132:
 953              	.LBE131:
 954              	.LBE130:
 955              		.loc 1 530 0
 956 02d2 01EB0704 		add	r4, r1, r7
 957 02d6 C768     		ldr	r7, [r0, #12]
 958              	.LVL117:
 959              	.LBB140:
 960              	.LBB138:
 961              	.LBB136:
 962              	.LBB134:
 963              		.loc 1 248 0
ARM GAS  C:\Users\Matuesz\AppData\Local\Temp\ccLA85Wr.s 			page 18


 964 02d8 1ED0     		beq	.L98
 965              	.LBE134:
 966              	.LBE136:
 967              	.LBE138:
 968              	.LBE140:
 969              		.loc 1 697 0
 970 02da 3A46     		mov	r2, r7
 971 02dc 0EF1FF36 		add	r6, lr, #-1
 972              	.LBB141:
 973              	.LBB139:
 974              	.LBB137:
 975              	.LBB135:
 976              		.loc 1 251 0
 977 02e0 52F804CB 		ldr	ip, [r2], #4
 978              		.loc 1 248 0
 979 02e4 3346     		mov	r3, r6
 980 02e6 06F00109 		and	r9, r6, #1
 981              		.loc 1 251 0
 982 02ea 019E     		ldr	r6, [sp, #4]
 983 02ec 0432     		adds	r2, r2, #4
 984 02ee 41F806C0 		str	ip, [r1, r6]
 985              	.LVL118:
 986              		.loc 1 248 0
 987 02f2 8BB1     		cbz	r3, .L98
 988 02f4 B9F1000F 		cmp	r9, #0
 989 02f8 05D0     		beq	.L97
 990              		.loc 1 251 0
 991 02fa 52F8041C 		ldr	r1, [r2, #-4]
 992 02fe 0432     		adds	r2, r2, #4
 993              		.loc 1 248 0
 994 0300 013B     		subs	r3, r3, #1
 995              		.loc 1 251 0
 996 0302 2160     		str	r1, [r4, #0]
 997              	.LVL119:
 998              		.loc 1 248 0
 999 0304 08D0     		beq	.L98
 1000              	.L97:
 1001              		.loc 1 251 0
 1002 0306 52F8046C 		ldr	r6, [r2, #-4]
 1003 030a 2660     		str	r6, [r4, #0]
 1004 030c 52F8041B 		ldr	r1, [r2], #4
 1005 0310 0432     		adds	r2, r2, #4
 1006              		.loc 1 248 0
 1007 0312 023B     		subs	r3, r3, #2
 1008              		.loc 1 251 0
 1009 0314 2160     		str	r1, [r4, #0]
 1010              		.loc 1 248 0
 1011 0316 F6D1     		bne	.L97
 1012              	.L98:
 1013              	.LBE135:
 1014              	.LBE137:
 1015              	.LBE139:
 1016              	.LBE141:
 1017              		.loc 1 533 0
 1018 0318 7C19     		adds	r4, r7, r5
 1019              	.LVL120:
 1020 031a C460     		str	r4, [r0, #12]
ARM GAS  C:\Users\Matuesz\AppData\Local\Temp\ccLA85Wr.s 			page 19


 1021              	.LVL121:
 1022              	.L94:
 1023              		.loc 1 535 0
 1024 031c 0398     		ldr	r0, [sp, #12]
 1025 031e 4468     		ldr	r4, [r0, #4]
 1026 0320 6069     		ldr	r0, [r4, #20]
 1027 0322 8668     		ldr	r6, [r0, #8]
 1028              		.loc 1 505 0
 1029 0324 4268     		ldr	r2, [r0, #4]
 1030              		.loc 1 535 0
 1031 0326 AB19     		adds	r3, r5, r6
 1032              	.LVL122:
 1033              		.loc 1 505 0
 1034 0328 9A42     		cmp	r2, r3
 1035              		.loc 1 535 0
 1036 032a 8360     		str	r3, [r0, #8]
 1037              		.loc 1 505 0
 1038 032c 40F2B180 		bls	.L99
 1039              		.loc 1 515 0
 1040 0330 029D     		ldr	r5, [sp, #8]
 1041              	.LVL123:
 1042 0332 DBF86810 		ldr	r1, [fp, #104]
 1043              		.loc 1 510 0
 1044 0336 248A     		ldrh	r4, [r4, #16]
 1045              		.loc 1 515 0
 1046 0338 4F19     		adds	r7, r1, r5
 1047              		.loc 1 509 0
 1048 033a D51A     		subs	r5, r2, r3
 1049              	.LVL124:
 1050              		.loc 1 515 0
 1051 033c D7F81869 		ldr	r6, [r7, #2328]
 1052 0340 A542     		cmp	r5, r4
 1053 0342 28BF     		it	cs
 1054 0344 2546     		movcs	r5, r4
 1055              	.LVL125:
 1056 0346 B2B2     		uxth	r2, r6
 1057 0348 B5EB820F 		cmp	r5, r2, lsl #2
 1058 034c BAD9     		bls	.L75
 1059              	.L74:
 1060              	.LBB142:
 1061              	.LBB143:
 1062              		.loc 1 516 0
 1063 034e 0020     		movs	r0, #0
 1064              	.LVL126:
 1065              	.L72:
 1066              	.LBE143:
 1067              	.LBE142:
 1068              	.LBE129:
 1069              	.LBE128:
 1070              	.LBB156:
 1071              		.loc 1 742 0
 1072 0350 2023     		movs	r3, #32
 1073              	.LVL127:
 1074              	@ 742 "../../os/hal/platforms/STM32/OTGv1/usb_lld.c" 1
 1075 0352 83F31188 		msr     BASEPRI, r3
 1076              	@ 0 "" 2
 1077              	.LVL128:
ARM GAS  C:\Users\Matuesz\AppData\Local\Temp\ccLA85Wr.s 			page 20


 1078              		.thumb
 1079              	.LBE156:
 1080              		.loc 1 743 0
 1081 0356 DAF80810 		ldr	r1, [sl, #8]
 1082 035a 41F00104 		orr	r4, r1, #1
 1083 035e CAF80840 		str	r4, [sl, #8]
 1084              		.loc 1 744 0
 1085 0362 30B9     		cbnz	r0, .L101
 1086              		.loc 1 745 0
 1087 0364 DAF83458 		ldr	r5, [sl, #2100]
 1088 0368 049F     		ldr	r7, [sp, #16]
 1089 036a 47EA0506 		orr	r6, r7, r5
 1090 036e CAF83468 		str	r6, [sl, #2100]
 1091              	.L101:
 1092              	.LBB157:
 1093              		.loc 1 746 0
 1094 0372 0023     		movs	r3, #0
 1095              	.LVL129:
 1096              	@ 746 "../../os/hal/platforms/STM32/OTGv1/usb_lld.c" 1
 1097 0374 83F31188 		msr     BASEPRI, r3
 1098              	@ 0 "" 2
 1099              	.LVL130:
 1100              		.thumb
 1101 0378 BDE6     		b	.L70
 1102              	.LVL131:
 1103              	.L224:
 1104              	.LBE157:
 1105              	.LBB158:
 1106              	.LBB155:
 1107              		.loc 1 524 0
 1108 037a 019A     		ldr	r2, [sp, #4]
 1109 037c C468     		ldr	r4, [r0, #12]
 1110 037e 8918     		adds	r1, r1, r2
 1111              	.LVL132:
 1112              	.LBB154:
 1113              	.LBB153:
 1114              		.loc 1 289 0
 1115 0380 002D     		cmp	r5, #0
 1116 0382 35D0     		beq	.L86
 1117 0384 2069     		ldr	r0, [r4, #16]
 1118 0386 2A46     		mov	r2, r5
 1119 0388 AE46     		mov	lr, r5
 1120              	.LVL133:
 1121              	.L93:
 1122              	.LBB144:
 1123              		.loc 1 293 0
 1124 038a 9708     		lsrs	r7, r2, #2
 1125              	.LVL134:
 1126 038c 4BD0     		beq	.L80
 1127              	.LBB145:
 1128              		.loc 1 295 0
 1129 038e A569     		ldr	r5, [r4, #24]
 1130              	.LVL135:
 1131 0390 431B     		subs	r3, r0, r5
 1132 0392 48BF     		it	mi
 1133 0394 0333     		addmi	r3, r3, #3
 1134 0396 9B10     		asrs	r3, r3, #2
ARM GAS  C:\Users\Matuesz\AppData\Local\Temp\ccLA85Wr.s 			page 21


 1135              		.loc 1 297 0
 1136 0398 9F42     		cmp	r7, r3
 1137 039a 38BF     		it	cc
 1138 039c 3B46     		movcc	r3, r7
 1139              	.LVL136:
 1140 039e 4FEA830C 		lsl	ip, r3, #2
 1141 03a2 CCEB0202 		rsb	r2, ip, r2
 1142              	.LVL137:
 1143              	.LBB146:
 1144              	.LBB147:
 1145              		.loc 1 248 0
 1146 03a6 DBB1     		cbz	r3, .L82
 1147              		.loc 1 697 0
 1148 03a8 2E46     		mov	r6, r5
 1149 03aa 5F1E     		subs	r7, r3, #1
 1150              	.LVL138:
 1151              		.loc 1 251 0
 1152 03ac 56F8049B 		ldr	r9, [r6], #4
 1153              		.loc 1 248 0
 1154 03b0 3B46     		mov	r3, r7
 1155              	.LVL139:
 1156              		.loc 1 251 0
 1157 03b2 C1F80090 		str	r9, [r1, #0]
 1158              	.LVL140:
 1159 03b6 07F00107 		and	r7, r7, #1
 1160 03ba 0436     		adds	r6, r6, #4
 1161              		.loc 1 248 0
 1162 03bc 7BB1     		cbz	r3, .L204
 1163 03be 2FB1     		cbz	r7, .L83
 1164              		.loc 1 251 0
 1165 03c0 56F8047C 		ldr	r7, [r6, #-4]
 1166 03c4 0436     		adds	r6, r6, #4
 1167              		.loc 1 248 0
 1168 03c6 013B     		subs	r3, r3, #1
 1169              	.LVL141:
 1170              		.loc 1 251 0
 1171 03c8 0F60     		str	r7, [r1, #0]
 1172              	.LVL142:
 1173              		.loc 1 248 0
 1174 03ca 08D0     		beq	.L204
 1175              	.LVL143:
 1176              	.L83:
 1177              		.loc 1 251 0
 1178 03cc 56F8047C 		ldr	r7, [r6, #-4]
 1179 03d0 0F60     		str	r7, [r1, #0]
 1180 03d2 56F8047B 		ldr	r7, [r6], #4
 1181 03d6 0436     		adds	r6, r6, #4
 1182              		.loc 1 248 0
 1183 03d8 023B     		subs	r3, r3, #2
 1184              		.loc 1 251 0
 1185 03da 0F60     		str	r7, [r1, #0]
 1186              		.loc 1 248 0
 1187 03dc F6D1     		bne	.L83
 1188              	.L204:
 1189 03de 6544     		add	r5, r5, ip
 1190              	.LVL144:
 1191              	.L82:
ARM GAS  C:\Users\Matuesz\AppData\Local\Temp\ccLA85Wr.s 			page 22


 1192              	.LBE147:
 1193              	.LBE146:
 1194              		.loc 1 299 0
 1195 03e0 A842     		cmp	r0, r5
 1196              		.loc 1 298 0
 1197 03e2 A561     		str	r5, [r4, #24]
 1198              		.loc 1 299 0
 1199 03e4 1DD8     		bhi	.L84
 1200              		.loc 1 300 0
 1201 03e6 E668     		ldr	r6, [r4, #12]
 1202 03e8 A661     		str	r6, [r4, #24]
 1203              	.LBE145:
 1204              	.LBE144:
 1205              		.loc 1 289 0
 1206 03ea 002A     		cmp	r2, #0
 1207 03ec CDD1     		bne	.L93
 1208              	.LVL145:
 1209              	.L212:
 1210 03ee 7546     		mov	r5, lr
 1211              	.LVL146:
 1212              	.L86:
 1213              	.LBB148:
 1214              		.loc 1 324 0
 1215 03f0 2023     		movs	r3, #32
 1216              	.LVL147:
 1217              	@ 324 "../../os/hal/platforms/STM32/OTGv1/usb_lld.c" 1
 1218 03f2 83F31188 		msr     BASEPRI, r3
 1219              	@ 0 "" 2
 1220              	.LVL148:
 1221              		.thumb
 1222              	.LBE148:
 1223              		.loc 1 325 0
 1224 03f6 A168     		ldr	r1, [r4, #8]
 1225              	.LVL149:
 1226              		.loc 1 326 0
 1227 03f8 2068     		ldr	r0, [r4, #0]
 1228              		.loc 1 325 0
 1229 03fa 4F19     		adds	r7, r1, r5
 1230              		.loc 1 326 0
 1231 03fc A042     		cmp	r0, r4
 1232              		.loc 1 325 0
 1233 03fe A760     		str	r7, [r4, #8]
 1234              		.loc 1 326 0
 1235 0400 09D0     		beq	.L79
 1236              	.L138:
 1237              	.LVL150:
 1238              	.LBB149:
 1239              	.LBB150:
 1240              		.loc 2 62 0
 1241 0402 0368     		ldr	r3, [r0, #0]
 1242              	.LVL151:
 1243 0404 2360     		str	r3, [r4, #0]
 1244 0406 5C60     		str	r4, [r3, #4]
 1245              	.LBE150:
 1246              	.LBE149:
 1247              		.loc 1 327 0
 1248 0408 FFF7FEFF 		bl	chSchReadyI
ARM GAS  C:\Users\Matuesz\AppData\Local\Temp\ccLA85Wr.s 			page 23


 1249              	.LVL152:
 1250 040c C0F82480 		str	r8, [r0, #36]
 1251              		.loc 1 326 0
 1252 0410 2068     		ldr	r0, [r4, #0]
 1253 0412 A042     		cmp	r0, r4
 1254 0414 F5D1     		bne	.L138
 1255              	.LVL153:
 1256              	.L79:
 1257              		.loc 1 328 0
 1258 0416 FFF7FEFF 		bl	chSchRescheduleS
 1259              	.LVL154:
 1260              	.LBB151:
 1261              		.loc 1 329 0
 1262 041a 0023     		movs	r3, #0
 1263              	@ 329 "../../os/hal/platforms/STM32/OTGv1/usb_lld.c" 1
 1264 041c 83F31188 		msr     BASEPRI, r3
 1265              	@ 0 "" 2
 1266              	.LVL155:
 1267              		.thumb
 1268 0420 7CE7     		b	.L94
 1269              	.LVL156:
 1270              	.L84:
 1271              	.LBE151:
 1272              	.LBB152:
 1273              		.loc 1 307 0
 1274 0422 002A     		cmp	r2, #0
 1275 0424 E3D0     		beq	.L212
 1276              	.LVL157:
 1277              	.L80:
 1278              		.loc 1 314 0
 1279 0426 A669     		ldr	r6, [r4, #24]
 1280 0428 16F8013B 		ldrb	r3, [r6], #1	@ zero_extendqisi2
 1281              	.LVL158:
 1282              		.loc 1 315 0
 1283 042c B042     		cmp	r0, r6
 1284              		.loc 1 314 0
 1285 042e A661     		str	r6, [r4, #24]
 1286              		.loc 1 316 0
 1287 0430 9CBF     		itt	ls
 1288 0432 E668     		ldrls	r6, [r4, #12]
 1289 0434 A661     		strls	r6, [r4, #24]
 1290              		.loc 1 313 0
 1291 0436 012A     		cmp	r2, #1
 1292 0438 27D0     		beq	.L88
 1293              		.loc 1 314 0
 1294 043a A769     		ldr	r7, [r4, #24]
 1295 043c 17F8015B 		ldrb	r5, [r7], #1	@ zero_extendqisi2
 1296              		.loc 1 315 0
 1297 0440 B842     		cmp	r0, r7
 1298              		.loc 1 314 0
 1299 0442 A761     		str	r7, [r4, #24]
 1300              		.loc 1 316 0
 1301 0444 9CBF     		itt	ls
 1302 0446 E768     		ldrls	r7, [r4, #12]
 1303 0448 A761     		strls	r7, [r4, #24]
 1304              		.loc 1 313 0
 1305 044a 022A     		cmp	r2, #2
ARM GAS  C:\Users\Matuesz\AppData\Local\Temp\ccLA85Wr.s 			page 24


 1306              		.loc 1 314 0
 1307 044c 43EA0523 		orr	r3, r3, r5, lsl #8
 1308              	.LVL159:
 1309              		.loc 1 313 0
 1310 0450 1BD0     		beq	.L88
 1311              		.loc 1 314 0
 1312 0452 A769     		ldr	r7, [r4, #24]
 1313 0454 17F8016B 		ldrb	r6, [r7], #1	@ zero_extendqisi2
 1314              		.loc 1 315 0
 1315 0458 B842     		cmp	r0, r7
 1316              		.loc 1 314 0
 1317 045a A761     		str	r7, [r4, #24]
 1318              		.loc 1 316 0
 1319 045c 9CBF     		itt	ls
 1320 045e E768     		ldrls	r7, [r4, #12]
 1321 0460 A761     		strls	r7, [r4, #24]
 1322              		.loc 1 313 0
 1323 0462 032A     		cmp	r2, #3
 1324              		.loc 1 314 0
 1325 0464 43EA0643 		orr	r3, r3, r6, lsl #16
 1326              	.LVL160:
 1327              		.loc 1 313 0
 1328 0468 0FD0     		beq	.L88
 1329              		.loc 1 314 0
 1330 046a A569     		ldr	r5, [r4, #24]
 1331 046c 15F8017B 		ldrb	r7, [r5], #1	@ zero_extendqisi2
 1332              		.loc 1 315 0
 1333 0470 8542     		cmp	r5, r0
 1334              		.loc 1 314 0
 1335 0472 A561     		str	r5, [r4, #24]
 1336              		.loc 1 316 0
 1337 0474 24BF     		itt	cs
 1338 0476 E568     		ldrcs	r5, [r4, #12]
 1339 0478 A561     		strcs	r5, [r4, #24]
 1340              		.loc 1 313 0
 1341 047a 043A     		subs	r2, r2, #4
 1342              	.LVL161:
 1343              		.loc 1 314 0
 1344 047c 43EA0763 		orr	r3, r3, r7, lsl #24
 1345              	.LVL162:
 1346              		.loc 1 313 0
 1347 0480 03D0     		beq	.L88
 1348              	.LVL163:
 1349              	.L92:
 1350              		.loc 1 320 0
 1351 0482 0B60     		str	r3, [r1, #0]
 1352              	.LVL164:
 1353              	.LBE152:
 1354              		.loc 1 289 0
 1355 0484 002A     		cmp	r2, #0
 1356 0486 80D1     		bne	.L93
 1357 0488 B1E7     		b	.L212
 1358              	.LVL165:
 1359              	.L88:
 1360 048a 0022     		movs	r2, #0
 1361 048c F9E7     		b	.L92
 1362              	.LVL166:
ARM GAS  C:\Users\Matuesz\AppData\Local\Temp\ccLA85Wr.s 			page 25


 1363              	.L223:
 1364 048e 631C     		adds	r3, r4, #1
 1365 0490 0593     		str	r3, [sp, #20]
 1366              	.LVL167:
 1367              	.L99:
 1368              		.loc 1 506 0
 1369 0492 0120     		movs	r0, #1
 1370 0494 5CE7     		b	.L72
 1371              	.LBE153:
 1372              	.LBE154:
 1373              	.LBE155:
 1374              	.LBE158:
 1375              	.LBE124:
 1376              	.LBE159:
 1377              		.cfi_endproc
 1378              	.LFE136:
 1379              		.size	usb_lld_pump, .-usb_lld_pump
 1380 0496 00BFAFF3 		.section	.text.usb_lld_init,"ax",%progbits
 1380      0080AFF3 
 1380      0080
 1381              		.align	2
 1382              		.p2align 4,,15
 1383              		.global	usb_lld_init
 1384              		.thumb
 1385              		.thumb_func
 1386              		.type	usb_lld_init, %function
 1387              	usb_lld_init:
 1388              	.LFB139:
 1389              		.loc 1 802 0
 1390              		.cfi_startproc
 1391              		@ args = 0, pretend = 0, frame = 0
 1392              		@ frame_needed = 0, uses_anonymous_args = 0
 1393 0000 70B5     		push	{r4, r5, r6, lr}
 1394              	.LCFI4:
 1395              		.cfi_def_cfa_offset 16
 1396              		.cfi_offset 4, -16
 1397              		.cfi_offset 5, -12
 1398              		.cfi_offset 6, -8
 1399              		.cfi_offset 14, -4
 1400              		.loc 1 806 0
 1401 0002 40F20005 		movw	r5, #:lower16:.LANCHOR0
 1402 0006 C0F20005 		movt	r5, #:upper16:.LANCHOR0
 1403 000a 2846     		mov	r0, r5
 1404              		.loc 1 828 0
 1405 000c 40F20004 		movw	r4, #:lower16:.LANCHOR2
 1406              		.loc 1 806 0
 1407 0010 FFF7FEFF 		bl	usbObjectInit
 1408              	.LVL168:
 1409              		.loc 1 828 0
 1410 0014 C0F20004 		movt	r4, #:upper16:.LANCHOR2
 1411              		.loc 1 810 0
 1412 0018 40F20001 		movw	r1, #:lower16:.LANCHOR1
 1413              		.loc 1 807 0
 1414 001c 0026     		movs	r6, #0
 1415              		.loc 1 828 0
 1416 001e 2046     		mov	r0, r4
 1417              		.loc 1 809 0
ARM GAS  C:\Users\Matuesz\AppData\Local\Temp\ccLA85Wr.s 			page 26


 1418 0020 4FF0A043 		mov	r3, #1342177280
 1419              		.loc 1 810 0
 1420 0024 C0F20001 		movt	r1, #:upper16:.LANCHOR1
 1421              		.loc 1 807 0
 1422 0028 AE67     		str	r6, [r5, #120]
 1423              		.loc 1 808 0
 1424 002a EE67     		str	r6, [r5, #124]
 1425              		.loc 1 809 0
 1426 002c AB66     		str	r3, [r5, #104]
 1427              		.loc 1 810 0
 1428 002e E966     		str	r1, [r5, #108]
 1429              		.loc 1 828 0
 1430 0030 FFF7FEFF 		bl	usbObjectInit
 1431              	.LVL169:
 1432              		.loc 1 831 0
 1433 0034 3046     		mov	r0, r6
 1434              		.loc 1 832 0
 1435 0036 40F20002 		movw	r2, #:lower16:.LANCHOR3
 1436              		.loc 1 831 0
 1437 003a C4F20400 		movt	r0, 16388
 1438              		.loc 1 832 0
 1439 003e C0F20002 		movt	r2, #:upper16:.LANCHOR3
 1440              		.loc 1 829 0
 1441 0042 A667     		str	r6, [r4, #120]
 1442              		.loc 1 830 0
 1443 0044 E667     		str	r6, [r4, #124]
 1444              		.loc 1 831 0
 1445 0046 A066     		str	r0, [r4, #104]
 1446              		.loc 1 832 0
 1447 0048 E266     		str	r2, [r4, #108]
 1448 004a 70BD     		pop	{r4, r5, r6, pc}
 1449              		.cfi_endproc
 1450              	.LFE139:
 1451              		.size	usb_lld_init, .-usb_lld_init
 1452 004c AFF30080 		.section	.text.usb_lld_start,"ax",%progbits
 1453              		.align	2
 1454              		.p2align 4,,15
 1455              		.global	usb_lld_start
 1456              		.thumb
 1457              		.thumb_func
 1458              		.type	usb_lld_start, %function
 1459              	usb_lld_start:
 1460              	.LFB140:
 1461              		.loc 1 860 0
 1462              		.cfi_startproc
 1463              		@ args = 0, pretend = 0, frame = 0
 1464              		@ frame_needed = 0, uses_anonymous_args = 0
 1465              	.LVL170:
 1466 0000 70B5     		push	{r4, r5, r6, lr}
 1467              	.LCFI5:
 1468              		.cfi_def_cfa_offset 16
 1469              		.cfi_offset 4, -16
 1470              		.cfi_offset 5, -12
 1471              		.cfi_offset 6, -8
 1472              		.cfi_offset 14, -4
 1473              		.loc 1 863 0
 1474 0002 0378     		ldrb	r3, [r0, #0]	@ zero_extendqisi2
ARM GAS  C:\Users\Matuesz\AppData\Local\Temp\ccLA85Wr.s 			page 27


 1475              		.loc 1 861 0
 1476 0004 866E     		ldr	r6, [r0, #104]
 1477              	.LVL171:
 1478              		.loc 1 863 0
 1479 0006 012B     		cmp	r3, #1
 1480              		.loc 1 860 0
 1481 0008 82B0     		sub	sp, sp, #8
 1482              	.LCFI6:
 1483              		.cfi_def_cfa_offset 24
 1484              		.loc 1 860 0
 1485 000a 0546     		mov	r5, r0
 1486              		.loc 1 863 0
 1487 000c 01D0     		beq	.L239
 1488              	.LVL172:
 1489              	.L228:
 1490              		.loc 1 946 0
 1491 000e 02B0     		add	sp, sp, #8
 1492 0010 70BD     		pop	{r4, r5, r6, pc}
 1493              	.LVL173:
 1494              	.L239:
 1495              		.loc 1 866 0
 1496 0012 4048     		ldr	r0, .L244
 1497              	.LVL174:
 1498 0014 8542     		cmp	r5, r0
 1499 0016 4FD0     		beq	.L240
 1500              		.loc 1 877 0
 1501 0018 3F49     		ldr	r1, .L244+4
 1502 001a 8D42     		cmp	r5, r1
 1503 001c 5FD0     		beq	.L241
 1504              	.L231:
 1505              		.loc 1 895 0
 1506 001e AC6F     		ldr	r4, [r5, #120]
 1507              		.loc 1 894 0
 1508 0020 0020     		movs	r0, #0
 1509 0022 6867     		str	r0, [r5, #116]
 1510              		.loc 1 895 0
 1511 0024 002C     		cmp	r4, #0
 1512 0026 3BD0     		beq	.L242
 1513              	.L232:
 1514              		.loc 1 905 0
 1515 0028 4FF4A251 		mov	r1, #5184
 1516 002c C4F20001 		movt	r1, 16384
 1517              		.loc 1 908 0
 1518 0030 0322     		movs	r2, #3
 1519              		.loc 1 905 0
 1520 0032 F160     		str	r1, [r6, #12]
 1521              		.loc 1 908 0
 1522 0034 C0F22022 		movt	r2, 544
 1523              		.loc 1 911 0
 1524 0038 0023     		movs	r3, #0
 1525              		.loc 1 918 0
 1526 003a 4FF45021 		mov	r1, #851968
 1527              	.LBB162:
 1528              	.LBB163:
 1529              		.loc 1 131 0
 1530 003e AC6E     		ldr	r4, [r5, #104]
 1531              	.LBE163:
ARM GAS  C:\Users\Matuesz\AppData\Local\Temp\ccLA85Wr.s 			page 28


 1532              	.LBE162:
 1533              		.loc 1 908 0
 1534 0040 C6F80028 		str	r2, [r6, #2048]
 1535              	.LBB166:
 1536              	.LBB164:
 1537              		.loc 1 133 0
 1538 0044 2020     		movs	r0, #32
 1539              	.LBE164:
 1540              	.LBE166:
 1541              		.loc 1 911 0
 1542 0046 C6F8003E 		str	r3, [r6, #3584]
 1543              		.loc 1 918 0
 1544 004a B163     		str	r1, [r6, #56]
 1545              	.LVL175:
 1546              	.LBB167:
 1547              	.LBB165:
 1548              		.loc 1 133 0
 1549 004c FFF7FEFF 		bl	halPolledDelay
 1550              	.LVL176:
 1551              		.loc 1 136 0
 1552 0050 0120     		movs	r0, #1
 1553 0052 2061     		str	r0, [r4, #16]
 1554              	.L233:
 1555              		.loc 1 137 0
 1556 0054 2269     		ldr	r2, [r4, #16]
 1557 0056 D307     		lsls	r3, r2, #31
 1558 0058 FCD4     		bmi	.L233
 1559              		.loc 1 140 0
 1560 005a 0C20     		movs	r0, #12
 1561 005c FFF7FEFF 		bl	halPolledDelay
 1562              	.LVL177:
 1563              	.L234:
 1564              		.loc 1 143 0
 1565 0060 2369     		ldr	r3, [r4, #16]
 1566 0062 002B     		cmp	r3, #0
 1567 0064 FCDA     		bge	.L234
 1568              	.LBE165:
 1569              	.LBE167:
 1570              		.loc 1 925 0
 1571 0066 0024     		movs	r4, #0
 1572              	.LVL178:
 1573              		.loc 1 928 0
 1574 0068 2846     		mov	r0, r5
 1575              		.loc 1 925 0
 1576 006a B460     		str	r4, [r6, #8]
 1577              		.loc 1 928 0
 1578 006c FFF7FEFF 		bl	otg_disable_ep
 1579              	.LVL179:
 1580              		.loc 1 935 0
 1581 0070 6968     		ldr	r1, [r5, #4]
 1582              		.loc 1 932 0
 1583 0072 C6F81048 		str	r4, [r6, #2064]
 1584              		.loc 1 935 0
 1585 0076 C868     		ldr	r0, [r1, #12]
 1586              		.loc 1 933 0
 1587 0078 C6F81448 		str	r4, [r6, #2068]
 1588              		.loc 1 934 0
ARM GAS  C:\Users\Matuesz\AppData\Local\Temp\ccLA85Wr.s 			page 29


 1589 007c C6F81C48 		str	r4, [r6, #2076]
 1590              		.loc 1 935 0
 1591 0080 50B1     		cbz	r0, .L243
 1592              		.loc 1 939 0
 1593 0082 43F20802 		movw	r2, #12296
 1594 0086 B261     		str	r2, [r6, #24]
 1595              	.L236:
 1596              		.loc 1 941 0
 1597 0088 4FF0FF31 		mov	r1, #-1
 1598 008c 7161     		str	r1, [r6, #20]
 1599              		.loc 1 944 0
 1600 008e B068     		ldr	r0, [r6, #8]
 1601 0090 40F00102 		orr	r2, r0, #1
 1602 0094 B260     		str	r2, [r6, #8]
 1603 0096 BAE7     		b	.L228
 1604              	.L243:
 1605              		.loc 1 936 0
 1606 0098 4FF44053 		mov	r3, #12288
 1607 009c B361     		str	r3, [r6, #24]
 1608 009e F3E7     		b	.L236
 1609              	.LVL180:
 1610              	.L242:
 1611              		.loc 1 896 0
 1612 00a0 0095     		str	r5, [sp, #0]
 1613 00a2 05F18000 		add	r0, r5, #128
 1614 00a6 4FF4A871 		mov	r1, #336
 1615 00aa 0222     		movs	r2, #2
 1616 00ac 1B4B     		ldr	r3, .L244+8
 1617 00ae FFF7FEFF 		bl	chThdCreateI
 1618              	.LVL181:
 1619 00b2 E867     		str	r0, [r5, #124]
 1620 00b4 A867     		str	r0, [r5, #120]
 1621 00b6 B7E7     		b	.L232
 1622              	.L240:
 1623              		.loc 1 868 0
 1624 00b8 4FF46054 		mov	r4, #14336
 1625 00bc C4F20204 		movt	r4, 16386
 1626 00c0 636B     		ldr	r3, [r4, #52]
 1627 00c2 43F08000 		orr	r0, r3, #128
 1628 00c6 6063     		str	r0, [r4, #52]
 1629              		.loc 1 869 0
 1630 00c8 6169     		ldr	r1, [r4, #20]
 1631 00ca 0023     		movs	r3, #0
 1632 00cc 41F08002 		orr	r2, r1, #128
 1633 00d0 6261     		str	r2, [r4, #20]
 1634              		.loc 1 872 0
 1635 00d2 4320     		movs	r0, #67
 1636              		.loc 1 869 0
 1637 00d4 6361     		str	r3, [r4, #20]
 1638              		.loc 1 872 0
 1639 00d6 E021     		movs	r1, #224
 1640 00d8 FFF7FEFF 		bl	nvicEnableVector
 1641              	.LVL182:
 1642 00dc 9FE7     		b	.L231
 1643              	.L241:
 1644              		.loc 1 879 0
 1645 00de 4FF46054 		mov	r4, #14336
ARM GAS  C:\Users\Matuesz\AppData\Local\Temp\ccLA85Wr.s 			page 30


 1646 00e2 C4F20204 		movt	r4, 16386
 1647 00e6 226B     		ldr	r2, [r4, #48]
 1648 00e8 42F00053 		orr	r3, r2, #536870912
 1649 00ec 2363     		str	r3, [r4, #48]
 1650              		.loc 1 880 0
 1651 00ee 2069     		ldr	r0, [r4, #16]
 1652 00f0 0022     		movs	r2, #0
 1653 00f2 40F08051 		orr	r1, r0, #268435456
 1654 00f6 2161     		str	r1, [r4, #16]
 1655 00f8 2261     		str	r2, [r4, #16]
 1656              		.loc 1 884 0
 1657 00fa 236B     		ldr	r3, [r4, #48]
 1658 00fc 23F08040 		bic	r0, r3, #1073741824
 1659 0100 2063     		str	r0, [r4, #48]
 1660 0102 216D     		ldr	r1, [r4, #80]
 1661 0104 21F08042 		bic	r2, r1, #1073741824
 1662 0108 2265     		str	r2, [r4, #80]
 1663              		.loc 1 887 0
 1664 010a 4D20     		movs	r0, #77
 1665 010c E021     		movs	r1, #224
 1666 010e FFF7FEFF 		bl	nvicEnableVector
 1667              	.LVL183:
 1668 0112 84E7     		b	.L231
 1669              	.L245:
 1670              		.align	2
 1671              	.L244:
 1672 0114 00000000 		.word	.LANCHOR0
 1673 0118 00000000 		.word	.LANCHOR2
 1674 011c 00000000 		.word	usb_lld_pump
 1675              		.cfi_endproc
 1676              	.LFE140:
 1677              		.size	usb_lld_start, .-usb_lld_start
 1678              		.section	.text.usb_lld_stop,"ax",%progbits
 1679              		.align	2
 1680              		.p2align 4,,15
 1681              		.global	usb_lld_stop
 1682              		.thumb
 1683              		.thumb_func
 1684              		.type	usb_lld_stop, %function
 1685              	usb_lld_stop:
 1686              	.LFB141:
 1687              		.loc 1 955 0
 1688              		.cfi_startproc
 1689              		@ args = 0, pretend = 0, frame = 0
 1690              		@ frame_needed = 0, uses_anonymous_args = 0
 1691              	.LVL184:
 1692 0000 38B5     		push	{r3, r4, r5, lr}
 1693              	.LCFI7:
 1694              		.cfi_def_cfa_offset 16
 1695              		.cfi_offset 3, -16
 1696              		.cfi_offset 4, -12
 1697              		.cfi_offset 5, -8
 1698              		.cfi_offset 14, -4
 1699              		.loc 1 959 0
 1700 0002 0378     		ldrb	r3, [r0, #0]	@ zero_extendqisi2
 1701              		.loc 1 956 0
 1702 0004 856E     		ldr	r5, [r0, #104]
ARM GAS  C:\Users\Matuesz\AppData\Local\Temp\ccLA85Wr.s 			page 31


 1703              	.LVL185:
 1704              		.loc 1 959 0
 1705 0006 012B     		cmp	r3, #1
 1706              		.loc 1 955 0
 1707 0008 0446     		mov	r4, r0
 1708              		.loc 1 959 0
 1709 000a 07D0     		beq	.L246
 1710              		.loc 1 963 0
 1711 000c FFF7FEFF 		bl	otg_disable_ep
 1712              	.LVL186:
 1713              		.loc 1 965 0
 1714 0010 0020     		movs	r0, #0
 1715 0012 6067     		str	r0, [r4, #116]
 1716              		.loc 1 967 0
 1717 0014 C5F81C08 		str	r0, [r5, #2076]
 1718              		.loc 1 968 0
 1719 0018 A860     		str	r0, [r5, #8]
 1720              		.loc 1 969 0
 1721 001a A863     		str	r0, [r5, #56]
 1722              	.L246:
 1723 001c 38BD     		pop	{r3, r4, r5, pc}
 1724              		.cfi_endproc
 1725              	.LFE141:
 1726              		.size	usb_lld_stop, .-usb_lld_stop
 1727 001e 00BF     		.section	.text.usb_lld_reset,"ax",%progbits
 1728              		.align	2
 1729              		.p2align 4,,15
 1730              		.global	usb_lld_reset
 1731              		.thumb
 1732              		.thumb_func
 1733              		.type	usb_lld_reset, %function
 1734              	usb_lld_reset:
 1735              	.LFB142:
 1736              		.loc 1 994 0
 1737              		.cfi_startproc
 1738              		@ args = 0, pretend = 0, frame = 0
 1739              		@ frame_needed = 0, uses_anonymous_args = 0
 1740              	.LVL187:
 1741 0000 2DE9F84F 		push	{r3, r4, r5, r6, r7, r8, r9, sl, fp, lr}
 1742              	.LCFI8:
 1743              		.cfi_def_cfa_offset 40
 1744              		.cfi_offset 3, -40
 1745              		.cfi_offset 4, -36
 1746              		.cfi_offset 5, -32
 1747              		.cfi_offset 6, -28
 1748              		.cfi_offset 7, -24
 1749              		.cfi_offset 8, -20
 1750              		.cfi_offset 9, -16
 1751              		.cfi_offset 10, -12
 1752              		.cfi_offset 11, -8
 1753              		.cfi_offset 14, -4
 1754              		.loc 1 994 0
 1755 0004 8046     		mov	r8, r0
 1756              		.loc 1 999 0
 1757 0006 0021     		movs	r1, #0
 1758              		.loc 1 996 0
 1759 0008 846E     		ldr	r4, [r0, #104]
ARM GAS  C:\Users\Matuesz\AppData\Local\Temp\ccLA85Wr.s 			page 32


 1760              	.LVL188:
 1761              		.loc 1 999 0
 1762 000a FFF7FEFF 		bl	otg_txfifo_flush
 1763              	.LVL189:
 1764 000e D8F86CB0 		ldr	fp, [r8, #108]
 1765 0012 DBF808A0 		ldr	sl, [fp, #8]
 1766              		.loc 1 1003 0
 1767 0016 4FF00061 		mov	r1, #134217728
 1768              		.loc 1 1005 0
 1769 001a FF22     		movs	r2, #255
 1770              		.loc 1 1003 0
 1771 001c C4F80019 		str	r1, [r4, #2304]
 1772 0020 0AF00106 		and	r6, sl, #1
 1773              		.loc 1 1004 0
 1774 0024 C4F8001B 		str	r1, [r4, #2816]
 1775              		.loc 1 1002 0
 1776 0028 0123     		movs	r3, #1
 1777              		.loc 1 1005 0
 1778 002a C4F80829 		str	r2, [r4, #2312]
 1779              		.loc 1 1006 0
 1780 002e C4F8082B 		str	r2, [r4, #2824]
 1781              		.loc 1 1002 0
 1782 0032 BAF1000F 		cmp	sl, #0
 1783 0036 33D0     		beq	.L262
 1784 0038 66B1     		cbz	r6, .L252
 1785 003a 0223     		movs	r3, #2
 1786 003c 5345     		cmp	r3, sl
 1787              		.loc 1 1003 0
 1788 003e C4F82019 		str	r1, [r4, #2336]
 1789 0042 04F51267 		add	r7, r4, #2336
 1790              		.loc 1 1004 0
 1791 0046 C4F8201B 		str	r1, [r4, #2848]
 1792              		.loc 1 1005 0
 1793 004a C4F82829 		str	r2, [r4, #2344]
 1794              		.loc 1 1006 0
 1795 004e C4F8282B 		str	r2, [r4, #2856]
 1796              		.loc 1 1002 0
 1797 0052 25D8     		bhi	.L262
 1798              	.L252:
 1799              		.loc 1 1002 0 is_stmt 0 discriminator 2
 1800 0054 5F1C     		adds	r7, r3, #1
 1801              		.loc 1 1003 0 is_stmt 1 discriminator 2
 1802 0056 03F14809 		add	r9, r3, #72
 1803              		.loc 1 1004 0 discriminator 2
 1804 005a 03F15800 		add	r0, r3, #88
 1805              		.loc 1 1003 0 discriminator 2
 1806 005e 03F1490C 		add	ip, r3, #73
 1807              		.loc 1 1004 0 discriminator 2
 1808 0062 03F1590E 		add	lr, r3, #89
 1809              		.loc 1 1005 0 discriminator 2
 1810 0066 04EB4316 		add	r6, r4, r3, lsl #5
 1811 006a 04EB4715 		add	r5, r4, r7, lsl #5
 1812              		.loc 1 1004 0 discriminator 2
 1813 006e 4001     		lsls	r0, r0, #5
 1814              		.loc 1 1003 0 discriminator 2
 1815 0070 4FEA4919 		lsl	r9, r9, #5
 1816 0074 4FEA4C1C 		lsl	ip, ip, #5
ARM GAS  C:\Users\Matuesz\AppData\Local\Temp\ccLA85Wr.s 			page 33


 1817              		.loc 1 1004 0 discriminator 2
 1818 0078 4FEA4E1E 		lsl	lr, lr, #5
 1819              		.loc 1 1002 0 discriminator 2
 1820 007c 0233     		adds	r3, r3, #2
 1821 007e 5345     		cmp	r3, sl
 1822              		.loc 1 1003 0 discriminator 2
 1823 0080 44F80910 		str	r1, [r4, r9]
 1824              		.loc 1 1004 0 discriminator 2
 1825 0084 2150     		str	r1, [r4, r0]
 1826              		.loc 1 1005 0 discriminator 2
 1827 0086 C6F80829 		str	r2, [r6, #2312]
 1828              		.loc 1 1006 0 discriminator 2
 1829 008a C6F8082B 		str	r2, [r6, #2824]
 1830              		.loc 1 1003 0 discriminator 2
 1831 008e 44F80C10 		str	r1, [r4, ip]
 1832              		.loc 1 1004 0 discriminator 2
 1833 0092 44F80E10 		str	r1, [r4, lr]
 1834              		.loc 1 1005 0 discriminator 2
 1835 0096 C5F80829 		str	r2, [r5, #2312]
 1836              		.loc 1 1006 0 discriminator 2
 1837 009a C5F8082B 		str	r2, [r5, #2824]
 1838              		.loc 1 1002 0 discriminator 2
 1839 009e D9D9     		bls	.L252
 1840              	.L262:
 1841              	.LBB174:
 1842              	.LBB175:
 1843              		.loc 1 213 0
 1844 00a0 DBF80030 		ldr	r3, [fp, #0]
 1845              	.LBE175:
 1846              	.LBE174:
 1847              	.LBB177:
 1848              	.LBB178:
 1849              		.loc 1 185 0
 1850 00a4 D8F86820 		ldr	r2, [r8, #104]
 1851              	.LBE178:
 1852              	.LBE177:
 1853              		.loc 1 1010 0
 1854 00a8 4FF0FF31 		mov	r1, #-1
 1855              		.loc 1 1011 0
 1856 00ac 4FF00116 		mov	r6, #65537
 1857              	.LBB181:
 1858              	.LBB179:
 1859              		.loc 1 187 0
 1860 00b0 1025     		movs	r5, #16
 1861              	.LBE179:
 1862              	.LBE181:
 1863              		.loc 1 1010 0
 1864 00b2 C4F81818 		str	r1, [r4, #2072]
 1865              		.loc 1 1011 0
 1866 00b6 C4F81C68 		str	r6, [r4, #2076]
 1867              	.LVL190:
 1868              	.LBB182:
 1869              	.LBB176:
 1870              		.loc 1 213 0
 1871 00ba C8F87030 		str	r3, [r8, #112]
 1872              	.LBE176:
 1873              	.LBE182:
ARM GAS  C:\Users\Matuesz\AppData\Local\Temp\ccLA85Wr.s 			page 34


 1874              		.loc 1 1017 0
 1875 00be 6362     		str	r3, [r4, #36]
 1876              	.LVL191:
 1877              	.LBB183:
 1878              	.LBB180:
 1879              		.loc 1 187 0
 1880 00c0 1561     		str	r5, [r2, #16]
 1881              	.L253:
 1882              		.loc 1 188 0
 1883 00c2 1069     		ldr	r0, [r2, #16]
 1884 00c4 10F01005 		ands	r5, r0, #16
 1885 00c8 FBD1     		bne	.L253
 1886              		.loc 1 191 0
 1887 00ca 0C20     		movs	r0, #12
 1888 00cc FFF7FEFF 		bl	halPolledDelay
 1889              	.LVL192:
 1890              	.LBE180:
 1891              	.LBE183:
 1892              		.loc 1 1021 0
 1893 00d0 D4F80038 		ldr	r3, [r4, #2048]
 1894              	.LBB184:
 1895              	.LBB185:
 1896              		.loc 1 227 0
 1897 00d4 D8F87010 		ldr	r1, [r8, #112]
 1898              	.LBE185:
 1899              	.LBE184:
 1900              		.loc 1 1021 0
 1901 00d8 23F4FE62 		bic	r2, r3, #2032
 1902 00dc C4F80028 		str	r2, [r4, #2048]
 1903              		.loc 1 1024 0
 1904 00e0 A669     		ldr	r6, [r4, #24]
 1905 00e2 46F44020 		orr	r0, r6, #786432
 1906              		.loc 1 1025 0
 1907 00e6 0922     		movs	r2, #9
 1908              		.loc 1 1024 0
 1909 00e8 40F01006 		orr	r6, r0, #16
 1910 00ec A661     		str	r6, [r4, #24]
 1911              		.loc 1 1031 0
 1912 00ee 48F24003 		movw	r3, #32832
 1913              		.loc 1 1025 0
 1914 00f2 C4F81028 		str	r2, [r4, #2064]
 1915              		.loc 1 1026 0
 1916 00f6 C4F81428 		str	r2, [r4, #2068]
 1917              		.loc 1 1029 0
 1918 00fa 0B4A     		ldr	r2, .L263
 1919              		.loc 1 1031 0
 1920 00fc C1F20003 		movt	r3, 4096
 1921              	.LBB188:
 1922              	.LBB186:
 1923              		.loc 1 228 0
 1924 0100 01F11000 		add	r0, r1, #16
 1925              	.LBE186:
 1926              	.LBE188:
 1927              		.loc 1 1036 0
 1928 0104 41F48011 		orr	r1, r1, #1048576
 1929              		.loc 1 1029 0
 1930 0108 C8F80C20 		str	r2, [r8, #12]
ARM GAS  C:\Users\Matuesz\AppData\Local\Temp\ccLA85Wr.s 			page 35


 1931              		.loc 1 1030 0
 1932 010c C4F8105B 		str	r5, [r4, #2832]
 1933              		.loc 1 1031 0
 1934 0110 C4F8003B 		str	r3, [r4, #2816]
 1935              		.loc 1 1033 0
 1936 0114 C4F81059 		str	r5, [r4, #2320]
 1937              		.loc 1 1034 0
 1938 0118 C4F80039 		str	r3, [r4, #2304]
 1939              	.LVL193:
 1940              	.LBB189:
 1941              	.LBB187:
 1942              		.loc 1 228 0
 1943 011c C8F87000 		str	r0, [r8, #112]
 1944              	.LBE187:
 1945              	.LBE189:
 1946              		.loc 1 1036 0
 1947 0120 A162     		str	r1, [r4, #40]
 1948 0122 BDE8F88F 		pop	{r3, r4, r5, r6, r7, r8, r9, sl, fp, pc}
 1949              	.L264:
 1950 0126 00BF     		.align	2
 1951              	.L263:
 1952 0128 00000000 		.word	.LANCHOR4
 1953              		.cfi_endproc
 1954              	.LFE142:
 1955              		.size	usb_lld_reset, .-usb_lld_reset
 1956 012c AFF30080 		.section	.text.usb_lld_set_address,"ax",%progbits
 1957              		.align	2
 1958              		.p2align 4,,15
 1959              		.global	usb_lld_set_address
 1960              		.thumb
 1961              		.thumb_func
 1962              		.type	usb_lld_set_address, %function
 1963              	usb_lld_set_address:
 1964              	.LFB143:
 1965              		.loc 1 1048 0
 1966              		.cfi_startproc
 1967              		@ args = 0, pretend = 0, frame = 0
 1968              		@ frame_needed = 0, uses_anonymous_args = 0
 1969              		@ link register save eliminated.
 1970              	.LVL194:
 1971              		.loc 1 1049 0
 1972 0000 836E     		ldr	r3, [r0, #104]
 1973              	.LVL195:
 1974              		.loc 1 1051 0
 1975 0002 90F86610 		ldrb	r1, [r0, #102]	@ zero_extendqisi2
 1976 0006 D3F80028 		ldr	r2, [r3, #2048]
 1977 000a 22F4FE60 		bic	r0, r2, #2032
 1978              	.LVL196:
 1979 000e 40EA0111 		orr	r1, r0, r1, lsl #4
 1980 0012 C3F80018 		str	r1, [r3, #2048]
 1981 0016 7047     		bx	lr
 1982              		.cfi_endproc
 1983              	.LFE143:
 1984              		.size	usb_lld_set_address, .-usb_lld_set_address
 1985 0018 AFF30080 		.section	.text.usb_lld_init_endpoint,"ax",%progbits
 1985      AFF30080 
 1986              		.align	2
ARM GAS  C:\Users\Matuesz\AppData\Local\Temp\ccLA85Wr.s 			page 36


 1987              		.p2align 4,,15
 1988              		.global	usb_lld_init_endpoint
 1989              		.thumb
 1990              		.thumb_func
 1991              		.type	usb_lld_init_endpoint, %function
 1992              	usb_lld_init_endpoint:
 1993              	.LFB144:
 1994              		.loc 1 1062 0
 1995              		.cfi_startproc
 1996              		@ args = 0, pretend = 0, frame = 0
 1997              		@ frame_needed = 0, uses_anonymous_args = 0
 1998              	.LVL197:
 1999 0000 2DE9F041 		push	{r4, r5, r6, r7, r8, lr}
 2000              	.LCFI9:
 2001              		.cfi_def_cfa_offset 24
 2002              		.cfi_offset 4, -24
 2003              		.cfi_offset 5, -20
 2004              		.cfi_offset 6, -16
 2005              		.cfi_offset 7, -12
 2006              		.cfi_offset 8, -8
 2007              		.cfi_offset 14, -4
 2008              		.loc 1 1067 0
 2009 0004 8F1C     		adds	r7, r1, #2
 2010 0006 00EB8703 		add	r3, r0, r7, lsl #2
 2011              		.loc 1 1062 0
 2012 000a 0646     		mov	r6, r0
 2013              		.loc 1 1067 0
 2014 000c 5B68     		ldr	r3, [r3, #4]
 2015              		.loc 1 1064 0
 2016 000e 846E     		ldr	r4, [r0, #104]
 2017              	.LVL198:
 2018              		.loc 1 1067 0
 2019 0010 1A68     		ldr	r2, [r3, #0]
 2020 0012 02F00300 		and	r0, r2, #3
 2021              	.LVL199:
 2022 0016 0228     		cmp	r0, #2
 2023              		.loc 1 1062 0
 2024 0018 0D46     		mov	r5, r1
 2025              		.loc 1 1075 0
 2026 001a 4FF40048 		mov	r8, #32768
 2027              		.loc 1 1067 0
 2028 001e 54D0     		beq	.L269
 2029 0020 0328     		cmp	r0, #3
 2030 0022 55D0     		beq	.L270
 2031              		.loc 1 1069 0
 2032 0024 4146     		mov	r1, r8
 2033              	.LVL200:
 2034 0026 C1F20001 		movt	r1, 4096
 2035 002a C1F20408 		movt	r8, 4100
 2036 002e 0128     		cmp	r0, #1
 2037 0030 18BF     		it	ne
 2038 0032 8846     		movne	r8, r1
 2039              	.L268:
 2040              	.LVL201:
 2041              		.loc 1 1085 0
 2042 0034 6A01     		lsls	r2, r5, #5
 2043 0036 A018     		adds	r0, r4, r2
ARM GAS  C:\Users\Matuesz\AppData\Local\Temp\ccLA85Wr.s 			page 37


 2044 0038 0021     		movs	r1, #0
 2045 003a C0F8101B 		str	r1, [r0, #2832]
 2046              		.loc 1 1086 0
 2047 003e D868     		ldr	r0, [r3, #12]
 2048 0040 0028     		cmp	r0, #0
 2049 0042 48D0     		beq	.L271
 2050              		.loc 1 1087 0
 2051 0044 588A     		ldrh	r0, [r3, #18]
 2052 0046 05F15801 		add	r1, r5, #88
 2053 004a 4901     		lsls	r1, r1, #5
 2054 004c 48EA0000 		orr	r0, r8, r0
 2055 0050 6050     		str	r0, [r4, r1]
 2056              		.loc 1 1088 0
 2057 0052 4FF0010C 		mov	ip, #1
 2058 0056 D4F81C08 		ldr	r0, [r4, #2076]
 2059 005a 05F11001 		add	r1, r5, #16
 2060 005e 0CFA01F1 		lsl	r1, ip, r1
 2061 0062 0143     		orrs	r1, r1, r0
 2062 0064 C4F81C18 		str	r1, [r4, #2076]
 2063              	.L272:
 2064              		.loc 1 1096 0
 2065 0068 A218     		adds	r2, r4, r2
 2066              		.loc 1 1097 0
 2067 006a 9968     		ldr	r1, [r3, #8]
 2068              		.loc 1 1096 0
 2069 006c 0020     		movs	r0, #0
 2070 006e C2F81009 		str	r0, [r2, #2320]
 2071              		.loc 1 1097 0
 2072 0072 0029     		cmp	r1, #0
 2073 0074 42D0     		beq	.L273
 2074              		.loc 1 1100 0
 2075 0076 9A8B     		ldrh	r2, [r3, #28]
 2076              		.loc 1 1099 0
 2077 0078 198A     		ldrh	r1, [r3, #16]
 2078 007a 8B08     		lsrs	r3, r1, #2
 2079              	.LVL202:
 2080              		.loc 1 1100 0
 2081 007c 012A     		cmp	r2, #1
 2082              		.loc 1 1101 0
 2083 007e 88BF     		it	hi
 2084 0080 5343     		mulhi	r3, r2, r3
 2085              	.LVL203:
 2086              	.LBB190:
 2087              	.LBB191:
 2088              		.loc 1 227 0
 2089 0082 326F     		ldr	r2, [r6, #112]
 2090              	.LVL204:
 2091              	.LBE191:
 2092              	.LBE190:
 2093              		.loc 1 1102 0
 2094 0084 05F13F00 		add	r0, r5, #63
 2095 0088 04EB8001 		add	r1, r4, r0, lsl #2
 2096              	.LBB193:
 2097              	.LBB192:
 2098              		.loc 1 228 0
 2099 008c 9818     		adds	r0, r3, r2
 2100 008e 3067     		str	r0, [r6, #112]
ARM GAS  C:\Users\Matuesz\AppData\Local\Temp\ccLA85Wr.s 			page 38


 2101              	.LBE192:
 2102              	.LBE193:
 2103              		.loc 1 1102 0
 2104 0090 42EA0343 		orr	r3, r2, r3, lsl #16
 2105              	.LVL205:
 2106              		.loc 1 1104 0
 2107 0094 3046     		mov	r0, r6
 2108              		.loc 1 1108 0
 2109 0096 06EB8706 		add	r6, r6, r7, lsl #2
 2110              	.LVL206:
 2111              		.loc 1 1102 0
 2112 009a 4B60     		str	r3, [r1, #4]
 2113              		.loc 1 1104 0
 2114 009c 2946     		mov	r1, r5
 2115 009e FFF7FEFF 		bl	otg_txfifo_flush
 2116              	.LVL207:
 2117              		.loc 1 1108 0
 2118 00a2 7268     		ldr	r2, [r6, #4]
 2119              		.loc 1 1107 0
 2120 00a4 108A     		ldrh	r0, [r2, #16]
 2121              		.loc 1 1106 0
 2122 00a6 05F14801 		add	r1, r5, #72
 2123 00aa 4B01     		lsls	r3, r1, #5
 2124 00ac 40EA8551 		orr	r1, r0, r5, lsl #22
 2125              		.loc 1 1107 0
 2126 00b0 41EA0802 		orr	r2, r1, r8
 2127              		.loc 1 1106 0
 2128 00b4 E250     		str	r2, [r4, r3]
 2129              		.loc 1 1109 0
 2130 00b6 0123     		movs	r3, #1
 2131 00b8 D4F81C08 		ldr	r0, [r4, #2076]
 2132 00bc 03FA05F5 		lsl	r5, r3, r5
 2133 00c0 0543     		orrs	r5, r5, r0
 2134 00c2 C4F81C58 		str	r5, [r4, #2076]
 2135 00c6 BDE8F081 		pop	{r4, r5, r6, r7, r8, pc}
 2136              	.LVL208:
 2137              	.L269:
 2138              		.loc 1 1075 0
 2139 00ca C1F20808 		movt	r8, 4104
 2140              	.LVL209:
 2141              		.loc 1 1076 0
 2142 00ce B1E7     		b	.L268
 2143              	.L270:
 2144              	.LVL210:
 2145              		.loc 1 1078 0
 2146 00d0 C1F20C08 		movt	r8, 4108
 2147              	.LVL211:
 2148              		.loc 1 1079 0
 2149 00d4 AEE7     		b	.L268
 2150              	.LVL212:
 2151              	.L271:
 2152              		.loc 1 1091 0
 2153 00d6 05F15801 		add	r1, r5, #88
 2154 00da 4901     		lsls	r1, r1, #5
 2155              		.loc 1 1092 0
 2156 00dc 05F1100E 		add	lr, r5, #16
 2157              		.loc 1 1091 0
ARM GAS  C:\Users\Matuesz\AppData\Local\Temp\ccLA85Wr.s 			page 39


 2158 00e0 6058     		ldr	r0, [r4, r1]
 2159 00e2 20F40040 		bic	r0, r0, #32768
 2160 00e6 6050     		str	r0, [r4, r1]
 2161              		.loc 1 1092 0
 2162 00e8 0121     		movs	r1, #1
 2163 00ea D4F81C08 		ldr	r0, [r4, #2076]
 2164 00ee 01FA0EF1 		lsl	r1, r1, lr
 2165 00f2 20EA0100 		bic	r0, r0, r1
 2166 00f6 C4F81C08 		str	r0, [r4, #2076]
 2167 00fa B5E7     		b	.L272
 2168              	.L273:
 2169              		.loc 1 1112 0
 2170 00fc 05F13F03 		add	r3, r5, #63
 2171 0100 04EB8302 		add	r2, r4, r3, lsl #2
 2172 0104 4FF48061 		mov	r1, #1024
 2173 0108 C0F20021 		movt	r1, 512
 2174 010c 5160     		str	r1, [r2, #4]
 2175              		.loc 1 1113 0
 2176 010e 3046     		mov	r0, r6
 2177 0110 2946     		mov	r1, r5
 2178 0112 FFF7FEFF 		bl	otg_txfifo_flush
 2179              	.LVL213:
 2180              		.loc 1 1114 0
 2181 0116 05F14800 		add	r0, r5, #72
 2182 011a 4301     		lsls	r3, r0, #5
 2183 011c E258     		ldr	r2, [r4, r3]
 2184 011e 22F40041 		bic	r1, r2, #32768
 2185 0122 E150     		str	r1, [r4, r3]
 2186              		.loc 1 1115 0
 2187 0124 0123     		movs	r3, #1
 2188 0126 D4F81C08 		ldr	r0, [r4, #2076]
 2189 012a 03FA05F5 		lsl	r5, r3, r5
 2190 012e 20EA0505 		bic	r5, r0, r5
 2191 0132 C4F81C58 		str	r5, [r4, #2076]
 2192 0136 BDE8F081 		pop	{r4, r5, r6, r7, r8, pc}
 2193              		.cfi_endproc
 2194              	.LFE144:
 2195              		.size	usb_lld_init_endpoint, .-usb_lld_init_endpoint
 2196 013a 00BFAFF3 		.section	.text.usb_lld_disable_endpoints,"ax",%progbits
 2196      0080
 2197              		.align	2
 2198              		.p2align 4,,15
 2199              		.global	usb_lld_disable_endpoints
 2200              		.thumb
 2201              		.thumb_func
 2202              		.type	usb_lld_disable_endpoints, %function
 2203              	usb_lld_disable_endpoints:
 2204              	.LFB145:
 2205              		.loc 1 1126 0
 2206              		.cfi_startproc
 2207              		@ args = 0, pretend = 0, frame = 0
 2208              		@ frame_needed = 0, uses_anonymous_args = 0
 2209              		@ link register save eliminated.
 2210              	.LVL214:
 2211              	.LBB194:
 2212              	.LBB195:
 2213              		.loc 1 213 0
ARM GAS  C:\Users\Matuesz\AppData\Local\Temp\ccLA85Wr.s 			page 40


 2214 0000 C26E     		ldr	r2, [r0, #108]
 2215 0002 1168     		ldr	r1, [r2, #0]
 2216 0004 0167     		str	r1, [r0, #112]
 2217              	.LBE195:
 2218              	.LBE194:
 2219              		.loc 1 1133 0
 2220              		.loc 1 1132 0
 2221 0006 FFF7FEBF 		b	otg_disable_ep
 2222              	.LVL215:
 2223              		.cfi_endproc
 2224              	.LFE145:
 2225              		.size	usb_lld_disable_endpoints, .-usb_lld_disable_endpoints
 2226 000a 00BFAFF3 		.section	.text.usb_lld_get_status_out,"ax",%progbits
 2226      0080
 2227              		.align	2
 2228              		.p2align 4,,15
 2229              		.global	usb_lld_get_status_out
 2230              		.thumb
 2231              		.thumb_func
 2232              		.type	usb_lld_get_status_out, %function
 2233              	usb_lld_get_status_out:
 2234              	.LFB146:
 2235              		.loc 1 1147 0
 2236              		.cfi_startproc
 2237              		@ args = 0, pretend = 0, frame = 0
 2238              		@ frame_needed = 0, uses_anonymous_args = 0
 2239              		@ link register save eliminated.
 2240              	.LVL216:
 2241              		.loc 1 1152 0
 2242 0000 5831     		adds	r1, r1, #88
 2243              	.LVL217:
 2244 0002 836E     		ldr	r3, [r0, #104]
 2245 0004 4901     		lsls	r1, r1, #5
 2246 0006 5A58     		ldr	r2, [r3, r1]
 2247              	.LVL218:
 2248              		.loc 1 1153 0
 2249 0008 12F40040 		ands	r0, r2, #32768
 2250              	.LVL219:
 2251 000c 04D0     		beq	.L279
 2252              		.loc 1 1155 0
 2253 000e 12F4001F 		tst	r2, #2097152
 2254              		.loc 1 1156 0
 2255 0012 0CBF     		ite	eq
 2256 0014 0220     		moveq	r0, #2
 2257 0016 0120     		movne	r0, #1
 2258              	.L279:
 2259              		.loc 1 1158 0
 2260 0018 7047     		bx	lr
 2261              		.cfi_endproc
 2262              	.LFE146:
 2263              		.size	usb_lld_get_status_out, .-usb_lld_get_status_out
 2264 001a 00BFAFF3 		.section	.text.usb_lld_get_status_in,"ax",%progbits
 2264      0080
 2265              		.align	2
 2266              		.p2align 4,,15
 2267              		.global	usb_lld_get_status_in
 2268              		.thumb
ARM GAS  C:\Users\Matuesz\AppData\Local\Temp\ccLA85Wr.s 			page 41


 2269              		.thumb_func
 2270              		.type	usb_lld_get_status_in, %function
 2271              	usb_lld_get_status_in:
 2272              	.LFB147:
 2273              		.loc 1 1172 0
 2274              		.cfi_startproc
 2275              		@ args = 0, pretend = 0, frame = 0
 2276              		@ frame_needed = 0, uses_anonymous_args = 0
 2277              		@ link register save eliminated.
 2278              	.LVL220:
 2279              		.loc 1 1177 0
 2280 0000 4831     		adds	r1, r1, #72
 2281              	.LVL221:
 2282 0002 836E     		ldr	r3, [r0, #104]
 2283 0004 4901     		lsls	r1, r1, #5
 2284 0006 5A58     		ldr	r2, [r3, r1]
 2285              	.LVL222:
 2286              		.loc 1 1178 0
 2287 0008 12F40040 		ands	r0, r2, #32768
 2288              	.LVL223:
 2289 000c 04D0     		beq	.L283
 2290              		.loc 1 1180 0
 2291 000e 12F4001F 		tst	r2, #2097152
 2292              		.loc 1 1181 0
 2293 0012 0CBF     		ite	eq
 2294 0014 0220     		moveq	r0, #2
 2295 0016 0120     		movne	r0, #1
 2296              	.L283:
 2297              		.loc 1 1183 0
 2298 0018 7047     		bx	lr
 2299              		.cfi_endproc
 2300              	.LFE147:
 2301              		.size	usb_lld_get_status_in, .-usb_lld_get_status_in
 2302 001a 00BFAFF3 		.section	.text.usb_lld_read_setup,"ax",%progbits
 2302      0080
 2303              		.align	2
 2304              		.p2align 4,,15
 2305              		.global	usb_lld_read_setup
 2306              		.thumb
 2307              		.thumb_func
 2308              		.type	usb_lld_read_setup, %function
 2309              	usb_lld_read_setup:
 2310              	.LFB148:
 2311              		.loc 1 1199 0
 2312              		.cfi_startproc
 2313              		@ args = 0, pretend = 0, frame = 0
 2314              		@ frame_needed = 0, uses_anonymous_args = 0
 2315              		@ link register save eliminated.
 2316              	.LVL224:
 2317              		.loc 1 1201 0
 2318 0000 00EB8101 		add	r1, r0, r1, lsl #2
 2319              	.LVL225:
 2320 0004 CB68     		ldr	r3, [r1, #12]
 2321 0006 186A     		ldr	r0, [r3, #32]
 2322              	.LVL226:
 2323 0008 0168     		ldr	r1, [r0, #0]	@ unaligned
 2324 000a 4368     		ldr	r3, [r0, #4]	@ unaligned
ARM GAS  C:\Users\Matuesz\AppData\Local\Temp\ccLA85Wr.s 			page 42


 2325 000c 1160     		str	r1, [r2, #0]	@ unaligned
 2326 000e 5360     		str	r3, [r2, #4]	@ unaligned
 2327 0010 7047     		bx	lr
 2328              		.cfi_endproc
 2329              	.LFE148:
 2330              		.size	usb_lld_read_setup, .-usb_lld_read_setup
 2331 0012 00BFAFF3 		.section	.text.usb_lld_prepare_receive,"ax",%progbits
 2331      0080AFF3 
 2331      0080AFF3 
 2331      0080
 2332              		.align	2
 2333              		.p2align 4,,15
 2334              		.global	usb_lld_prepare_receive
 2335              		.thumb
 2336              		.thumb_func
 2337              		.type	usb_lld_prepare_receive, %function
 2338              	usb_lld_prepare_receive:
 2339              	.LFB149:
 2340              		.loc 1 1212 0
 2341              		.cfi_startproc
 2342              		@ args = 0, pretend = 0, frame = 0
 2343              		@ frame_needed = 0, uses_anonymous_args = 0
 2344              		@ link register save eliminated.
 2345              	.LVL227:
 2346              		.loc 1 1214 0
 2347 0000 00EB8103 		add	r3, r0, r1, lsl #2
 2348              		.loc 1 1212 0
 2349 0004 10B4     		push	{r4}
 2350              	.LCFI10:
 2351              		.cfi_def_cfa_offset 4
 2352              		.cfi_offset 4, -4
 2353              		.loc 1 1214 0
 2354 0006 DC68     		ldr	r4, [r3, #12]
 2355              	.LVL228:
 2356              		.loc 1 1219 0
 2357 0008 806E     		ldr	r0, [r0, #104]
 2358              	.LVL229:
 2359              		.loc 1 1217 0
 2360 000a A269     		ldr	r2, [r4, #24]
 2361 000c 638A     		ldrh	r3, [r4, #18]
 2362 000e 5268     		ldr	r2, [r2, #4]
 2363              	.LVL230:
 2364 0010 541E     		subs	r4, r2, #1
 2365              	.LVL231:
 2366 0012 E418     		adds	r4, r4, r3
 2367              		.loc 1 1219 0
 2368 0014 00EB4111 		add	r1, r0, r1, lsl #5
 2369              	.LVL232:
 2370 0018 42F0C042 		orr	r2, r2, #1610612736
 2371              	.LVL233:
 2372              		.loc 1 1217 0
 2373 001c B4FBF3F3 		udiv	r3, r4, r3
 2374              		.loc 1 1219 0
 2375 0020 42EAC340 		orr	r0, r2, r3, lsl #19
 2376 0024 C1F8100B 		str	r0, [r1, #2832]
 2377              		.loc 1 1222 0
 2378 0028 10BC     		pop	{r4}
ARM GAS  C:\Users\Matuesz\AppData\Local\Temp\ccLA85Wr.s 			page 43


 2379 002a 7047     		bx	lr
 2380              		.cfi_endproc
 2381              	.LFE149:
 2382              		.size	usb_lld_prepare_receive, .-usb_lld_prepare_receive
 2383 002c AFF30080 		.section	.text.usb_lld_prepare_transmit,"ax",%progbits
 2384              		.align	2
 2385              		.p2align 4,,15
 2386              		.global	usb_lld_prepare_transmit
 2387              		.thumb
 2388              		.thumb_func
 2389              		.type	usb_lld_prepare_transmit, %function
 2390              	usb_lld_prepare_transmit:
 2391              	.LFB150:
 2392              		.loc 1 1232 0
 2393              		.cfi_startproc
 2394              		@ args = 0, pretend = 0, frame = 0
 2395              		@ frame_needed = 0, uses_anonymous_args = 0
 2396              		@ link register save eliminated.
 2397              	.LVL234:
 2398              		.loc 1 1233 0
 2399 0000 00EB8103 		add	r3, r0, r1, lsl #2
 2400              		.loc 1 1232 0
 2401 0004 30B4     		push	{r4, r5}
 2402              	.LCFI11:
 2403              		.cfi_def_cfa_offset 8
 2404              		.cfi_offset 4, -8
 2405              		.cfi_offset 5, -4
 2406              		.loc 1 1233 0
 2407 0006 DC68     		ldr	r4, [r3, #12]
 2408 0008 6269     		ldr	r2, [r4, #20]
 2409              	.LVL235:
 2410              		.loc 1 1236 0
 2411 000a 5368     		ldr	r3, [r2, #4]
 2412 000c 1361     		str	r3, [r2, #16]
 2413              		.loc 1 1237 0
 2414 000e A3B1     		cbz	r3, .L295
 2415              	.LBB196:
 2416              		.loc 1 1242 0
 2417 0010 69B1     		cbz	r1, .L291
 2418              	.L294:
 2419 0012 5D1E     		subs	r5, r3, #1
 2420              	.L292:
 2421              		.loc 1 1246 0
 2422 0014 228A     		ldrh	r2, [r4, #16]
 2423              	.LVL236:
 2424              		.loc 1 1248 0
 2425 0016 806E     		ldr	r0, [r0, #104]
 2426              	.LVL237:
 2427              		.loc 1 1246 0
 2428 0018 AC18     		adds	r4, r5, r2
 2429              	.LVL238:
 2430 001a B4FBF2F2 		udiv	r2, r4, r2
 2431              	.LVL239:
 2432              		.loc 1 1248 0
 2433 001e 00EB4111 		add	r1, r0, r1, lsl #5
 2434              	.LVL240:
 2435 0022 43EAC243 		orr	r3, r3, r2, lsl #19
ARM GAS  C:\Users\Matuesz\AppData\Local\Temp\ccLA85Wr.s 			page 44


 2436 0026 C1F81039 		str	r3, [r1, #2320]
 2437              	.LVL241:
 2438              	.L288:
 2439              	.LBE196:
 2440              		.loc 1 1251 0
 2441 002a 30BC     		pop	{r4, r5}
 2442 002c 7047     		bx	lr
 2443              	.LVL242:
 2444              	.L291:
 2445              	.LBB197:
 2446              		.loc 1 1242 0 discriminator 1
 2447 002e 402B     		cmp	r3, #64
 2448 0030 EFD9     		bls	.L294
 2449              		.loc 1 1243 0
 2450 0032 4023     		movs	r3, #64
 2451 0034 5360     		str	r3, [r2, #4]
 2452 0036 3F25     		movs	r5, #63
 2453 0038 ECE7     		b	.L292
 2454              	.L295:
 2455              	.LBE197:
 2456              		.loc 1 1239 0
 2457 003a 806E     		ldr	r0, [r0, #104]
 2458              	.LVL243:
 2459 003c 00EB4112 		add	r2, r0, r1, lsl #5
 2460              	.LVL244:
 2461 0040 4FF40021 		mov	r1, #524288
 2462              	.LVL245:
 2463 0044 C2F81019 		str	r1, [r2, #2320]
 2464 0048 EFE7     		b	.L288
 2465              		.cfi_endproc
 2466              	.LFE150:
 2467              		.size	usb_lld_prepare_transmit, .-usb_lld_prepare_transmit
 2468 004a 00BFAFF3 		.section	.text.otg_epin_handler,"ax",%progbits
 2468      0080
 2469              		.align	2
 2470              		.p2align 4,,15
 2471              		.thumb
 2472              		.thumb_func
 2473              		.type	otg_epin_handler, %function
 2474              	otg_epin_handler:
 2475              	.LFB133:
 2476              		.loc 1 550 0
 2477              		.cfi_startproc
 2478              		@ args = 0, pretend = 0, frame = 0
 2479              		@ frame_needed = 0, uses_anonymous_args = 0
 2480              	.LVL246:
 2481 0000 2DE9F041 		push	{r4, r5, r6, r7, r8, lr}
 2482              	.LCFI12:
 2483              		.cfi_def_cfa_offset 24
 2484              		.cfi_offset 4, -24
 2485              		.cfi_offset 5, -20
 2486              		.cfi_offset 6, -16
 2487              		.cfi_offset 7, -12
 2488              		.cfi_offset 8, -8
 2489              		.cfi_offset 14, -4
 2490              		.loc 1 551 0
 2491 0004 856E     		ldr	r5, [r0, #104]
ARM GAS  C:\Users\Matuesz\AppData\Local\Temp\ccLA85Wr.s 			page 45


 2492              	.LVL247:
 2493              		.loc 1 552 0
 2494 0006 05EB4113 		add	r3, r5, r1, lsl #5
 2495              		.loc 1 550 0
 2496 000a 0646     		mov	r6, r0
 2497              		.loc 1 552 0
 2498 000c D3F80849 		ldr	r4, [r3, #2312]
 2499              	.LVL248:
 2500              		.loc 1 554 0
 2501 0010 C3F80849 		str	r4, [r3, #2312]
 2502              		.loc 1 559 0
 2503 0014 E307     		lsls	r3, r4, #31
 2504              		.loc 1 550 0
 2505 0016 0F46     		mov	r7, r1
 2506              		.loc 1 559 0
 2507 0018 03D5     		bpl	.L297
 2508              		.loc 1 559 0 is_stmt 0 discriminator 1
 2509 001a D5F81028 		ldr	r2, [r5, #2064]
 2510 001e D207     		lsls	r2, r2, #31
 2511 0020 0AD4     		bmi	.L316
 2512              	.LVL249:
 2513              	.L297:
 2514              		.loc 1 579 0 is_stmt 1
 2515 0022 2306     		lsls	r3, r4, #24
 2516              	.LVL250:
 2517 0024 06D5     		bpl	.L296
 2518              		.loc 1 580 0 discriminator 1
 2519 0026 0122     		movs	r2, #1
 2520 0028 D5F83408 		ldr	r0, [r5, #2100]
 2521 002c 02FA07F7 		lsl	r7, r2, r7
 2522              		.loc 1 579 0 discriminator 1
 2523 0030 0742     		tst	r7, r0
 2524 0032 2BD1     		bne	.L317
 2525              	.L296:
 2526 0034 BDE8F081 		pop	{r4, r5, r6, r7, r8, pc}
 2527              	.LVL251:
 2528              	.L316:
 2529              	.LBB207:
 2530              		.loc 1 561 0
 2531 0038 00EB8103 		add	r3, r0, r1, lsl #2
 2532 003c DB68     		ldr	r3, [r3, #12]
 2533 003e 5A69     		ldr	r2, [r3, #20]
 2534              	.LVL252:
 2535              		.loc 1 563 0
 2536 0040 D2F804E0 		ldr	lr, [r2, #4]
 2537 0044 D2F810C0 		ldr	ip, [r2, #16]
 2538 0048 E645     		cmp	lr, ip
 2539 004a 36D2     		bcs	.L298
 2540              		.loc 1 567 0
 2541 004c CEEB0C03 		rsb	r3, lr, ip
 2542              		.loc 1 568 0
 2543 0050 4FF00008 		mov	r8, #0
 2544              		.loc 1 567 0
 2545 0054 5360     		str	r3, [r2, #4]
 2546              		.loc 1 568 0
 2547 0056 C2F80880 		str	r8, [r2, #8]
 2548              		.loc 1 569 0
ARM GAS  C:\Users\Matuesz\AppData\Local\Temp\ccLA85Wr.s 			page 46


 2549 005a FFF7FEFF 		bl	usb_lld_prepare_transmit
 2550              	.LVL253:
 2551              	.LBB208:
 2552              		.loc 1 570 0
 2553 005e 2023     		movs	r3, #32
 2554              	.LVL254:
 2555              	@ 570 "../../os/hal/platforms/STM32/OTGv1/usb_lld.c" 1
 2556 0060 83F31188 		msr     BASEPRI, r3
 2557              	@ 0 "" 2
 2558              	.LVL255:
 2559              		.thumb
 2560              	.LBE208:
 2561              	.LBB209:
 2562              	.LBB210:
 2563              		.loc 1 1276 0
 2564 0064 07F14800 		add	r0, r7, #72
 2565 0068 B26E     		ldr	r2, [r6, #104]
 2566 006a 4301     		lsls	r3, r0, #5
 2567              	.LVL256:
 2568 006c D158     		ldr	r1, [r2, r3]
 2569 006e 41F00440 		orr	r0, r1, #-2080374784
 2570 0072 D050     		str	r0, [r2, r3]
 2571              		.loc 1 1277 0
 2572 0074 0123     		movs	r3, #1
 2573 0076 D2F83418 		ldr	r1, [r2, #2100]
 2574 007a 03FA07F3 		lsl	r3, r3, r7
 2575 007e 0B43     		orrs	r3, r3, r1
 2576 0080 C2F83438 		str	r3, [r2, #2100]
 2577              	.LBE210:
 2578              	.LBE209:
 2579              	.LBB211:
 2580              		.loc 1 572 0
 2581 0084 4346     		mov	r3, r8
 2582              	@ 572 "../../os/hal/platforms/STM32/OTGv1/usb_lld.c" 1
 2583 0086 83F31188 		msr     BASEPRI, r3
 2584              	@ 0 "" 2
 2585              	.LVL257:
 2586              		.thumb
 2587 008a CAE7     		b	.L297
 2588              	.LVL258:
 2589              	.L317:
 2590              	.LBE211:
 2591              	.LBE207:
 2592              	.LBB212:
 2593              		.loc 1 582 0
 2594 008c 2023     		movs	r3, #32
 2595              	.LVL259:
 2596              	@ 582 "../../os/hal/platforms/STM32/OTGv1/usb_lld.c" 1
 2597 008e 83F31188 		msr     BASEPRI, r3
 2598              	@ 0 "" 2
 2599              	.LVL260:
 2600              		.thumb
 2601              	.LBE212:
 2602              		.loc 1 583 0
 2603 0092 716F     		ldr	r1, [r6, #116]
 2604              		.loc 1 584 0
 2605 0094 D5F83438 		ldr	r3, [r5, #2100]
ARM GAS  C:\Users\Matuesz\AppData\Local\Temp\ccLA85Wr.s 			page 47


 2606              	.LVL261:
 2607              	.LBB213:
 2608              	.LBB214:
 2609              		.loc 1 124 0
 2610 0098 F06F     		ldr	r0, [r6, #124]
 2611              	.LBE214:
 2612              	.LBE213:
 2613              		.loc 1 583 0
 2614 009a 3943     		orrs	r1, r1, r7
 2615              		.loc 1 584 0
 2616 009c 23EA0707 		bic	r7, r3, r7
 2617              		.loc 1 583 0
 2618 00a0 7167     		str	r1, [r6, #116]
 2619              		.loc 1 584 0
 2620 00a2 C5F83478 		str	r7, [r5, #2100]
 2621              	.LVL262:
 2622              	.LBB216:
 2623              	.LBB215:
 2624              		.loc 1 124 0
 2625 00a6 18B1     		cbz	r0, .L300
 2626              		.loc 1 125 0
 2627 00a8 FFF7FEFF 		bl	chSchReadyI
 2628              	.LVL263:
 2629              		.loc 1 126 0
 2630 00ac 0020     		movs	r0, #0
 2631 00ae F067     		str	r0, [r6, #124]
 2632              	.L300:
 2633              	.LBE215:
 2634              	.LBE216:
 2635              	.LBB217:
 2636              		.loc 1 586 0
 2637 00b0 0023     		movs	r3, #0
 2638              	.LVL264:
 2639              	@ 586 "../../os/hal/platforms/STM32/OTGv1/usb_lld.c" 1
 2640 00b2 83F31188 		msr     BASEPRI, r3
 2641              	@ 0 "" 2
 2642              	.LVL265:
 2643              		.thumb
 2644 00b6 BDE8F081 		pop	{r4, r5, r6, r7, r8, pc}
 2645              	.LVL266:
 2646              	.L298:
 2647              	.LBE217:
 2648              	.LBB218:
 2649              		.loc 1 576 0
 2650 00ba B0F808E0 		ldrh	lr, [r0, #8]
 2651 00be 9B68     		ldr	r3, [r3, #8]
 2652 00c0 0122     		movs	r2, #1
 2653              	.LVL267:
 2654 00c2 02FA01F2 		lsl	r2, r2, r1
 2655 00c6 2EEA0202 		bic	r2, lr, r2
 2656 00ca 0281     		strh	r2, [r0, #8]	@ movhi
 2657 00cc 9847     		blx	r3
 2658              	.LVL268:
 2659 00ce A8E7     		b	.L297
 2660              	.LBE218:
 2661              		.cfi_endproc
 2662              	.LFE133:
ARM GAS  C:\Users\Matuesz\AppData\Local\Temp\ccLA85Wr.s 			page 48


 2663              		.size	otg_epin_handler, .-otg_epin_handler
 2664              		.section	.text.usb_lld_serve_interrupt,"ax",%progbits
 2665              		.align	2
 2666              		.p2align 4,,15
 2667              		.thumb
 2668              		.thumb_func
 2669              		.type	usb_lld_serve_interrupt, %function
 2670              	usb_lld_serve_interrupt:
 2671              	.LFB135:
 2672              		.loc 1 624 0
 2673              		.cfi_startproc
 2674              		@ args = 0, pretend = 0, frame = 0
 2675              		@ frame_needed = 0, uses_anonymous_args = 0
 2676              	.LVL269:
 2677 0000 70B5     		push	{r4, r5, r6, lr}
 2678              	.LCFI13:
 2679              		.cfi_def_cfa_offset 16
 2680              		.cfi_offset 4, -16
 2681              		.cfi_offset 5, -12
 2682              		.cfi_offset 6, -8
 2683              		.cfi_offset 14, -4
 2684              		.loc 1 625 0
 2685 0002 856E     		ldr	r5, [r0, #104]
 2686              	.LVL270:
 2687              		.loc 1 628 0
 2688 0004 6B69     		ldr	r3, [r5, #20]
 2689 0006 AC69     		ldr	r4, [r5, #24]
 2690 0008 1C40     		ands	r4, r4, r3
 2691              	.LVL271:
 2692              		.loc 1 632 0
 2693 000a E204     		lsls	r2, r4, #19
 2694              		.loc 1 624 0
 2695 000c 0646     		mov	r6, r0
 2696              		.loc 1 629 0
 2697 000e 6C61     		str	r4, [r5, #20]
 2698              		.loc 1 632 0
 2699 0010 31D4     		bmi	.L396
 2700              	.LVL272:
 2701              	.L320:
 2702              		.loc 1 638 0
 2703 0012 A104     		lsls	r1, r4, #18
 2704              		.loc 1 639 0
 2705 0014 48BF     		it	mi
 2706 0016 D5F80818 		ldrmi	r1, [r5, #2056]
 2707              		.loc 1 643 0
 2708 001a 2007     		lsls	r0, r4, #28
 2709 001c 04D5     		bpl	.L323
 2710              		.loc 1 644 0
 2711 001e 7368     		ldr	r3, [r6, #4]
 2712 0020 DA68     		ldr	r2, [r3, #12]
 2713 0022 0AB1     		cbz	r2, .L323
 2714              		.loc 1 644 0 is_stmt 0 discriminator 1
 2715 0024 3046     		mov	r0, r6
 2716 0026 9047     		blx	r2
 2717              	.LVL273:
 2718              	.L323:
 2719              		.loc 1 648 0 is_stmt 1
ARM GAS  C:\Users\Matuesz\AppData\Local\Temp\ccLA85Wr.s 			page 49


 2720 0028 E106     		lsls	r1, r4, #27
 2721 002a 2ED4     		bmi	.L397
 2722              	.LVL274:
 2723              	.L324:
 2724              		.loc 1 659 0
 2725 002c 6203     		lsls	r2, r4, #13
 2726              		.loc 1 658 0
 2727 002e D5F81858 		ldr	r5, [r5, #2072]
 2728              	.LVL275:
 2729              		.loc 1 659 0
 2730 0032 0BD5     		bpl	.L327
 2731              		.loc 1 660 0
 2732 0034 EB07     		lsls	r3, r5, #31
 2733              	.LVL276:
 2734 0036 59D4     		bmi	.L398
 2735              		.loc 1 662 0
 2736 0038 A807     		lsls	r0, r5, #30
 2737 003a 5DD4     		bmi	.L399
 2738              	.L329:
 2739              		.loc 1 664 0
 2740 003c 6907     		lsls	r1, r5, #29
 2741 003e 61D4     		bmi	.L400
 2742              	.L330:
 2743              		.loc 1 666 0
 2744 0040 2A07     		lsls	r2, r5, #28
 2745 0042 65D4     		bmi	.L401
 2746              	.L331:
 2747              		.loc 1 669 0
 2748 0044 EB06     		lsls	r3, r5, #27
 2749 0046 69D4     		bmi	.L402
 2750              	.L332:
 2751              		.loc 1 671 0
 2752 0048 A806     		lsls	r0, r5, #26
 2753 004a 6DD4     		bmi	.L403
 2754              	.LVL277:
 2755              	.L327:
 2756              		.loc 1 675 0
 2757 004c 2103     		lsls	r1, r4, #12
 2758 004e 0BD5     		bpl	.L318
 2759              		.loc 1 676 0
 2760 0050 EA03     		lsls	r2, r5, #15
 2761 0052 32D4     		bmi	.L404
 2762              		.loc 1 678 0
 2763 0054 AB03     		lsls	r3, r5, #14
 2764              	.LVL278:
 2765 0056 36D4     		bmi	.L405
 2766              	.L337:
 2767              		.loc 1 680 0
 2768 0058 6803     		lsls	r0, r5, #13
 2769 005a 3AD4     		bmi	.L406
 2770              	.L338:
 2771              		.loc 1 682 0
 2772 005c 2903     		lsls	r1, r5, #12
 2773 005e 3ED4     		bmi	.L407
 2774              	.L339:
 2775              		.loc 1 685 0
 2776 0060 EA02     		lsls	r2, r5, #11
ARM GAS  C:\Users\Matuesz\AppData\Local\Temp\ccLA85Wr.s 			page 50


 2777 0062 23D4     		bmi	.L408
 2778              	.L340:
 2779              		.loc 1 687 0
 2780 0064 AB02     		lsls	r3, r5, #10
 2781 0066 00D4     		bmi	.L409
 2782              	.LVL279:
 2783              	.L318:
 2784 0068 70BD     		pop	{r4, r5, r6, pc}
 2785              	.LVL280:
 2786              	.L409:
 2787              		.loc 1 688 0
 2788 006a 3046     		mov	r0, r6
 2789 006c 0521     		movs	r1, #5
 2790              		.loc 1 691 0
 2791 006e BDE87040 		pop	{r4, r5, r6, lr}
 2792              		.loc 1 688 0
 2793 0072 FFF7FEBF 		b	otg_epout_handler
 2794              	.LVL281:
 2795              	.L396:
 2796              		.loc 1 633 0
 2797 0076 FFF7FEFF 		bl	_usb_reset
 2798              	.LVL282:
 2799              		.loc 1 634 0
 2800 007a 7068     		ldr	r0, [r6, #4]
 2801 007c 0268     		ldr	r2, [r0, #0]
 2802 007e 002A     		cmp	r2, #0
 2803 0080 C7D0     		beq	.L320
 2804              		.loc 1 634 0 is_stmt 0 discriminator 1
 2805 0082 3046     		mov	r0, r6
 2806 0084 0021     		movs	r1, #0
 2807 0086 9047     		blx	r2
 2808              	.LVL283:
 2809 0088 C3E7     		b	.L320
 2810              	.L397:
 2811              	.LBB223:
 2812              		.loc 1 651 0 is_stmt 1
 2813 008a 2023     		movs	r3, #32
 2814              	.LVL284:
 2815              	@ 651 "../../os/hal/platforms/STM32/OTGv1/usb_lld.c" 1
 2816 008c 83F31188 		msr     BASEPRI, r3
 2817              	@ 0 "" 2
 2818              	.LVL285:
 2819              		.thumb
 2820              	.LBE223:
 2821              		.loc 1 652 0
 2822 0090 A969     		ldr	r1, [r5, #24]
 2823              	.LBB224:
 2824              	.LBB225:
 2825              		.loc 1 124 0
 2826 0092 F06F     		ldr	r0, [r6, #124]
 2827              	.LBE225:
 2828              	.LBE224:
 2829              		.loc 1 652 0
 2830 0094 21F01003 		bic	r3, r1, #16
 2831              	.LVL286:
 2832 0098 AB61     		str	r3, [r5, #24]
 2833              	.LVL287:
ARM GAS  C:\Users\Matuesz\AppData\Local\Temp\ccLA85Wr.s 			page 51


 2834              	.LBB227:
 2835              	.LBB226:
 2836              		.loc 1 124 0
 2837 009a 18B1     		cbz	r0, .L325
 2838              		.loc 1 125 0
 2839 009c FFF7FEFF 		bl	chSchReadyI
 2840              	.LVL288:
 2841              		.loc 1 126 0
 2842 00a0 0020     		movs	r0, #0
 2843 00a2 F067     		str	r0, [r6, #124]
 2844              	.L325:
 2845              	.LBE226:
 2846              	.LBE227:
 2847              	.LBB228:
 2848              		.loc 1 654 0
 2849 00a4 0023     		movs	r3, #0
 2850              	@ 654 "../../os/hal/platforms/STM32/OTGv1/usb_lld.c" 1
 2851 00a6 83F31188 		msr     BASEPRI, r3
 2852              	@ 0 "" 2
 2853              	.LVL289:
 2854              		.thumb
 2855 00aa BFE7     		b	.L324
 2856              	.LVL290:
 2857              	.L408:
 2858              	.LBE228:
 2859              		.loc 1 686 0
 2860 00ac 0421     		movs	r1, #4
 2861 00ae 3046     		mov	r0, r6
 2862 00b0 FFF7FEFF 		bl	otg_epout_handler
 2863              	.LVL291:
 2864              		.loc 1 687 0
 2865 00b4 AB02     		lsls	r3, r5, #10
 2866 00b6 D7D5     		bpl	.L318
 2867 00b8 D7E7     		b	.L409
 2868              	.LVL292:
 2869              	.L404:
 2870              		.loc 1 677 0
 2871 00ba 0021     		movs	r1, #0
 2872 00bc 3046     		mov	r0, r6
 2873 00be FFF7FEFF 		bl	otg_epout_handler
 2874              	.LVL293:
 2875              		.loc 1 678 0
 2876 00c2 AB03     		lsls	r3, r5, #14
 2877 00c4 C8D5     		bpl	.L337
 2878              	.L405:
 2879              		.loc 1 679 0
 2880 00c6 3046     		mov	r0, r6
 2881 00c8 0121     		movs	r1, #1
 2882 00ca FFF7FEFF 		bl	otg_epout_handler
 2883              	.LVL294:
 2884              		.loc 1 680 0
 2885 00ce 6803     		lsls	r0, r5, #13
 2886 00d0 C4D5     		bpl	.L338
 2887              	.L406:
 2888              		.loc 1 681 0
 2889 00d2 0221     		movs	r1, #2
 2890 00d4 3046     		mov	r0, r6
ARM GAS  C:\Users\Matuesz\AppData\Local\Temp\ccLA85Wr.s 			page 52


 2891 00d6 FFF7FEFF 		bl	otg_epout_handler
 2892              	.LVL295:
 2893              		.loc 1 682 0
 2894 00da 2903     		lsls	r1, r5, #12
 2895 00dc C0D5     		bpl	.L339
 2896              	.L407:
 2897              		.loc 1 683 0
 2898 00de 0321     		movs	r1, #3
 2899 00e0 3046     		mov	r0, r6
 2900 00e2 FFF7FEFF 		bl	otg_epout_handler
 2901              	.LVL296:
 2902              		.loc 1 685 0
 2903 00e6 EA02     		lsls	r2, r5, #11
 2904 00e8 BCD5     		bpl	.L340
 2905 00ea DFE7     		b	.L408
 2906              	.L398:
 2907              		.loc 1 661 0
 2908 00ec 3046     		mov	r0, r6
 2909 00ee 0021     		movs	r1, #0
 2910 00f0 FFF7FEFF 		bl	otg_epin_handler
 2911              	.LVL297:
 2912              		.loc 1 662 0
 2913 00f4 A807     		lsls	r0, r5, #30
 2914 00f6 A1D5     		bpl	.L329
 2915              	.L399:
 2916              		.loc 1 663 0
 2917 00f8 0121     		movs	r1, #1
 2918 00fa 3046     		mov	r0, r6
 2919 00fc FFF7FEFF 		bl	otg_epin_handler
 2920              	.LVL298:
 2921              		.loc 1 664 0
 2922 0100 6907     		lsls	r1, r5, #29
 2923 0102 9DD5     		bpl	.L330
 2924              	.L400:
 2925              		.loc 1 665 0
 2926 0104 0221     		movs	r1, #2
 2927 0106 3046     		mov	r0, r6
 2928 0108 FFF7FEFF 		bl	otg_epin_handler
 2929              	.LVL299:
 2930              		.loc 1 666 0
 2931 010c 2A07     		lsls	r2, r5, #28
 2932 010e 99D5     		bpl	.L331
 2933              	.L401:
 2934              		.loc 1 667 0
 2935 0110 0321     		movs	r1, #3
 2936 0112 3046     		mov	r0, r6
 2937 0114 FFF7FEFF 		bl	otg_epin_handler
 2938              	.LVL300:
 2939              		.loc 1 669 0
 2940 0118 EB06     		lsls	r3, r5, #27
 2941 011a 95D5     		bpl	.L332
 2942              	.L402:
 2943              		.loc 1 670 0
 2944 011c 3046     		mov	r0, r6
 2945 011e 0421     		movs	r1, #4
 2946 0120 FFF7FEFF 		bl	otg_epin_handler
 2947              	.LVL301:
ARM GAS  C:\Users\Matuesz\AppData\Local\Temp\ccLA85Wr.s 			page 53


 2948              		.loc 1 671 0
 2949 0124 A806     		lsls	r0, r5, #26
 2950 0126 91D5     		bpl	.L327
 2951              	.L403:
 2952              		.loc 1 672 0
 2953 0128 3046     		mov	r0, r6
 2954 012a 0521     		movs	r1, #5
 2955 012c FFF7FEFF 		bl	otg_epin_handler
 2956              	.LVL302:
 2957 0130 8CE7     		b	.L327
 2958              		.cfi_endproc
 2959              	.LFE135:
 2960              		.size	usb_lld_serve_interrupt, .-usb_lld_serve_interrupt
 2961 0132 00BFAFF3 		.section	.text.Vector174,"ax",%progbits
 2961      0080AFF3 
 2961      0080AFF3 
 2961      0080
 2962              		.align	2
 2963              		.p2align 4,,15
 2964              		.global	Vector174
 2965              		.thumb
 2966              		.thumb_func
 2967              		.type	Vector174, %function
 2968              	Vector174:
 2969              	.LFB138:
 2970              		.loc 1 783 0
 2971              		.cfi_startproc
 2972              		@ args = 0, pretend = 0, frame = 0
 2973              		@ frame_needed = 0, uses_anonymous_args = 0
 2974 0000 08B5     		push	{r3, lr}
 2975              	.LCFI14:
 2976              		.cfi_def_cfa_offset 8
 2977              		.cfi_offset 3, -8
 2978              		.cfi_offset 14, -4
 2979              		.loc 1 787 0
 2980 0002 40F20000 		movw	r0, #:lower16:.LANCHOR2
 2981 0006 C0F20000 		movt	r0, #:upper16:.LANCHOR2
 2982 000a FFF7FEFF 		bl	usb_lld_serve_interrupt
 2983              	.LVL303:
 2984              		.loc 1 790 0
 2985 000e BDE80840 		pop	{r3, lr}
 2986              		.loc 1 789 0
 2987 0012 FFF7FEBF 		b	_port_irq_epilogue
 2988              	.LVL304:
 2989              		.cfi_endproc
 2990              	.LFE138:
 2991              		.size	Vector174, .-Vector174
 2992 0016 00BFAFF3 		.section	.text.Vector14C,"ax",%progbits
 2992      0080AFF3 
 2992      0080
 2993              		.align	2
 2994              		.p2align 4,,15
 2995              		.global	Vector14C
 2996              		.thumb
 2997              		.thumb_func
 2998              		.type	Vector14C, %function
 2999              	Vector14C:
ARM GAS  C:\Users\Matuesz\AppData\Local\Temp\ccLA85Wr.s 			page 54


 3000              	.LFB137:
 3001              		.loc 1 764 0
 3002              		.cfi_startproc
 3003              		@ args = 0, pretend = 0, frame = 0
 3004              		@ frame_needed = 0, uses_anonymous_args = 0
 3005 0000 08B5     		push	{r3, lr}
 3006              	.LCFI15:
 3007              		.cfi_def_cfa_offset 8
 3008              		.cfi_offset 3, -8
 3009              		.cfi_offset 14, -4
 3010              		.loc 1 768 0
 3011 0002 40F20000 		movw	r0, #:lower16:.LANCHOR0
 3012 0006 C0F20000 		movt	r0, #:upper16:.LANCHOR0
 3013 000a FFF7FEFF 		bl	usb_lld_serve_interrupt
 3014              	.LVL305:
 3015              		.loc 1 771 0
 3016 000e BDE80840 		pop	{r3, lr}
 3017              		.loc 1 770 0
 3018 0012 FFF7FEBF 		b	_port_irq_epilogue
 3019              	.LVL306:
 3020              		.cfi_endproc
 3021              	.LFE137:
 3022              		.size	Vector14C, .-Vector14C
 3023 0016 00BFAFF3 		.section	.text.usb_lld_start_out,"ax",%progbits
 3023      0080AFF3 
 3023      0080
 3024              		.align	2
 3025              		.p2align 4,,15
 3026              		.global	usb_lld_start_out
 3027              		.thumb
 3028              		.thumb_func
 3029              		.type	usb_lld_start_out, %function
 3030              	usb_lld_start_out:
 3031              	.LFB151:
 3032              		.loc 1 1261 0
 3033              		.cfi_startproc
 3034              		@ args = 0, pretend = 0, frame = 0
 3035              		@ frame_needed = 0, uses_anonymous_args = 0
 3036              		@ link register save eliminated.
 3037              	.LVL307:
 3038              		.loc 1 1263 0
 3039 0000 5831     		adds	r1, r1, #88
 3040              	.LVL308:
 3041 0002 836E     		ldr	r3, [r0, #104]
 3042 0004 4901     		lsls	r1, r1, #5
 3043 0006 5A58     		ldr	r2, [r3, r1]
 3044 0008 42F08060 		orr	r0, r2, #67108864
 3045              	.LVL309:
 3046 000c 5850     		str	r0, [r3, r1]
 3047 000e 7047     		bx	lr
 3048              		.cfi_endproc
 3049              	.LFE151:
 3050              		.size	usb_lld_start_out, .-usb_lld_start_out
 3051              		.section	.text.usb_lld_start_in,"ax",%progbits
 3052              		.align	2
 3053              		.p2align 4,,15
 3054              		.global	usb_lld_start_in
ARM GAS  C:\Users\Matuesz\AppData\Local\Temp\ccLA85Wr.s 			page 55


 3055              		.thumb
 3056              		.thumb_func
 3057              		.type	usb_lld_start_in, %function
 3058              	usb_lld_start_in:
 3059              	.LFB152:
 3060              		.loc 1 1274 0
 3061              		.cfi_startproc
 3062              		@ args = 0, pretend = 0, frame = 0
 3063              		@ frame_needed = 0, uses_anonymous_args = 0
 3064              		@ link register save eliminated.
 3065              	.LVL310:
 3066              		.loc 1 1276 0
 3067 0000 01F14802 		add	r2, r1, #72
 3068 0004 836E     		ldr	r3, [r0, #104]
 3069 0006 5201     		lsls	r2, r2, #5
 3070 0008 9858     		ldr	r0, [r3, r2]
 3071              	.LVL311:
 3072 000a 40F00440 		orr	r0, r0, #-2080374784
 3073 000e 9850     		str	r0, [r3, r2]
 3074              		.loc 1 1277 0
 3075 0010 0120     		movs	r0, #1
 3076 0012 D3F83428 		ldr	r2, [r3, #2100]
 3077 0016 00FA01F1 		lsl	r1, r0, r1
 3078              	.LVL312:
 3079 001a 1143     		orrs	r1, r1, r2
 3080 001c C3F83418 		str	r1, [r3, #2100]
 3081 0020 7047     		bx	lr
 3082              		.cfi_endproc
 3083              	.LFE152:
 3084              		.size	usb_lld_start_in, .-usb_lld_start_in
 3085 0022 00BFAFF3 		.section	.text.usb_lld_stall_out,"ax",%progbits
 3085      0080AFF3 
 3085      0080AFF3 
 3085      0080
 3086              		.align	2
 3087              		.p2align 4,,15
 3088              		.global	usb_lld_stall_out
 3089              		.thumb
 3090              		.thumb_func
 3091              		.type	usb_lld_stall_out, %function
 3092              	usb_lld_stall_out:
 3093              	.LFB153:
 3094              		.loc 1 1288 0
 3095              		.cfi_startproc
 3096              		@ args = 0, pretend = 0, frame = 0
 3097              		@ frame_needed = 0, uses_anonymous_args = 0
 3098              		@ link register save eliminated.
 3099              	.LVL313:
 3100              		.loc 1 1290 0
 3101 0000 5831     		adds	r1, r1, #88
 3102              	.LVL314:
 3103 0002 836E     		ldr	r3, [r0, #104]
 3104 0004 4901     		lsls	r1, r1, #5
 3105 0006 5A58     		ldr	r2, [r3, r1]
 3106 0008 42F40010 		orr	r0, r2, #2097152
 3107              	.LVL315:
 3108 000c 5850     		str	r0, [r3, r1]
ARM GAS  C:\Users\Matuesz\AppData\Local\Temp\ccLA85Wr.s 			page 56


 3109 000e 7047     		bx	lr
 3110              		.cfi_endproc
 3111              	.LFE153:
 3112              		.size	usb_lld_stall_out, .-usb_lld_stall_out
 3113              		.section	.text.usb_lld_stall_in,"ax",%progbits
 3114              		.align	2
 3115              		.p2align 4,,15
 3116              		.global	usb_lld_stall_in
 3117              		.thumb
 3118              		.thumb_func
 3119              		.type	usb_lld_stall_in, %function
 3120              	usb_lld_stall_in:
 3121              	.LFB154:
 3122              		.loc 1 1301 0
 3123              		.cfi_startproc
 3124              		@ args = 0, pretend = 0, frame = 0
 3125              		@ frame_needed = 0, uses_anonymous_args = 0
 3126              		@ link register save eliminated.
 3127              	.LVL316:
 3128              		.loc 1 1303 0
 3129 0000 4831     		adds	r1, r1, #72
 3130              	.LVL317:
 3131 0002 836E     		ldr	r3, [r0, #104]
 3132 0004 4901     		lsls	r1, r1, #5
 3133 0006 5A58     		ldr	r2, [r3, r1]
 3134 0008 42F40010 		orr	r0, r2, #2097152
 3135              	.LVL318:
 3136 000c 5850     		str	r0, [r3, r1]
 3137 000e 7047     		bx	lr
 3138              		.cfi_endproc
 3139              	.LFE154:
 3140              		.size	usb_lld_stall_in, .-usb_lld_stall_in
 3141              		.section	.text.usb_lld_clear_out,"ax",%progbits
 3142              		.align	2
 3143              		.p2align 4,,15
 3144              		.global	usb_lld_clear_out
 3145              		.thumb
 3146              		.thumb_func
 3147              		.type	usb_lld_clear_out, %function
 3148              	usb_lld_clear_out:
 3149              	.LFB155:
 3150              		.loc 1 1314 0
 3151              		.cfi_startproc
 3152              		@ args = 0, pretend = 0, frame = 0
 3153              		@ frame_needed = 0, uses_anonymous_args = 0
 3154              		@ link register save eliminated.
 3155              	.LVL319:
 3156              		.loc 1 1316 0
 3157 0000 5831     		adds	r1, r1, #88
 3158              	.LVL320:
 3159 0002 836E     		ldr	r3, [r0, #104]
 3160 0004 4901     		lsls	r1, r1, #5
 3161 0006 5A58     		ldr	r2, [r3, r1]
 3162 0008 22F40010 		bic	r0, r2, #2097152
 3163              	.LVL321:
 3164 000c 5850     		str	r0, [r3, r1]
 3165 000e 7047     		bx	lr
ARM GAS  C:\Users\Matuesz\AppData\Local\Temp\ccLA85Wr.s 			page 57


 3166              		.cfi_endproc
 3167              	.LFE155:
 3168              		.size	usb_lld_clear_out, .-usb_lld_clear_out
 3169              		.section	.text.usb_lld_clear_in,"ax",%progbits
 3170              		.align	2
 3171              		.p2align 4,,15
 3172              		.global	usb_lld_clear_in
 3173              		.thumb
 3174              		.thumb_func
 3175              		.type	usb_lld_clear_in, %function
 3176              	usb_lld_clear_in:
 3177              	.LFB156:
 3178              		.loc 1 1327 0
 3179              		.cfi_startproc
 3180              		@ args = 0, pretend = 0, frame = 0
 3181              		@ frame_needed = 0, uses_anonymous_args = 0
 3182              		@ link register save eliminated.
 3183              	.LVL322:
 3184              		.loc 1 1329 0
 3185 0000 4831     		adds	r1, r1, #72
 3186              	.LVL323:
 3187 0002 836E     		ldr	r3, [r0, #104]
 3188 0004 4901     		lsls	r1, r1, #5
 3189 0006 5A58     		ldr	r2, [r3, r1]
 3190 0008 22F40010 		bic	r0, r2, #2097152
 3191              	.LVL324:
 3192 000c 5850     		str	r0, [r3, r1]
 3193 000e 7047     		bx	lr
 3194              		.cfi_endproc
 3195              	.LFE156:
 3196              		.size	usb_lld_clear_in, .-usb_lld_clear_in
 3197              		.global	USBD2
 3198              		.global	USBD1
 3199              		.section	.rodata.fsparams,"a",%progbits
 3200              		.align	2
 3201              		.set	.LANCHOR1,. + 0
 3202              		.type	fsparams, %object
 3203              		.size	fsparams, 12
 3204              	fsparams:
 3205 0000 80000000 		.word	128
 3206 0004 40010000 		.word	320
 3207 0008 03000000 		.word	3
 3208              		.section	.bss.USBD1,"aw",%nobits
 3209              		.align	3
 3210              		.set	.LANCHOR0,. + 0
 3211              		.type	USBD1, %object
 3212              		.size	USBD1, 464
 3213              	USBD1:
 3214 0000 00000000 		.space	464
 3214      00000000 
 3214      00000000 
 3214      00000000 
 3214      00000000 
 3215              		.section	.bss.USBD2,"aw",%nobits
 3216              		.align	3
 3217              		.set	.LANCHOR2,. + 0
 3218              		.type	USBD2, %object
ARM GAS  C:\Users\Matuesz\AppData\Local\Temp\ccLA85Wr.s 			page 58


 3219              		.size	USBD2, 464
 3220              	USBD2:
 3221 0000 00000000 		.space	464
 3221      00000000 
 3221      00000000 
 3221      00000000 
 3221      00000000 
 3222              		.section	.rodata.hsparams,"a",%progbits
 3223              		.align	2
 3224              		.set	.LANCHOR3,. + 0
 3225              		.type	hsparams, %object
 3226              		.size	hsparams, 12
 3227              	hsparams:
 3228 0000 00010000 		.word	256
 3229 0004 00040000 		.word	1024
 3230 0008 05000000 		.word	5
 3231              		.section	.rodata.str1.4,"aMS",%progbits,1
 3232              		.align	2
 3233              	.LC0:
 3234 0000 7573625F 		.ascii	"usb_lld_pump\000"
 3234      6C6C645F 
 3234      70756D70 
 3234      00
 3235 000d 000000   		.section	.rodata.ep0config,"a",%progbits
 3236              		.align	2
 3237              		.set	.LANCHOR4,. + 0
 3238              		.type	ep0config, %object
 3239              		.size	ep0config, 36
 3240              	ep0config:
 3241 0000 00000000 		.word	0
 3242 0004 00000000 		.word	_usb_ep0setup
 3243 0008 00000000 		.word	_usb_ep0in
 3244 000c 00000000 		.word	_usb_ep0out
 3245 0010 4000     		.short	64
 3246 0012 4000     		.short	64
 3247 0014 00000000 		.word	ep0_state
 3248 0018 00000000 		.word	ep0_state
 3249 001c 0100     		.short	1
 3250 001e 0000     		.space	2
 3251 0020 00000000 		.word	ep0setup_buffer
 3252              		.section	.bss.ep0_state,"aw",%nobits
 3253              		.align	2
 3254              		.type	ep0_state, %object
 3255              		.size	ep0_state, 20
 3256              	ep0_state:
 3257 0000 00000000 		.space	20
 3257      00000000 
 3257      00000000 
 3257      00000000 
 3257      00000000 
 3258              		.section	.bss.ep0setup_buffer,"aw",%nobits
 3259              		.align	2
 3260              		.type	ep0setup_buffer, %object
 3261              		.size	ep0setup_buffer, 8
 3262              	ep0setup_buffer:
 3263 0000 00000000 		.space	8
 3263      00000000 
ARM GAS  C:\Users\Matuesz\AppData\Local\Temp\ccLA85Wr.s 			page 59


 3264              		.text
 3265              	.Letext0:
 3266              		.file 3 "c:\\chibistudio\\tools\\gnu tools arm embedded\\4.7 2014q2\\bin\\../lib/gcc/arm-none-eabi
 3267              		.file 4 "c:\\chibistudio\\tools\\gnu tools arm embedded\\4.7 2014q2\\bin\\../lib/gcc/arm-none-eabi
 3268              		.file 5 "../../os/ports/GCC/ARMCMx/chtypes.h"
 3269              		.file 6 "../../os/kernel/include/chlists.h"
 3270              		.file 7 "../../os/kernel/include/chthreads.h"
 3271              		.file 8 "../../os/ports/GCC/ARMCMx/chcore_v7m.h"
 3272              		.file 9 "../../os/kernel/include/chschd.h"
 3273              		.file 10 "../../os/kernel/include/chmtx.h"
 3274              		.file 11 "../../os/kernel/include/chqueues.h"
 3275              		.file 12 "../../os/hal/platforms/STM32F4xx/stm32f4xx.h"
 3276              		.file 13 "../../os/hal/platforms/STM32F4xx/hal_lld.h"
 3277              		.file 14 "../../os/hal/include/usb.h"
 3278              		.file 15 "../../os/hal/platforms/STM32/OTGv1/usb_lld.h"
 3279              		.file 16 "../../os/hal/platforms/STM32/OTGv1/stm32_otg.h"
 3280              		.file 17 "../../os/ports/common/ARMCMx/CMSIS/include/core_cm4.h"
 3281              		.file 18 "../../os/hal/include/hal.h"
 3282              		.file 19 "../../os/ports/common/ARMCMx/nvic.h"
 3283              		.section	.debug_info,"",%progbits
 3284              	.Ldebug_info0:
 3285 0000 3C290000 		.4byte	0x293c
 3286 0004 0200     		.2byte	0x2
 3287 0006 00000000 		.4byte	.Ldebug_abbrev0
 3288 000a 04       		.byte	0x4
 3289 000b 01       		.uleb128 0x1
 3290 000c 10090000 		.4byte	.LASF349
 3291 0010 01       		.byte	0x1
 3292 0011 740C0000 		.4byte	.LASF350
 3293 0015 E20A0000 		.4byte	.LASF351
 3294 0019 38030000 		.4byte	.Ldebug_ranges0+0x338
 3295 001d 00000000 		.4byte	0
 3296 0021 00000000 		.4byte	0
 3297 0025 00000000 		.4byte	.Ldebug_line0
 3298 0029 02       		.uleb128 0x2
 3299 002a 04       		.byte	0x4
 3300 002b 07       		.byte	0x7
 3301 002c F0070000 		.4byte	.LASF0
 3302 0030 02       		.uleb128 0x2
 3303 0031 01       		.byte	0x1
 3304 0032 06       		.byte	0x6
 3305 0033 A8020000 		.4byte	.LASF1
 3306 0037 02       		.uleb128 0x2
 3307 0038 01       		.byte	0x1
 3308 0039 08       		.byte	0x8
 3309 003a 35030000 		.4byte	.LASF2
 3310 003e 02       		.uleb128 0x2
 3311 003f 02       		.byte	0x2
 3312 0040 05       		.byte	0x5
 3313 0041 E40B0000 		.4byte	.LASF3
 3314 0045 02       		.uleb128 0x2
 3315 0046 02       		.byte	0x2
 3316 0047 07       		.byte	0x7
 3317 0048 FA0D0000 		.4byte	.LASF4
 3318 004c 03       		.uleb128 0x3
 3319 004d 04       		.byte	0x4
 3320 004e 05       		.byte	0x5
ARM GAS  C:\Users\Matuesz\AppData\Local\Temp\ccLA85Wr.s 			page 60


 3321 004f 696E7400 		.ascii	"int\000"
 3322 0053 02       		.uleb128 0x2
 3323 0054 08       		.byte	0x8
 3324 0055 05       		.byte	0x5
 3325 0056 29070000 		.4byte	.LASF5
 3326 005a 02       		.uleb128 0x2
 3327 005b 08       		.byte	0x8
 3328 005c 07       		.byte	0x7
 3329 005d F0090000 		.4byte	.LASF6
 3330 0061 02       		.uleb128 0x2
 3331 0062 04       		.byte	0x4
 3332 0063 05       		.byte	0x5
 3333 0064 C9010000 		.4byte	.LASF7
 3334 0068 02       		.uleb128 0x2
 3335 0069 04       		.byte	0x4
 3336 006a 07       		.byte	0x7
 3337 006b 19000000 		.4byte	.LASF8
 3338 006f 04       		.uleb128 0x4
 3339 0070 04       		.byte	0x4
 3340 0071 02       		.uleb128 0x2
 3341 0072 04       		.byte	0x4
 3342 0073 07       		.byte	0x7
 3343 0074 02060000 		.4byte	.LASF9
 3344 0078 02       		.uleb128 0x2
 3345 0079 01       		.byte	0x1
 3346 007a 08       		.byte	0x8
 3347 007b 02040000 		.4byte	.LASF10
 3348 007f 05       		.uleb128 0x5
 3349 0080 04       		.byte	0x4
 3350 0081 85000000 		.4byte	0x85
 3351 0085 06       		.uleb128 0x6
 3352 0086 78000000 		.4byte	0x78
 3353 008a 07       		.uleb128 0x7
 3354 008b 00000000 		.4byte	.LASF11
 3355 008f 03       		.byte	0x3
 3356 0090 D5       		.byte	0xd5
 3357 0091 29000000 		.4byte	0x29
 3358 0095 07       		.uleb128 0x7
 3359 0096 BE020000 		.4byte	.LASF12
 3360 009a 04       		.byte	0x4
 3361 009b 2A       		.byte	0x2a
 3362 009c 37000000 		.4byte	0x37
 3363 00a0 07       		.uleb128 0x7
 3364 00a1 320A0000 		.4byte	.LASF13
 3365 00a5 04       		.byte	0x4
 3366 00a6 36       		.byte	0x36
 3367 00a7 45000000 		.4byte	0x45
 3368 00ab 07       		.uleb128 0x7
 3369 00ac 56000000 		.4byte	.LASF14
 3370 00b0 04       		.byte	0x4
 3371 00b1 4F       		.byte	0x4f
 3372 00b2 61000000 		.4byte	0x61
 3373 00b6 07       		.uleb128 0x7
 3374 00b7 980D0000 		.4byte	.LASF15
 3375 00bb 04       		.byte	0x4
 3376 00bc 50       		.byte	0x50
 3377 00bd 71000000 		.4byte	0x71
ARM GAS  C:\Users\Matuesz\AppData\Local\Temp\ccLA85Wr.s 			page 61


 3378 00c1 07       		.uleb128 0x7
 3379 00c2 030C0000 		.4byte	.LASF16
 3380 00c6 04       		.byte	0x4
 3381 00c7 78       		.byte	0x78
 3382 00c8 5A000000 		.4byte	0x5a
 3383 00cc 07       		.uleb128 0x7
 3384 00cd C60C0000 		.4byte	.LASF17
 3385 00d1 05       		.byte	0x5
 3386 00d2 2B       		.byte	0x2b
 3387 00d3 D7000000 		.4byte	0xd7
 3388 00d7 02       		.uleb128 0x2
 3389 00d8 01       		.byte	0x1
 3390 00d9 02       		.byte	0x2
 3391 00da A3030000 		.4byte	.LASF18
 3392 00de 07       		.uleb128 0x7
 3393 00df 650B0000 		.4byte	.LASF19
 3394 00e3 05       		.byte	0x5
 3395 00e4 2C       		.byte	0x2c
 3396 00e5 95000000 		.4byte	0x95
 3397 00e9 07       		.uleb128 0x7
 3398 00ea E8010000 		.4byte	.LASF20
 3399 00ee 05       		.byte	0x5
 3400 00ef 2D       		.byte	0x2d
 3401 00f0 95000000 		.4byte	0x95
 3402 00f4 07       		.uleb128 0x7
 3403 00f5 590D0000 		.4byte	.LASF21
 3404 00f9 05       		.byte	0x5
 3405 00fa 2E       		.byte	0x2e
 3406 00fb 95000000 		.4byte	0x95
 3407 00ff 07       		.uleb128 0x7
 3408 0100 770A0000 		.4byte	.LASF22
 3409 0104 05       		.byte	0x5
 3410 0105 2F       		.byte	0x2f
 3411 0106 95000000 		.4byte	0x95
 3412 010a 07       		.uleb128 0x7
 3413 010b 3D000000 		.4byte	.LASF23
 3414 010f 05       		.byte	0x5
 3415 0110 30       		.byte	0x30
 3416 0111 B6000000 		.4byte	0xb6
 3417 0115 07       		.uleb128 0x7
 3418 0116 480A0000 		.4byte	.LASF24
 3419 011a 05       		.byte	0x5
 3420 011b 31       		.byte	0x31
 3421 011c AB000000 		.4byte	0xab
 3422 0120 07       		.uleb128 0x7
 3423 0121 F1020000 		.4byte	.LASF25
 3424 0125 05       		.byte	0x5
 3425 0126 33       		.byte	0x33
 3426 0127 B6000000 		.4byte	0xb6
 3427 012b 07       		.uleb128 0x7
 3428 012c 22000000 		.4byte	.LASF26
 3429 0130 05       		.byte	0x5
 3430 0131 35       		.byte	0x35
 3431 0132 B6000000 		.4byte	0xb6
 3432 0136 07       		.uleb128 0x7
 3433 0137 FB0C0000 		.4byte	.LASF27
 3434 013b 06       		.byte	0x6
ARM GAS  C:\Users\Matuesz\AppData\Local\Temp\ccLA85Wr.s 			page 62


 3435 013c 2A       		.byte	0x2a
 3436 013d 41010000 		.4byte	0x141
 3437 0141 08       		.uleb128 0x8
 3438 0142 FB0C0000 		.4byte	.LASF27
 3439 0146 48       		.byte	0x48
 3440 0147 07       		.byte	0x7
 3441 0148 5E       		.byte	0x5e
 3442 0149 66020000 		.4byte	0x266
 3443 014d 09       		.uleb128 0x9
 3444 014e D2010000 		.4byte	.LASF28
 3445 0152 07       		.byte	0x7
 3446 0153 5F       		.byte	0x5f
 3447 0154 8B020000 		.4byte	0x28b
 3448 0158 02       		.byte	0x2
 3449 0159 23       		.byte	0x23
 3450 015a 00       		.uleb128 0
 3451 015b 09       		.uleb128 0x9
 3452 015c E1010000 		.4byte	.LASF29
 3453 0160 07       		.byte	0x7
 3454 0161 61       		.byte	0x61
 3455 0162 8B020000 		.4byte	0x28b
 3456 0166 02       		.byte	0x2
 3457 0167 23       		.byte	0x23
 3458 0168 04       		.uleb128 0x4
 3459 0169 09       		.uleb128 0x9
 3460 016a 1A040000 		.4byte	.LASF30
 3461 016e 07       		.byte	0x7
 3462 016f 63       		.byte	0x63
 3463 0170 0A010000 		.4byte	0x10a
 3464 0174 02       		.byte	0x2
 3465 0175 23       		.byte	0x23
 3466 0176 08       		.uleb128 0x8
 3467 0177 09       		.uleb128 0x9
 3468 0178 37000000 		.4byte	.LASF31
 3469 017c 07       		.byte	0x7
 3470 017d 64       		.byte	0x64
 3471 017e 62030000 		.4byte	0x362
 3472 0182 02       		.byte	0x2
 3473 0183 23       		.byte	0x23
 3474 0184 0C       		.uleb128 0xc
 3475 0185 09       		.uleb128 0x9
 3476 0186 BC010000 		.4byte	.LASF32
 3477 018a 07       		.byte	0x7
 3478 018b 66       		.byte	0x66
 3479 018c 8B020000 		.4byte	0x28b
 3480 0190 02       		.byte	0x2
 3481 0191 23       		.byte	0x23
 3482 0192 10       		.uleb128 0x10
 3483 0193 09       		.uleb128 0x9
 3484 0194 2A0A0000 		.4byte	.LASF33
 3485 0198 07       		.byte	0x7
 3486 0199 67       		.byte	0x67
 3487 019a 8B020000 		.4byte	0x28b
 3488 019e 02       		.byte	0x2
 3489 019f 23       		.byte	0x23
 3490 01a0 14       		.uleb128 0x14
 3491 01a1 09       		.uleb128 0x9
ARM GAS  C:\Users\Matuesz\AppData\Local\Temp\ccLA85Wr.s 			page 63


 3492 01a2 B30E0000 		.4byte	.LASF34
 3493 01a6 07       		.byte	0x7
 3494 01a7 6E       		.byte	0x6e
 3495 01a8 7F000000 		.4byte	0x7f
 3496 01ac 02       		.byte	0x2
 3497 01ad 23       		.byte	0x23
 3498 01ae 18       		.uleb128 0x18
 3499 01af 09       		.uleb128 0x9
 3500 01b0 300F0000 		.4byte	.LASF35
 3501 01b4 07       		.byte	0x7
 3502 01b5 79       		.byte	0x79
 3503 01b6 E9000000 		.4byte	0xe9
 3504 01ba 02       		.byte	0x2
 3505 01bb 23       		.byte	0x23
 3506 01bc 1C       		.uleb128 0x1c
 3507 01bd 09       		.uleb128 0x9
 3508 01be D9070000 		.4byte	.LASF36
 3509 01c2 07       		.byte	0x7
 3510 01c3 7D       		.byte	0x7d
 3511 01c4 DE000000 		.4byte	0xde
 3512 01c8 02       		.byte	0x2
 3513 01c9 23       		.byte	0x23
 3514 01ca 1D       		.uleb128 0x1d
 3515 01cb 09       		.uleb128 0x9
 3516 01cc 4D080000 		.4byte	.LASF37
 3517 01d0 07       		.byte	0x7
 3518 01d1 82       		.byte	0x82
 3519 01d2 F4000000 		.4byte	0xf4
 3520 01d6 02       		.byte	0x2
 3521 01d7 23       		.byte	0x23
 3522 01d8 1E       		.uleb128 0x1e
 3523 01d9 09       		.uleb128 0x9
 3524 01da B4020000 		.4byte	.LASF38
 3525 01de 07       		.byte	0x7
 3526 01df 88       		.byte	0x88
 3527 01e0 FF000000 		.4byte	0xff
 3528 01e4 02       		.byte	0x2
 3529 01e5 23       		.byte	0x23
 3530 01e6 1F       		.uleb128 0x1f
 3531 01e7 09       		.uleb128 0x9
 3532 01e8 F1080000 		.4byte	.LASF39
 3533 01ec 07       		.byte	0x7
 3534 01ed 8F       		.byte	0x8f
 3535 01ee 8A030000 		.4byte	0x38a
 3536 01f2 02       		.byte	0x2
 3537 01f3 23       		.byte	0x23
 3538 01f4 20       		.uleb128 0x20
 3539 01f5 0A       		.uleb128 0xa
 3540 01f6 705F7500 		.ascii	"p_u\000"
 3541 01fa 07       		.byte	0x7
 3542 01fb B4       		.byte	0xb4
 3543 01fc 3F040000 		.4byte	0x43f
 3544 0200 02       		.byte	0x2
 3545 0201 23       		.byte	0x23
 3546 0202 24       		.uleb128 0x24
 3547 0203 09       		.uleb128 0x9
 3548 0204 C8070000 		.4byte	.LASF40
ARM GAS  C:\Users\Matuesz\AppData\Local\Temp\ccLA85Wr.s 			page 64


 3549 0208 07       		.byte	0x7
 3550 0209 B9       		.byte	0xb9
 3551 020a B3020000 		.4byte	0x2b3
 3552 020e 02       		.byte	0x2
 3553 020f 23       		.byte	0x23
 3554 0210 28       		.uleb128 0x28
 3555 0211 09       		.uleb128 0x9
 3556 0212 45000000 		.4byte	.LASF41
 3557 0216 07       		.byte	0x7
 3558 0217 BF       		.byte	0xbf
 3559 0218 91020000 		.4byte	0x291
 3560 021c 02       		.byte	0x2
 3561 021d 23       		.byte	0x23
 3562 021e 2C       		.uleb128 0x2c
 3563 021f 09       		.uleb128 0x9
 3564 0220 1B0F0000 		.4byte	.LASF42
 3565 0224 07       		.byte	0x7
 3566 0225 C3       		.byte	0xc3
 3567 0226 15010000 		.4byte	0x115
 3568 022a 02       		.byte	0x2
 3569 022b 23       		.byte	0x23
 3570 022c 34       		.uleb128 0x34
 3571 022d 09       		.uleb128 0x9
 3572 022e 52050000 		.4byte	.LASF43
 3573 0232 07       		.byte	0x7
 3574 0233 C9       		.byte	0xc9
 3575 0234 20010000 		.4byte	0x120
 3576 0238 02       		.byte	0x2
 3577 0239 23       		.byte	0x23
 3578 023a 38       		.uleb128 0x38
 3579 023b 09       		.uleb128 0x9
 3580 023c FD010000 		.4byte	.LASF44
 3581 0240 07       		.byte	0x7
 3582 0241 D0       		.byte	0xd0
 3583 0242 74040000 		.4byte	0x474
 3584 0246 02       		.byte	0x2
 3585 0247 23       		.byte	0x23
 3586 0248 3C       		.uleb128 0x3c
 3587 0249 09       		.uleb128 0x9
 3588 024a 83090000 		.4byte	.LASF45
 3589 024e 07       		.byte	0x7
 3590 024f D4       		.byte	0xd4
 3591 0250 0A010000 		.4byte	0x10a
 3592 0254 02       		.byte	0x2
 3593 0255 23       		.byte	0x23
 3594 0256 40       		.uleb128 0x40
 3595 0257 09       		.uleb128 0x9
 3596 0258 28080000 		.4byte	.LASF46
 3597 025c 07       		.byte	0x7
 3598 025d DA       		.byte	0xda
 3599 025e 6F000000 		.4byte	0x6f
 3600 0262 02       		.byte	0x2
 3601 0263 23       		.byte	0x23
 3602 0264 44       		.uleb128 0x44
 3603 0265 00       		.byte	0
 3604 0266 0B       		.uleb128 0xb
 3605 0267 08       		.byte	0x8
ARM GAS  C:\Users\Matuesz\AppData\Local\Temp\ccLA85Wr.s 			page 65


 3606 0268 06       		.byte	0x6
 3607 0269 61       		.byte	0x61
 3608 026a 8B020000 		.4byte	0x28b
 3609 026e 09       		.uleb128 0x9
 3610 026f D2010000 		.4byte	.LASF28
 3611 0273 06       		.byte	0x6
 3612 0274 62       		.byte	0x62
 3613 0275 8B020000 		.4byte	0x28b
 3614 0279 02       		.byte	0x2
 3615 027a 23       		.byte	0x23
 3616 027b 00       		.uleb128 0
 3617 027c 09       		.uleb128 0x9
 3618 027d E1010000 		.4byte	.LASF29
 3619 0281 06       		.byte	0x6
 3620 0282 64       		.byte	0x64
 3621 0283 8B020000 		.4byte	0x28b
 3622 0287 02       		.byte	0x2
 3623 0288 23       		.byte	0x23
 3624 0289 04       		.uleb128 0x4
 3625 028a 00       		.byte	0
 3626 028b 05       		.uleb128 0x5
 3627 028c 04       		.byte	0x4
 3628 028d 36010000 		.4byte	0x136
 3629 0291 07       		.uleb128 0x7
 3630 0292 B20D0000 		.4byte	.LASF47
 3631 0296 06       		.byte	0x6
 3632 0297 66       		.byte	0x66
 3633 0298 66020000 		.4byte	0x266
 3634 029c 0B       		.uleb128 0xb
 3635 029d 04       		.byte	0x4
 3636 029e 06       		.byte	0x6
 3637 029f 6B       		.byte	0x6b
 3638 02a0 B3020000 		.4byte	0x2b3
 3639 02a4 09       		.uleb128 0x9
 3640 02a5 D2010000 		.4byte	.LASF28
 3641 02a9 06       		.byte	0x6
 3642 02aa 6D       		.byte	0x6d
 3643 02ab 8B020000 		.4byte	0x28b
 3644 02af 02       		.byte	0x2
 3645 02b0 23       		.byte	0x23
 3646 02b1 00       		.uleb128 0
 3647 02b2 00       		.byte	0
 3648 02b3 07       		.uleb128 0x7
 3649 02b4 92080000 		.4byte	.LASF48
 3650 02b8 06       		.byte	0x6
 3651 02b9 70       		.byte	0x70
 3652 02ba 9C020000 		.4byte	0x29c
 3653 02be 07       		.uleb128 0x7
 3654 02bf 31020000 		.4byte	.LASF49
 3655 02c3 08       		.byte	0x8
 3656 02c4 E5       		.byte	0xe5
 3657 02c5 6F000000 		.4byte	0x6f
 3658 02c9 07       		.uleb128 0x7
 3659 02ca 79040000 		.4byte	.LASF50
 3660 02ce 08       		.byte	0x8
 3661 02cf EB       		.byte	0xeb
 3662 02d0 C1000000 		.4byte	0xc1
ARM GAS  C:\Users\Matuesz\AppData\Local\Temp\ccLA85Wr.s 			page 66


 3663 02d4 0C       		.uleb128 0xc
 3664 02d5 4B050000 		.4byte	.LASF51
 3665 02d9 24       		.byte	0x24
 3666 02da 08       		.byte	0x8
 3667 02db 0C01     		.2byte	0x10c
 3668 02dd 62030000 		.4byte	0x362
 3669 02e1 0D       		.uleb128 0xd
 3670 02e2 723400   		.ascii	"r4\000"
 3671 02e5 08       		.byte	0x8
 3672 02e6 1F01     		.2byte	0x11f
 3673 02e8 BE020000 		.4byte	0x2be
 3674 02ec 02       		.byte	0x2
 3675 02ed 23       		.byte	0x23
 3676 02ee 00       		.uleb128 0
 3677 02ef 0D       		.uleb128 0xd
 3678 02f0 723500   		.ascii	"r5\000"
 3679 02f3 08       		.byte	0x8
 3680 02f4 2001     		.2byte	0x120
 3681 02f6 BE020000 		.4byte	0x2be
 3682 02fa 02       		.byte	0x2
 3683 02fb 23       		.byte	0x23
 3684 02fc 04       		.uleb128 0x4
 3685 02fd 0D       		.uleb128 0xd
 3686 02fe 723600   		.ascii	"r6\000"
 3687 0301 08       		.byte	0x8
 3688 0302 2101     		.2byte	0x121
 3689 0304 BE020000 		.4byte	0x2be
 3690 0308 02       		.byte	0x2
 3691 0309 23       		.byte	0x23
 3692 030a 08       		.uleb128 0x8
 3693 030b 0D       		.uleb128 0xd
 3694 030c 723700   		.ascii	"r7\000"
 3695 030f 08       		.byte	0x8
 3696 0310 2201     		.2byte	0x122
 3697 0312 BE020000 		.4byte	0x2be
 3698 0316 02       		.byte	0x2
 3699 0317 23       		.byte	0x23
 3700 0318 0C       		.uleb128 0xc
 3701 0319 0D       		.uleb128 0xd
 3702 031a 723800   		.ascii	"r8\000"
 3703 031d 08       		.byte	0x8
 3704 031e 2301     		.2byte	0x123
 3705 0320 BE020000 		.4byte	0x2be
 3706 0324 02       		.byte	0x2
 3707 0325 23       		.byte	0x23
 3708 0326 10       		.uleb128 0x10
 3709 0327 0D       		.uleb128 0xd
 3710 0328 723900   		.ascii	"r9\000"
 3711 032b 08       		.byte	0x8
 3712 032c 2401     		.2byte	0x124
 3713 032e BE020000 		.4byte	0x2be
 3714 0332 02       		.byte	0x2
 3715 0333 23       		.byte	0x23
 3716 0334 14       		.uleb128 0x14
 3717 0335 0D       		.uleb128 0xd
 3718 0336 72313000 		.ascii	"r10\000"
 3719 033a 08       		.byte	0x8
ARM GAS  C:\Users\Matuesz\AppData\Local\Temp\ccLA85Wr.s 			page 67


 3720 033b 2501     		.2byte	0x125
 3721 033d BE020000 		.4byte	0x2be
 3722 0341 02       		.byte	0x2
 3723 0342 23       		.byte	0x23
 3724 0343 18       		.uleb128 0x18
 3725 0344 0D       		.uleb128 0xd
 3726 0345 72313100 		.ascii	"r11\000"
 3727 0349 08       		.byte	0x8
 3728 034a 2601     		.2byte	0x126
 3729 034c BE020000 		.4byte	0x2be
 3730 0350 02       		.byte	0x2
 3731 0351 23       		.byte	0x23
 3732 0352 1C       		.uleb128 0x1c
 3733 0353 0D       		.uleb128 0xd
 3734 0354 6C7200   		.ascii	"lr\000"
 3735 0357 08       		.byte	0x8
 3736 0358 2701     		.2byte	0x127
 3737 035a BE020000 		.4byte	0x2be
 3738 035e 02       		.byte	0x2
 3739 035f 23       		.byte	0x23
 3740 0360 20       		.uleb128 0x20
 3741 0361 00       		.byte	0
 3742 0362 0C       		.uleb128 0xc
 3743 0363 FD020000 		.4byte	.LASF52
 3744 0367 04       		.byte	0x4
 3745 0368 08       		.byte	0x8
 3746 0369 3101     		.2byte	0x131
 3747 036b 7F030000 		.4byte	0x37f
 3748 036f 0D       		.uleb128 0xd
 3749 0370 72313300 		.ascii	"r13\000"
 3750 0374 08       		.byte	0x8
 3751 0375 3201     		.2byte	0x132
 3752 0377 7F030000 		.4byte	0x37f
 3753 037b 02       		.byte	0x2
 3754 037c 23       		.byte	0x23
 3755 037d 00       		.uleb128 0
 3756 037e 00       		.byte	0
 3757 037f 05       		.uleb128 0x5
 3758 0380 04       		.byte	0x4
 3759 0381 D4020000 		.4byte	0x2d4
 3760 0385 0E       		.uleb128 0xe
 3761 0386 B6000000 		.4byte	0xb6
 3762 038a 0E       		.uleb128 0xe
 3763 038b 2B010000 		.4byte	0x12b
 3764 038f 0B       		.uleb128 0xb
 3765 0390 1C       		.byte	0x1c
 3766 0391 09       		.byte	0x9
 3767 0392 5E       		.byte	0x5e
 3768 0393 EC030000 		.4byte	0x3ec
 3769 0397 09       		.uleb128 0x9
 3770 0398 330B0000 		.4byte	.LASF53
 3771 039c 09       		.byte	0x9
 3772 039d 5F       		.byte	0x5f
 3773 039e 91020000 		.4byte	0x291
 3774 03a2 02       		.byte	0x2
 3775 03a3 23       		.byte	0x23
 3776 03a4 00       		.uleb128 0
ARM GAS  C:\Users\Matuesz\AppData\Local\Temp\ccLA85Wr.s 			page 68


 3777 03a5 09       		.uleb128 0x9
 3778 03a6 6D0C0000 		.4byte	.LASF54
 3779 03aa 09       		.byte	0x9
 3780 03ab 60       		.byte	0x60
 3781 03ac 0A010000 		.4byte	0x10a
 3782 03b0 02       		.byte	0x2
 3783 03b1 23       		.byte	0x23
 3784 03b2 08       		.uleb128 0x8
 3785 03b3 09       		.uleb128 0x9
 3786 03b4 50000000 		.4byte	.LASF55
 3787 03b8 09       		.byte	0x9
 3788 03b9 62       		.byte	0x62
 3789 03ba 62030000 		.4byte	0x362
 3790 03be 02       		.byte	0x2
 3791 03bf 23       		.byte	0x23
 3792 03c0 0C       		.uleb128 0xc
 3793 03c1 09       		.uleb128 0x9
 3794 03c2 6D030000 		.4byte	.LASF56
 3795 03c6 09       		.byte	0x9
 3796 03c7 65       		.byte	0x65
 3797 03c8 8B020000 		.4byte	0x28b
 3798 03cc 02       		.byte	0x2
 3799 03cd 23       		.byte	0x23
 3800 03ce 10       		.uleb128 0x10
 3801 03cf 09       		.uleb128 0x9
 3802 03d0 B60B0000 		.4byte	.LASF57
 3803 03d4 09       		.byte	0x9
 3804 03d5 66       		.byte	0x66
 3805 03d6 8B020000 		.4byte	0x28b
 3806 03da 02       		.byte	0x2
 3807 03db 23       		.byte	0x23
 3808 03dc 14       		.uleb128 0x14
 3809 03dd 09       		.uleb128 0x9
 3810 03de A10A0000 		.4byte	.LASF58
 3811 03e2 09       		.byte	0x9
 3812 03e3 69       		.byte	0x69
 3813 03e4 8B020000 		.4byte	0x28b
 3814 03e8 02       		.byte	0x2
 3815 03e9 23       		.byte	0x23
 3816 03ea 18       		.uleb128 0x18
 3817 03eb 00       		.byte	0
 3818 03ec 07       		.uleb128 0x7
 3819 03ed 900E0000 		.4byte	.LASF59
 3820 03f1 09       		.byte	0x9
 3821 03f2 6B       		.byte	0x6b
 3822 03f3 8F030000 		.4byte	0x38f
 3823 03f7 08       		.uleb128 0x8
 3824 03f8 23070000 		.4byte	.LASF60
 3825 03fc 10       		.byte	0x10
 3826 03fd 0A       		.byte	0xa
 3827 03fe 2C       		.byte	0x2c
 3828 03ff 2E040000 		.4byte	0x42e
 3829 0403 09       		.uleb128 0x9
 3830 0404 41070000 		.4byte	.LASF61
 3831 0408 0A       		.byte	0xa
 3832 0409 2D       		.byte	0x2d
 3833 040a 91020000 		.4byte	0x291
ARM GAS  C:\Users\Matuesz\AppData\Local\Temp\ccLA85Wr.s 			page 69


 3834 040e 02       		.byte	0x2
 3835 040f 23       		.byte	0x23
 3836 0410 00       		.uleb128 0
 3837 0411 09       		.uleb128 0x9
 3838 0412 4B010000 		.4byte	.LASF62
 3839 0416 0A       		.byte	0xa
 3840 0417 2F       		.byte	0x2f
 3841 0418 8B020000 		.4byte	0x28b
 3842 041c 02       		.byte	0x2
 3843 041d 23       		.byte	0x23
 3844 041e 08       		.uleb128 0x8
 3845 041f 09       		.uleb128 0x9
 3846 0420 BF0E0000 		.4byte	.LASF63
 3847 0424 0A       		.byte	0xa
 3848 0425 31       		.byte	0x31
 3849 0426 2E040000 		.4byte	0x42e
 3850 042a 02       		.byte	0x2
 3851 042b 23       		.byte	0x23
 3852 042c 0C       		.uleb128 0xc
 3853 042d 00       		.byte	0
 3854 042e 05       		.uleb128 0x5
 3855 042f 04       		.byte	0x4
 3856 0430 F7030000 		.4byte	0x3f7
 3857 0434 07       		.uleb128 0x7
 3858 0435 23070000 		.4byte	.LASF60
 3859 0439 0A       		.byte	0xa
 3860 043a 33       		.byte	0x33
 3861 043b F7030000 		.4byte	0x3f7
 3862 043f 0F       		.uleb128 0xf
 3863 0440 04       		.byte	0x4
 3864 0441 07       		.byte	0x7
 3865 0442 96       		.byte	0x96
 3866 0443 74040000 		.4byte	0x474
 3867 0447 10       		.uleb128 0x10
 3868 0448 F30D0000 		.4byte	.LASF64
 3869 044c 07       		.byte	0x7
 3870 044d 9D       		.byte	0x9d
 3871 044e 15010000 		.4byte	0x115
 3872 0452 10       		.uleb128 0x10
 3873 0453 53010000 		.4byte	.LASF65
 3874 0457 07       		.byte	0x7
 3875 0458 A4       		.byte	0xa4
 3876 0459 15010000 		.4byte	0x115
 3877 045d 10       		.uleb128 0x10
 3878 045e 47040000 		.4byte	.LASF66
 3879 0462 07       		.byte	0x7
 3880 0463 AB       		.byte	0xab
 3881 0464 6F000000 		.4byte	0x6f
 3882 0468 10       		.uleb128 0x10
 3883 0469 70010000 		.4byte	.LASF67
 3884 046d 07       		.byte	0x7
 3885 046e B2       		.byte	0xb2
 3886 046f 20010000 		.4byte	0x120
 3887 0473 00       		.byte	0
 3888 0474 05       		.uleb128 0x5
 3889 0475 04       		.byte	0x4
 3890 0476 34040000 		.4byte	0x434
ARM GAS  C:\Users\Matuesz\AppData\Local\Temp\ccLA85Wr.s 			page 70


 3891 047a 07       		.uleb128 0x7
 3892 047b 98070000 		.4byte	.LASF68
 3893 047f 07       		.byte	0x7
 3894 0480 E5       		.byte	0xe5
 3895 0481 85040000 		.4byte	0x485
 3896 0485 05       		.uleb128 0x5
 3897 0486 04       		.byte	0x4
 3898 0487 8B040000 		.4byte	0x48b
 3899 048b 11       		.uleb128 0x11
 3900 048c 01       		.byte	0x1
 3901 048d 15010000 		.4byte	0x115
 3902 0491 9B040000 		.4byte	0x49b
 3903 0495 12       		.uleb128 0x12
 3904 0496 6F000000 		.4byte	0x6f
 3905 049a 00       		.byte	0
 3906 049b 07       		.uleb128 0x7
 3907 049c 33040000 		.4byte	.LASF69
 3908 04a0 0B       		.byte	0xb
 3909 04a1 37       		.byte	0x37
 3910 04a2 A6040000 		.4byte	0x4a6
 3911 04a6 08       		.uleb128 0x8
 3912 04a7 33040000 		.4byte	.LASF69
 3913 04ab 24       		.byte	0x24
 3914 04ac 0B       		.byte	0xb
 3915 04ad 45       		.byte	0x45
 3916 04ae 23050000 		.4byte	0x523
 3917 04b2 09       		.uleb128 0x9
 3918 04b3 550B0000 		.4byte	.LASF70
 3919 04b7 0B       		.byte	0xb
 3920 04b8 46       		.byte	0x46
 3921 04b9 91020000 		.4byte	0x291
 3922 04bd 02       		.byte	0x2
 3923 04be 23       		.byte	0x23
 3924 04bf 00       		.uleb128 0
 3925 04c0 09       		.uleb128 0x9
 3926 04c1 CF050000 		.4byte	.LASF71
 3927 04c5 0B       		.byte	0xb
 3928 04c6 47       		.byte	0x47
 3929 04c7 8A000000 		.4byte	0x8a
 3930 04cb 02       		.byte	0x2
 3931 04cc 23       		.byte	0x23
 3932 04cd 08       		.uleb128 0x8
 3933 04ce 09       		.uleb128 0x9
 3934 04cf 8F010000 		.4byte	.LASF72
 3935 04d3 0B       		.byte	0xb
 3936 04d4 48       		.byte	0x48
 3937 04d5 46050000 		.4byte	0x546
 3938 04d9 02       		.byte	0x2
 3939 04da 23       		.byte	0x23
 3940 04db 0C       		.uleb128 0xc
 3941 04dc 09       		.uleb128 0x9
 3942 04dd 6A010000 		.4byte	.LASF73
 3943 04e1 0B       		.byte	0xb
 3944 04e2 49       		.byte	0x49
 3945 04e3 46050000 		.4byte	0x546
 3946 04e7 02       		.byte	0x2
 3947 04e8 23       		.byte	0x23
ARM GAS  C:\Users\Matuesz\AppData\Local\Temp\ccLA85Wr.s 			page 71


 3948 04e9 10       		.uleb128 0x10
 3949 04ea 09       		.uleb128 0x9
 3950 04eb 55060000 		.4byte	.LASF74
 3951 04ef 0B       		.byte	0xb
 3952 04f0 4B       		.byte	0x4b
 3953 04f1 46050000 		.4byte	0x546
 3954 04f5 02       		.byte	0x2
 3955 04f6 23       		.byte	0x23
 3956 04f7 14       		.uleb128 0x14
 3957 04f8 09       		.uleb128 0x9
 3958 04f9 D9010000 		.4byte	.LASF75
 3959 04fd 0B       		.byte	0xb
 3960 04fe 4C       		.byte	0x4c
 3961 04ff 46050000 		.4byte	0x546
 3962 0503 02       		.byte	0x2
 3963 0504 23       		.byte	0x23
 3964 0505 18       		.uleb128 0x18
 3965 0506 09       		.uleb128 0x9
 3966 0507 B3010000 		.4byte	.LASF76
 3967 050b 0B       		.byte	0xb
 3968 050c 4D       		.byte	0x4d
 3969 050d 23050000 		.4byte	0x523
 3970 0511 02       		.byte	0x2
 3971 0512 23       		.byte	0x23
 3972 0513 1C       		.uleb128 0x1c
 3973 0514 09       		.uleb128 0x9
 3974 0515 57030000 		.4byte	.LASF77
 3975 0519 0B       		.byte	0xb
 3976 051a 4E       		.byte	0x4e
 3977 051b 6F000000 		.4byte	0x6f
 3978 051f 02       		.byte	0x2
 3979 0520 23       		.byte	0x23
 3980 0521 20       		.uleb128 0x20
 3981 0522 00       		.byte	0
 3982 0523 07       		.uleb128 0x7
 3983 0524 BE070000 		.4byte	.LASF78
 3984 0528 0B       		.byte	0xb
 3985 0529 3A       		.byte	0x3a
 3986 052a 2E050000 		.4byte	0x52e
 3987 052e 05       		.uleb128 0x5
 3988 052f 04       		.byte	0x4
 3989 0530 34050000 		.4byte	0x534
 3990 0534 13       		.uleb128 0x13
 3991 0535 01       		.byte	0x1
 3992 0536 40050000 		.4byte	0x540
 3993 053a 12       		.uleb128 0x12
 3994 053b 40050000 		.4byte	0x540
 3995 053f 00       		.byte	0
 3996 0540 05       		.uleb128 0x5
 3997 0541 04       		.byte	0x4
 3998 0542 9B040000 		.4byte	0x49b
 3999 0546 05       		.uleb128 0x5
 4000 0547 04       		.byte	0x4
 4001 0548 95000000 		.4byte	0x95
 4002 054c 07       		.uleb128 0x7
 4003 054d 350E0000 		.4byte	.LASF79
 4004 0551 0B       		.byte	0xb
ARM GAS  C:\Users\Matuesz\AppData\Local\Temp\ccLA85Wr.s 			page 72


 4005 0552 82       		.byte	0x82
 4006 0553 9B040000 		.4byte	0x49b
 4007 0557 07       		.uleb128 0x7
 4008 0558 84040000 		.4byte	.LASF80
 4009 055c 0B       		.byte	0xb
 4010 055d F5       		.byte	0xf5
 4011 055e 9B040000 		.4byte	0x49b
 4012 0562 05       		.uleb128 0x5
 4013 0563 04       		.byte	0x4
 4014 0564 68050000 		.4byte	0x568
 4015 0568 06       		.uleb128 0x6
 4016 0569 95000000 		.4byte	0x95
 4017 056d 14       		.uleb128 0x14
 4018 056e B6000000 		.4byte	0xb6
 4019 0572 7D050000 		.4byte	0x57d
 4020 0576 15       		.uleb128 0x15
 4021 0577 68000000 		.4byte	0x68
 4022 057b 01       		.byte	0x1
 4023 057c 00       		.byte	0
 4024 057d 14       		.uleb128 0x14
 4025 057e B6000000 		.4byte	0xb6
 4026 0582 8D050000 		.4byte	0x58d
 4027 0586 15       		.uleb128 0x15
 4028 0587 68000000 		.4byte	0x68
 4029 058b 0E       		.byte	0xe
 4030 058c 00       		.byte	0
 4031 058d 0E       		.uleb128 0xe
 4032 058e AB000000 		.4byte	0xab
 4033 0592 16       		.uleb128 0x16
 4034 0593 90       		.byte	0x90
 4035 0594 0C       		.byte	0xc
 4036 0595 5804     		.2byte	0x458
 4037 0597 7F070000 		.4byte	0x77f
 4038 059b 0D       		.uleb128 0xd
 4039 059c 435200   		.ascii	"CR\000"
 4040 059f 0C       		.byte	0xc
 4041 05a0 5A04     		.2byte	0x45a
 4042 05a2 85030000 		.4byte	0x385
 4043 05a6 02       		.byte	0x2
 4044 05a7 23       		.byte	0x23
 4045 05a8 00       		.uleb128 0
 4046 05a9 17       		.uleb128 0x17
 4047 05aa BB060000 		.4byte	.LASF81
 4048 05ae 0C       		.byte	0xc
 4049 05af 5B04     		.2byte	0x45b
 4050 05b1 85030000 		.4byte	0x385
 4051 05b5 02       		.byte	0x2
 4052 05b6 23       		.byte	0x23
 4053 05b7 04       		.uleb128 0x4
 4054 05b8 17       		.uleb128 0x17
 4055 05b9 81050000 		.4byte	.LASF82
 4056 05bd 0C       		.byte	0xc
 4057 05be 5C04     		.2byte	0x45c
 4058 05c0 85030000 		.4byte	0x385
 4059 05c4 02       		.byte	0x2
 4060 05c5 23       		.byte	0x23
 4061 05c6 08       		.uleb128 0x8
ARM GAS  C:\Users\Matuesz\AppData\Local\Temp\ccLA85Wr.s 			page 73


 4062 05c7 0D       		.uleb128 0xd
 4063 05c8 43495200 		.ascii	"CIR\000"
 4064 05cc 0C       		.byte	0xc
 4065 05cd 5D04     		.2byte	0x45d
 4066 05cf 85030000 		.4byte	0x385
 4067 05d3 02       		.byte	0x2
 4068 05d4 23       		.byte	0x23
 4069 05d5 0C       		.uleb128 0xc
 4070 05d6 17       		.uleb128 0x17
 4071 05d7 630E0000 		.4byte	.LASF83
 4072 05db 0C       		.byte	0xc
 4073 05dc 5E04     		.2byte	0x45e
 4074 05de 85030000 		.4byte	0x385
 4075 05e2 02       		.byte	0x2
 4076 05e3 23       		.byte	0x23
 4077 05e4 10       		.uleb128 0x10
 4078 05e5 17       		.uleb128 0x17
 4079 05e6 BE0B0000 		.4byte	.LASF84
 4080 05ea 0C       		.byte	0xc
 4081 05eb 5F04     		.2byte	0x45f
 4082 05ed 85030000 		.4byte	0x385
 4083 05f1 02       		.byte	0x2
 4084 05f2 23       		.byte	0x23
 4085 05f3 14       		.uleb128 0x14
 4086 05f4 17       		.uleb128 0x17
 4087 05f5 7A090000 		.4byte	.LASF85
 4088 05f9 0C       		.byte	0xc
 4089 05fa 6004     		.2byte	0x460
 4090 05fc 85030000 		.4byte	0x385
 4091 0600 02       		.byte	0x2
 4092 0601 23       		.byte	0x23
 4093 0602 18       		.uleb128 0x18
 4094 0603 17       		.uleb128 0x17
 4095 0604 21030000 		.4byte	.LASF86
 4096 0608 0C       		.byte	0xc
 4097 0609 6104     		.2byte	0x461
 4098 060b B6000000 		.4byte	0xb6
 4099 060f 02       		.byte	0x2
 4100 0610 23       		.byte	0x23
 4101 0611 1C       		.uleb128 0x1c
 4102 0612 17       		.uleb128 0x17
 4103 0613 AC090000 		.4byte	.LASF87
 4104 0617 0C       		.byte	0xc
 4105 0618 6204     		.2byte	0x462
 4106 061a 85030000 		.4byte	0x385
 4107 061e 02       		.byte	0x2
 4108 061f 23       		.byte	0x23
 4109 0620 20       		.uleb128 0x20
 4110 0621 17       		.uleb128 0x17
 4111 0622 60070000 		.4byte	.LASF88
 4112 0626 0C       		.byte	0xc
 4113 0627 6304     		.2byte	0x463
 4114 0629 85030000 		.4byte	0x385
 4115 062d 02       		.byte	0x2
 4116 062e 23       		.byte	0x23
 4117 062f 24       		.uleb128 0x24
 4118 0630 17       		.uleb128 0x17
ARM GAS  C:\Users\Matuesz\AppData\Local\Temp\ccLA85Wr.s 			page 74


 4119 0631 2B030000 		.4byte	.LASF89
 4120 0635 0C       		.byte	0xc
 4121 0636 6404     		.2byte	0x464
 4122 0638 6D050000 		.4byte	0x56d
 4123 063c 02       		.byte	0x2
 4124 063d 23       		.byte	0x23
 4125 063e 28       		.uleb128 0x28
 4126 063f 17       		.uleb128 0x17
 4127 0640 6D0B0000 		.4byte	.LASF90
 4128 0644 0C       		.byte	0xc
 4129 0645 6504     		.2byte	0x465
 4130 0647 85030000 		.4byte	0x385
 4131 064b 02       		.byte	0x2
 4132 064c 23       		.byte	0x23
 4133 064d 30       		.uleb128 0x30
 4134 064e 17       		.uleb128 0x17
 4135 064f 2B040000 		.4byte	.LASF91
 4136 0653 0C       		.byte	0xc
 4137 0654 6604     		.2byte	0x466
 4138 0656 85030000 		.4byte	0x385
 4139 065a 02       		.byte	0x2
 4140 065b 23       		.byte	0x23
 4141 065c 34       		.uleb128 0x34
 4142 065d 17       		.uleb128 0x17
 4143 065e AE0B0000 		.4byte	.LASF92
 4144 0662 0C       		.byte	0xc
 4145 0663 6704     		.2byte	0x467
 4146 0665 85030000 		.4byte	0x385
 4147 0669 02       		.byte	0x2
 4148 066a 23       		.byte	0x23
 4149 066b 38       		.uleb128 0x38
 4150 066c 17       		.uleb128 0x17
 4151 066d BC030000 		.4byte	.LASF93
 4152 0671 0C       		.byte	0xc
 4153 0672 6804     		.2byte	0x468
 4154 0674 B6000000 		.4byte	0xb6
 4155 0678 02       		.byte	0x2
 4156 0679 23       		.byte	0x23
 4157 067a 3C       		.uleb128 0x3c
 4158 067b 17       		.uleb128 0x17
 4159 067c B5090000 		.4byte	.LASF94
 4160 0680 0C       		.byte	0xc
 4161 0681 6904     		.2byte	0x469
 4162 0683 85030000 		.4byte	0x385
 4163 0687 02       		.byte	0x2
 4164 0688 23       		.byte	0x23
 4165 0689 40       		.uleb128 0x40
 4166 068a 17       		.uleb128 0x17
 4167 068b 78020000 		.4byte	.LASF95
 4168 068f 0C       		.byte	0xc
 4169 0690 6A04     		.2byte	0x46a
 4170 0692 85030000 		.4byte	0x385
 4171 0696 02       		.byte	0x2
 4172 0697 23       		.byte	0x23
 4173 0698 44       		.uleb128 0x44
 4174 0699 17       		.uleb128 0x17
 4175 069a 43030000 		.4byte	.LASF96
ARM GAS  C:\Users\Matuesz\AppData\Local\Temp\ccLA85Wr.s 			page 75


 4176 069e 0C       		.byte	0xc
 4177 069f 6B04     		.2byte	0x46b
 4178 06a1 6D050000 		.4byte	0x56d
 4179 06a5 02       		.byte	0x2
 4180 06a6 23       		.byte	0x23
 4181 06a7 48       		.uleb128 0x48
 4182 06a8 17       		.uleb128 0x17
 4183 06a9 8E020000 		.4byte	.LASF97
 4184 06ad 0C       		.byte	0xc
 4185 06ae 6C04     		.2byte	0x46c
 4186 06b0 85030000 		.4byte	0x385
 4187 06b4 02       		.byte	0x2
 4188 06b5 23       		.byte	0x23
 4189 06b6 50       		.uleb128 0x50
 4190 06b7 17       		.uleb128 0x17
 4191 06b8 77010000 		.4byte	.LASF98
 4192 06bc 0C       		.byte	0xc
 4193 06bd 6D04     		.2byte	0x46d
 4194 06bf 85030000 		.4byte	0x385
 4195 06c3 02       		.byte	0x2
 4196 06c4 23       		.byte	0x23
 4197 06c5 54       		.uleb128 0x54
 4198 06c6 17       		.uleb128 0x17
 4199 06c7 D80A0000 		.4byte	.LASF99
 4200 06cb 0C       		.byte	0xc
 4201 06cc 6E04     		.2byte	0x46e
 4202 06ce 85030000 		.4byte	0x385
 4203 06d2 02       		.byte	0x2
 4204 06d3 23       		.byte	0x23
 4205 06d4 58       		.uleb128 0x58
 4206 06d5 17       		.uleb128 0x17
 4207 06d6 4D030000 		.4byte	.LASF100
 4208 06da 0C       		.byte	0xc
 4209 06db 6F04     		.2byte	0x46f
 4210 06dd B6000000 		.4byte	0xb6
 4211 06e1 02       		.byte	0x2
 4212 06e2 23       		.byte	0x23
 4213 06e3 5C       		.uleb128 0x5c
 4214 06e4 17       		.uleb128 0x17
 4215 06e5 C2080000 		.4byte	.LASF101
 4216 06e9 0C       		.byte	0xc
 4217 06ea 7004     		.2byte	0x470
 4218 06ec 85030000 		.4byte	0x385
 4219 06f0 02       		.byte	0x2
 4220 06f1 23       		.byte	0x23
 4221 06f2 60       		.uleb128 0x60
 4222 06f3 17       		.uleb128 0x17
 4223 06f4 A0070000 		.4byte	.LASF102
 4224 06f8 0C       		.byte	0xc
 4225 06f9 7104     		.2byte	0x471
 4226 06fb 85030000 		.4byte	0x385
 4227 06ff 02       		.byte	0x2
 4228 0700 23       		.byte	0x23
 4229 0701 64       		.uleb128 0x64
 4230 0702 17       		.uleb128 0x17
 4231 0703 D2030000 		.4byte	.LASF103
 4232 0707 0C       		.byte	0xc
ARM GAS  C:\Users\Matuesz\AppData\Local\Temp\ccLA85Wr.s 			page 76


 4233 0708 7204     		.2byte	0x472
 4234 070a 6D050000 		.4byte	0x56d
 4235 070e 02       		.byte	0x2
 4236 070f 23       		.byte	0x23
 4237 0710 68       		.uleb128 0x68
 4238 0711 17       		.uleb128 0x17
 4239 0712 FE040000 		.4byte	.LASF104
 4240 0716 0C       		.byte	0xc
 4241 0717 7304     		.2byte	0x473
 4242 0719 85030000 		.4byte	0x385
 4243 071d 02       		.byte	0x2
 4244 071e 23       		.byte	0x23
 4245 071f 70       		.uleb128 0x70
 4246 0720 0D       		.uleb128 0xd
 4247 0721 43535200 		.ascii	"CSR\000"
 4248 0725 0C       		.byte	0xc
 4249 0726 7404     		.2byte	0x474
 4250 0728 85030000 		.4byte	0x385
 4251 072c 02       		.byte	0x2
 4252 072d 23       		.byte	0x23
 4253 072e 74       		.uleb128 0x74
 4254 072f 17       		.uleb128 0x17
 4255 0730 5E030000 		.4byte	.LASF105
 4256 0734 0C       		.byte	0xc
 4257 0735 7504     		.2byte	0x475
 4258 0737 6D050000 		.4byte	0x56d
 4259 073b 02       		.byte	0x2
 4260 073c 23       		.byte	0x23
 4261 073d 78       		.uleb128 0x78
 4262 073e 17       		.uleb128 0x17
 4263 073f 49070000 		.4byte	.LASF106
 4264 0743 0C       		.byte	0xc
 4265 0744 7604     		.2byte	0x476
 4266 0746 85030000 		.4byte	0x385
 4267 074a 03       		.byte	0x3
 4268 074b 23       		.byte	0x23
 4269 074c 8001     		.uleb128 0x80
 4270 074e 17       		.uleb128 0x17
 4271 074f 2C000000 		.4byte	.LASF107
 4272 0753 0C       		.byte	0xc
 4273 0754 7704     		.2byte	0x477
 4274 0756 85030000 		.4byte	0x385
 4275 075a 03       		.byte	0x3
 4276 075b 23       		.byte	0x23
 4277 075c 8401     		.uleb128 0x84
 4278 075e 17       		.uleb128 0x17
 4279 075f D10D0000 		.4byte	.LASF108
 4280 0763 0C       		.byte	0xc
 4281 0764 7804     		.2byte	0x478
 4282 0766 85030000 		.4byte	0x385
 4283 076a 03       		.byte	0x3
 4284 076b 23       		.byte	0x23
 4285 076c 8801     		.uleb128 0x88
 4286 076e 17       		.uleb128 0x17
 4287 076f A0020000 		.4byte	.LASF109
 4288 0773 0C       		.byte	0xc
 4289 0774 7904     		.2byte	0x479
ARM GAS  C:\Users\Matuesz\AppData\Local\Temp\ccLA85Wr.s 			page 77


 4290 0776 85030000 		.4byte	0x385
 4291 077a 03       		.byte	0x3
 4292 077b 23       		.byte	0x23
 4293 077c 8C01     		.uleb128 0x8c
 4294 077e 00       		.byte	0
 4295 077f 18       		.uleb128 0x18
 4296 0780 D80B0000 		.4byte	.LASF110
 4297 0784 0C       		.byte	0xc
 4298 0785 7B04     		.2byte	0x47b
 4299 0787 92050000 		.4byte	0x592
 4300 078b 18       		.uleb128 0x18
 4301 078c A30B0000 		.4byte	.LASF111
 4302 0790 0D       		.byte	0xd
 4303 0791 C006     		.2byte	0x6c0
 4304 0793 B6000000 		.4byte	0xb6
 4305 0797 05       		.uleb128 0x5
 4306 0798 04       		.byte	0x4
 4307 0799 85030000 		.4byte	0x385
 4308 079d 07       		.uleb128 0x7
 4309 079e B8080000 		.4byte	.LASF112
 4310 07a2 0E       		.byte	0xe
 4311 07a3 E9       		.byte	0xe9
 4312 07a4 A8070000 		.4byte	0x7a8
 4313 07a8 19       		.uleb128 0x19
 4314 07a9 B8080000 		.4byte	.LASF112
 4315 07ad D001     		.2byte	0x1d0
 4316 07af 0F       		.byte	0xf
 4317 07b0 6E01     		.2byte	0x16e
 4318 07b2 02090000 		.4byte	0x902
 4319 07b6 17       		.uleb128 0x17
 4320 07b7 0F010000 		.4byte	.LASF113
 4321 07bb 0F       		.byte	0xf
 4322 07bc 7201     		.2byte	0x172
 4323 07be 34090000 		.4byte	0x934
 4324 07c2 02       		.byte	0x2
 4325 07c3 23       		.byte	0x23
 4326 07c4 00       		.uleb128 0
 4327 07c5 17       		.uleb128 0x17
 4328 07c6 08010000 		.4byte	.LASF114
 4329 07ca 0F       		.byte	0xf
 4330 07cb 7601     		.2byte	0x176
 4331 07cd 50130000 		.4byte	0x1350
 4332 07d1 02       		.byte	0x2
 4333 07d2 23       		.byte	0x23
 4334 07d3 04       		.uleb128 0x4
 4335 07d4 17       		.uleb128 0x17
 4336 07d5 C5040000 		.4byte	.LASF115
 4337 07d9 0F       		.byte	0xf
 4338 07da 7A01     		.2byte	0x17a
 4339 07dc A0000000 		.4byte	0xa0
 4340 07e0 02       		.byte	0x2
 4341 07e1 23       		.byte	0x23
 4342 07e2 08       		.uleb128 0x8
 4343 07e3 17       		.uleb128 0x17
 4344 07e4 21040000 		.4byte	.LASF116
 4345 07e8 0F       		.byte	0xf
 4346 07e9 7E01     		.2byte	0x17e
ARM GAS  C:\Users\Matuesz\AppData\Local\Temp\ccLA85Wr.s 			page 78


 4347 07eb A0000000 		.4byte	0xa0
 4348 07ef 02       		.byte	0x2
 4349 07f0 23       		.byte	0x23
 4350 07f1 0A       		.uleb128 0xa
 4351 07f2 0D       		.uleb128 0xd
 4352 07f3 65706300 		.ascii	"epc\000"
 4353 07f7 0F       		.byte	0xf
 4354 07f8 8201     		.2byte	0x182
 4355 07fa 5B130000 		.4byte	0x135b
 4356 07fe 02       		.byte	0x2
 4357 07ff 23       		.byte	0x23
 4358 0800 0C       		.uleb128 0xc
 4359 0801 17       		.uleb128 0x17
 4360 0802 990B0000 		.4byte	.LASF117
 4361 0806 0F       		.byte	0xf
 4362 0807 8901     		.2byte	0x189
 4363 0809 76130000 		.4byte	0x1376
 4364 080d 02       		.byte	0x2
 4365 080e 23       		.byte	0x23
 4366 080f 24       		.uleb128 0x24
 4367 0810 17       		.uleb128 0x17
 4368 0811 450E0000 		.4byte	.LASF118
 4369 0815 0F       		.byte	0xf
 4370 0816 9001     		.2byte	0x190
 4371 0818 76130000 		.4byte	0x1376
 4372 081c 02       		.byte	0x2
 4373 081d 23       		.byte	0x23
 4374 081e 38       		.uleb128 0x38
 4375 081f 17       		.uleb128 0x17
 4376 0820 7B030000 		.4byte	.LASF119
 4377 0824 0F       		.byte	0xf
 4378 0825 9401     		.2byte	0x194
 4379 0827 9A090000 		.4byte	0x99a
 4380 082b 02       		.byte	0x2
 4381 082c 23       		.byte	0x23
 4382 082d 4C       		.uleb128 0x4c
 4383 082e 17       		.uleb128 0x17
 4384 082f 4F070000 		.4byte	.LASF120
 4385 0833 0F       		.byte	0xf
 4386 0834 9801     		.2byte	0x198
 4387 0836 46050000 		.4byte	0x546
 4388 083a 02       		.byte	0x2
 4389 083b 23       		.byte	0x23
 4390 083c 50       		.uleb128 0x50
 4391 083d 17       		.uleb128 0x17
 4392 083e 07040000 		.4byte	.LASF121
 4393 0842 0F       		.byte	0xf
 4394 0843 9C01     		.2byte	0x19c
 4395 0845 8A000000 		.4byte	0x8a
 4396 0849 02       		.byte	0x2
 4397 084a 23       		.byte	0x23
 4398 084b 54       		.uleb128 0x54
 4399 084c 17       		.uleb128 0x17
 4400 084d 23060000 		.4byte	.LASF122
 4401 0851 0F       		.byte	0xf
 4402 0852 A001     		.2byte	0x1a0
 4403 0854 140A0000 		.4byte	0xa14
ARM GAS  C:\Users\Matuesz\AppData\Local\Temp\ccLA85Wr.s 			page 79


 4404 0858 02       		.byte	0x2
 4405 0859 23       		.byte	0x23
 4406 085a 58       		.uleb128 0x58
 4407 085b 17       		.uleb128 0x17
 4408 085c 45050000 		.4byte	.LASF123
 4409 0860 0F       		.byte	0xf
 4410 0861 A401     		.2byte	0x1a4
 4411 0863 86130000 		.4byte	0x1386
 4412 0867 02       		.byte	0x2
 4413 0868 23       		.byte	0x23
 4414 0869 5C       		.uleb128 0x5c
 4415 086a 17       		.uleb128 0x17
 4416 086b 14060000 		.4byte	.LASF124
 4417 086f 0F       		.byte	0xf
 4418 0870 A801     		.2byte	0x1a8
 4419 0872 A0000000 		.4byte	0xa0
 4420 0876 02       		.byte	0x2
 4421 0877 23       		.byte	0x23
 4422 0878 64       		.uleb128 0x64
 4423 0879 17       		.uleb128 0x17
 4424 087a 1B060000 		.4byte	.LASF125
 4425 087e 0F       		.byte	0xf
 4426 087f AC01     		.2byte	0x1ac
 4427 0881 95000000 		.4byte	0x95
 4428 0885 02       		.byte	0x2
 4429 0886 23       		.byte	0x23
 4430 0887 66       		.uleb128 0x66
 4431 0888 17       		.uleb128 0x17
 4432 0889 A1050000 		.4byte	.LASF126
 4433 088d 0F       		.byte	0xf
 4434 088e B001     		.2byte	0x1b0
 4435 0890 95000000 		.4byte	0x95
 4436 0894 02       		.byte	0x2
 4437 0895 23       		.byte	0x23
 4438 0896 67       		.uleb128 0x67
 4439 0897 0D       		.uleb128 0xd
 4440 0898 6F746700 		.ascii	"otg\000"
 4441 089c 0F       		.byte	0xf
 4442 089d B801     		.2byte	0x1b8
 4443 089f 96130000 		.4byte	0x1396
 4444 08a3 02       		.byte	0x2
 4445 08a4 23       		.byte	0x23
 4446 08a5 68       		.uleb128 0x68
 4447 08a6 17       		.uleb128 0x17
 4448 08a7 A2090000 		.4byte	.LASF127
 4449 08ab 0F       		.byte	0xf
 4450 08ac BC01     		.2byte	0x1bc
 4451 08ae 9C130000 		.4byte	0x139c
 4452 08b2 02       		.byte	0x2
 4453 08b3 23       		.byte	0x23
 4454 08b4 6C       		.uleb128 0x6c
 4455 08b5 17       		.uleb128 0x17
 4456 08b6 D20E0000 		.4byte	.LASF128
 4457 08ba 0F       		.byte	0xf
 4458 08bb C001     		.2byte	0x1c0
 4459 08bd B6000000 		.4byte	0xb6
 4460 08c1 02       		.byte	0x2
ARM GAS  C:\Users\Matuesz\AppData\Local\Temp\ccLA85Wr.s 			page 80


 4461 08c2 23       		.byte	0x23
 4462 08c3 70       		.uleb128 0x70
 4463 08c4 17       		.uleb128 0x17
 4464 08c5 1E080000 		.4byte	.LASF129
 4465 08c9 0F       		.byte	0xf
 4466 08ca C401     		.2byte	0x1c4
 4467 08cc B6000000 		.4byte	0xb6
 4468 08d0 02       		.byte	0x2
 4469 08d1 23       		.byte	0x23
 4470 08d2 74       		.uleb128 0x74
 4471 08d3 17       		.uleb128 0x17
 4472 08d4 64060000 		.4byte	.LASF130
 4473 08d8 0F       		.byte	0xf
 4474 08d9 C801     		.2byte	0x1c8
 4475 08db 8B020000 		.4byte	0x28b
 4476 08df 02       		.byte	0x2
 4477 08e0 23       		.byte	0x23
 4478 08e1 78       		.uleb128 0x78
 4479 08e2 17       		.uleb128 0x17
 4480 08e3 07020000 		.4byte	.LASF131
 4481 08e7 0F       		.byte	0xf
 4482 08e8 CC01     		.2byte	0x1cc
 4483 08ea 8B020000 		.4byte	0x28b
 4484 08ee 02       		.byte	0x2
 4485 08ef 23       		.byte	0x23
 4486 08f0 7C       		.uleb128 0x7c
 4487 08f1 17       		.uleb128 0x17
 4488 08f2 910B0000 		.4byte	.LASF132
 4489 08f6 0F       		.byte	0xf
 4490 08f7 D001     		.2byte	0x1d0
 4491 08f9 A7130000 		.4byte	0x13a7
 4492 08fd 03       		.byte	0x3
 4493 08fe 23       		.byte	0x23
 4494 08ff 8001     		.uleb128 0x80
 4495 0901 00       		.byte	0
 4496 0902 07       		.uleb128 0x7
 4497 0903 A10D0000 		.4byte	.LASF133
 4498 0907 0E       		.byte	0xe
 4499 0908 EE       		.byte	0xee
 4500 0909 95000000 		.4byte	0x95
 4501 090d 1A       		.uleb128 0x1a
 4502 090e 01       		.byte	0x1
 4503 090f 0E       		.byte	0xe
 4504 0910 F3       		.byte	0xf3
 4505 0911 34090000 		.4byte	0x934
 4506 0915 1B       		.uleb128 0x1b
 4507 0916 0E050000 		.4byte	.LASF134
 4508 091a 00       		.sleb128 0
 4509 091b 1B       		.uleb128 0x1b
 4510 091c D5080000 		.4byte	.LASF135
 4511 0920 01       		.sleb128 1
 4512 0921 1B       		.uleb128 0x1b
 4513 0922 37070000 		.4byte	.LASF136
 4514 0926 02       		.sleb128 2
 4515 0927 1B       		.uleb128 0x1b
 4516 0928 94050000 		.4byte	.LASF137
 4517 092c 03       		.sleb128 3
ARM GAS  C:\Users\Matuesz\AppData\Local\Temp\ccLA85Wr.s 			page 81


 4518 092d 1B       		.uleb128 0x1b
 4519 092e 1D010000 		.4byte	.LASF138
 4520 0932 04       		.sleb128 4
 4521 0933 00       		.byte	0
 4522 0934 07       		.uleb128 0x7
 4523 0935 72060000 		.4byte	.LASF139
 4524 0939 0E       		.byte	0xe
 4525 093a F9       		.byte	0xf9
 4526 093b 0D090000 		.4byte	0x90d
 4527 093f 1A       		.uleb128 0x1a
 4528 0940 01       		.byte	0x1
 4529 0941 0E       		.byte	0xe
 4530 0942 FE       		.byte	0xfe
 4531 0943 5A090000 		.4byte	0x95a
 4532 0947 1B       		.uleb128 0x1b
 4533 0948 500E0000 		.4byte	.LASF140
 4534 094c 00       		.sleb128 0
 4535 094d 1B       		.uleb128 0x1b
 4536 094e B7050000 		.4byte	.LASF141
 4537 0952 01       		.sleb128 1
 4538 0953 1B       		.uleb128 0x1b
 4539 0954 D8020000 		.4byte	.LASF142
 4540 0958 02       		.sleb128 2
 4541 0959 00       		.byte	0
 4542 095a 18       		.uleb128 0x18
 4543 095b 81010000 		.4byte	.LASF143
 4544 095f 0E       		.byte	0xe
 4545 0960 0201     		.2byte	0x102
 4546 0962 3F090000 		.4byte	0x93f
 4547 0966 1C       		.uleb128 0x1c
 4548 0967 01       		.byte	0x1
 4549 0968 0E       		.byte	0xe
 4550 0969 0701     		.2byte	0x107
 4551 096b 9A090000 		.4byte	0x99a
 4552 096f 1B       		.uleb128 0x1b
 4553 0970 5A020000 		.4byte	.LASF144
 4554 0974 00       		.sleb128 0
 4555 0975 1B       		.uleb128 0x1b
 4556 0976 D8000000 		.4byte	.LASF145
 4557 097a 01       		.sleb128 1
 4558 097b 1B       		.uleb128 0x1b
 4559 097c 8E090000 		.4byte	.LASF146
 4560 0980 02       		.sleb128 2
 4561 0981 1B       		.uleb128 0x1b
 4562 0982 9F0E0000 		.4byte	.LASF147
 4563 0986 03       		.sleb128 3
 4564 0987 1B       		.uleb128 0x1b
 4565 0988 F80E0000 		.4byte	.LASF148
 4566 098c 04       		.sleb128 4
 4567 098d 1B       		.uleb128 0x1b
 4568 098e 7C0E0000 		.4byte	.LASF149
 4569 0992 05       		.sleb128 5
 4570 0993 1B       		.uleb128 0x1b
 4571 0994 8B060000 		.4byte	.LASF150
 4572 0998 06       		.sleb128 6
 4573 0999 00       		.byte	0
 4574 099a 18       		.uleb128 0x18
ARM GAS  C:\Users\Matuesz\AppData\Local\Temp\ccLA85Wr.s 			page 82


 4575 099b 5C010000 		.4byte	.LASF151
 4576 099f 0E       		.byte	0xe
 4577 09a0 0F01     		.2byte	0x10f
 4578 09a2 66090000 		.4byte	0x966
 4579 09a6 1C       		.uleb128 0x1c
 4580 09a7 01       		.byte	0x1
 4581 09a8 0E       		.byte	0xe
 4582 09a9 1401     		.2byte	0x114
 4583 09ab D4090000 		.4byte	0x9d4
 4584 09af 1B       		.uleb128 0x1b
 4585 09b0 220C0000 		.4byte	.LASF152
 4586 09b4 00       		.sleb128 0
 4587 09b5 1B       		.uleb128 0x1b
 4588 09b6 98010000 		.4byte	.LASF153
 4589 09ba 01       		.sleb128 1
 4590 09bb 1B       		.uleb128 0x1b
 4591 09bc 3B0B0000 		.4byte	.LASF154
 4592 09c0 02       		.sleb128 2
 4593 09c1 1B       		.uleb128 0x1b
 4594 09c2 BF0D0000 		.4byte	.LASF155
 4595 09c6 03       		.sleb128 3
 4596 09c7 1B       		.uleb128 0x1b
 4597 09c8 F5060000 		.4byte	.LASF156
 4598 09cc 04       		.sleb128 4
 4599 09cd 1B       		.uleb128 0x1b
 4600 09ce C6020000 		.4byte	.LASF157
 4601 09d2 05       		.sleb128 5
 4602 09d3 00       		.byte	0
 4603 09d4 18       		.uleb128 0x18
 4604 09d5 65050000 		.4byte	.LASF158
 4605 09d9 0E       		.byte	0xe
 4606 09da 1B01     		.2byte	0x11b
 4607 09dc A6090000 		.4byte	0x9a6
 4608 09e0 16       		.uleb128 0x16
 4609 09e1 08       		.byte	0x8
 4610 09e2 0E       		.byte	0xe
 4611 09e3 2001     		.2byte	0x120
 4612 09e5 080A0000 		.4byte	0xa08
 4613 09e9 17       		.uleb128 0x17
 4614 09ea 79050000 		.4byte	.LASF159
 4615 09ee 0E       		.byte	0xe
 4616 09ef 2401     		.2byte	0x124
 4617 09f1 8A000000 		.4byte	0x8a
 4618 09f5 02       		.byte	0x2
 4619 09f6 23       		.byte	0x23
 4620 09f7 00       		.uleb128 0
 4621 09f8 17       		.uleb128 0x17
 4622 09f9 57040000 		.4byte	.LASF160
 4623 09fd 0E       		.byte	0xe
 4624 09fe 2801     		.2byte	0x128
 4625 0a00 62050000 		.4byte	0x562
 4626 0a04 02       		.byte	0x2
 4627 0a05 23       		.byte	0x23
 4628 0a06 04       		.uleb128 0x4
 4629 0a07 00       		.byte	0
 4630 0a08 18       		.uleb128 0x18
 4631 0a09 24050000 		.4byte	.LASF161
ARM GAS  C:\Users\Matuesz\AppData\Local\Temp\ccLA85Wr.s 			page 83


 4632 0a0d 0E       		.byte	0xe
 4633 0a0e 2901     		.2byte	0x129
 4634 0a10 E0090000 		.4byte	0x9e0
 4635 0a14 18       		.uleb128 0x18
 4636 0a15 ED0C0000 		.4byte	.LASF162
 4637 0a19 0E       		.byte	0xe
 4638 0a1a 3101     		.2byte	0x131
 4639 0a1c 200A0000 		.4byte	0xa20
 4640 0a20 05       		.uleb128 0x5
 4641 0a21 04       		.byte	0x4
 4642 0a22 260A0000 		.4byte	0xa26
 4643 0a26 13       		.uleb128 0x13
 4644 0a27 01       		.byte	0x1
 4645 0a28 320A0000 		.4byte	0xa32
 4646 0a2c 12       		.uleb128 0x12
 4647 0a2d 320A0000 		.4byte	0xa32
 4648 0a31 00       		.byte	0
 4649 0a32 05       		.uleb128 0x5
 4650 0a33 04       		.byte	0x4
 4651 0a34 9D070000 		.4byte	0x79d
 4652 0a38 18       		.uleb128 0x18
 4653 0a39 69070000 		.4byte	.LASF163
 4654 0a3d 0E       		.byte	0xe
 4655 0a3e 3A01     		.2byte	0x13a
 4656 0a40 440A0000 		.4byte	0xa44
 4657 0a44 05       		.uleb128 0x5
 4658 0a45 04       		.byte	0x4
 4659 0a46 4A0A0000 		.4byte	0xa4a
 4660 0a4a 13       		.uleb128 0x13
 4661 0a4b 01       		.byte	0x1
 4662 0a4c 5B0A0000 		.4byte	0xa5b
 4663 0a50 12       		.uleb128 0x12
 4664 0a51 320A0000 		.4byte	0xa32
 4665 0a55 12       		.uleb128 0x12
 4666 0a56 02090000 		.4byte	0x902
 4667 0a5a 00       		.byte	0
 4668 0a5b 18       		.uleb128 0x18
 4669 0a5c 96040000 		.4byte	.LASF164
 4670 0a60 0E       		.byte	0xe
 4671 0a61 4301     		.2byte	0x143
 4672 0a63 670A0000 		.4byte	0xa67
 4673 0a67 05       		.uleb128 0x5
 4674 0a68 04       		.byte	0x4
 4675 0a69 6D0A0000 		.4byte	0xa6d
 4676 0a6d 13       		.uleb128 0x13
 4677 0a6e 01       		.byte	0x1
 4678 0a6f 7E0A0000 		.4byte	0xa7e
 4679 0a73 12       		.uleb128 0x12
 4680 0a74 320A0000 		.4byte	0xa32
 4681 0a78 12       		.uleb128 0x12
 4682 0a79 D4090000 		.4byte	0x9d4
 4683 0a7d 00       		.byte	0
 4684 0a7e 18       		.uleb128 0x18
 4685 0a7f D50C0000 		.4byte	.LASF165
 4686 0a83 0E       		.byte	0xe
 4687 0a84 4F01     		.2byte	0x14f
 4688 0a86 8A0A0000 		.4byte	0xa8a
ARM GAS  C:\Users\Matuesz\AppData\Local\Temp\ccLA85Wr.s 			page 84


 4689 0a8a 05       		.uleb128 0x5
 4690 0a8b 04       		.byte	0x4
 4691 0a8c 900A0000 		.4byte	0xa90
 4692 0a90 11       		.uleb128 0x11
 4693 0a91 01       		.byte	0x1
 4694 0a92 CC000000 		.4byte	0xcc
 4695 0a96 A00A0000 		.4byte	0xaa0
 4696 0a9a 12       		.uleb128 0x12
 4697 0a9b 320A0000 		.4byte	0xa32
 4698 0a9f 00       		.byte	0
 4699 0aa0 18       		.uleb128 0x18
 4700 0aa1 7E0B0000 		.4byte	.LASF166
 4701 0aa5 0E       		.byte	0xe
 4702 0aa6 5401     		.2byte	0x154
 4703 0aa8 AC0A0000 		.4byte	0xaac
 4704 0aac 05       		.uleb128 0x5
 4705 0aad 04       		.byte	0x4
 4706 0aae B20A0000 		.4byte	0xab2
 4707 0ab2 11       		.uleb128 0x11
 4708 0ab3 01       		.byte	0x1
 4709 0ab4 D10A0000 		.4byte	0xad1
 4710 0ab8 D10A0000 		.4byte	0xad1
 4711 0abc 12       		.uleb128 0x12
 4712 0abd 320A0000 		.4byte	0xa32
 4713 0ac1 12       		.uleb128 0x12
 4714 0ac2 95000000 		.4byte	0x95
 4715 0ac6 12       		.uleb128 0x12
 4716 0ac7 95000000 		.4byte	0x95
 4717 0acb 12       		.uleb128 0x12
 4718 0acc A0000000 		.4byte	0xa0
 4719 0ad0 00       		.byte	0
 4720 0ad1 05       		.uleb128 0x5
 4721 0ad2 04       		.byte	0x4
 4722 0ad3 D70A0000 		.4byte	0xad7
 4723 0ad7 06       		.uleb128 0x6
 4724 0ad8 080A0000 		.4byte	0xa08
 4725 0adc 0B       		.uleb128 0xb
 4726 0add 20       		.byte	0x20
 4727 0ade 10       		.byte	0x10
 4728 0adf 35       		.byte	0x35
 4729 0ae0 550B0000 		.4byte	0xb55
 4730 0ae4 09       		.uleb128 0x9
 4731 0ae5 CB030000 		.4byte	.LASF167
 4732 0ae9 10       		.byte	0x10
 4733 0aea 36       		.byte	0x36
 4734 0aeb 85030000 		.4byte	0x385
 4735 0aef 02       		.byte	0x2
 4736 0af0 23       		.byte	0x23
 4737 0af1 00       		.uleb128 0
 4738 0af2 09       		.uleb128 0x9
 4739 0af3 65000000 		.4byte	.LASF168
 4740 0af7 10       		.byte	0x10
 4741 0af8 38       		.byte	0x38
 4742 0af9 85030000 		.4byte	0x385
 4743 0afd 02       		.byte	0x2
 4744 0afe 23       		.byte	0x23
 4745 0aff 04       		.uleb128 0x4
ARM GAS  C:\Users\Matuesz\AppData\Local\Temp\ccLA85Wr.s 			page 85


 4746 0b00 09       		.uleb128 0x9
 4747 0b01 3B0A0000 		.4byte	.LASF169
 4748 0b05 10       		.byte	0x10
 4749 0b06 39       		.byte	0x39
 4750 0b07 85030000 		.4byte	0x385
 4751 0b0b 02       		.byte	0x2
 4752 0b0c 23       		.byte	0x23
 4753 0b0d 08       		.uleb128 0x8
 4754 0b0e 09       		.uleb128 0x9
 4755 0b0f 650A0000 		.4byte	.LASF170
 4756 0b13 10       		.byte	0x10
 4757 0b14 3A       		.byte	0x3a
 4758 0b15 85030000 		.4byte	0x385
 4759 0b19 02       		.byte	0x2
 4760 0b1a 23       		.byte	0x23
 4761 0b1b 0C       		.uleb128 0xc
 4762 0b1c 09       		.uleb128 0x9
 4763 0b1d D2040000 		.4byte	.LASF171
 4764 0b21 10       		.byte	0x10
 4765 0b22 3C       		.byte	0x3c
 4766 0b23 85030000 		.4byte	0x385
 4767 0b27 02       		.byte	0x2
 4768 0b28 23       		.byte	0x23
 4769 0b29 10       		.uleb128 0x10
 4770 0b2a 09       		.uleb128 0x9
 4771 0b2b 320C0000 		.4byte	.LASF172
 4772 0b2f 10       		.byte	0x10
 4773 0b30 3E       		.byte	0x3e
 4774 0b31 85030000 		.4byte	0x385
 4775 0b35 02       		.byte	0x2
 4776 0b36 23       		.byte	0x23
 4777 0b37 14       		.uleb128 0x14
 4778 0b38 09       		.uleb128 0x9
 4779 0b39 3A0C0000 		.4byte	.LASF173
 4780 0b3d 10       		.byte	0x10
 4781 0b3e 3F       		.byte	0x3f
 4782 0b3f 85030000 		.4byte	0x385
 4783 0b43 02       		.byte	0x2
 4784 0b44 23       		.byte	0x23
 4785 0b45 18       		.uleb128 0x18
 4786 0b46 09       		.uleb128 0x9
 4787 0b47 CD0C0000 		.4byte	.LASF174
 4788 0b4b 10       		.byte	0x10
 4789 0b4c 40       		.byte	0x40
 4790 0b4d 85030000 		.4byte	0x385
 4791 0b51 02       		.byte	0x2
 4792 0b52 23       		.byte	0x23
 4793 0b53 1C       		.uleb128 0x1c
 4794 0b54 00       		.byte	0
 4795 0b55 07       		.uleb128 0x7
 4796 0b56 B0040000 		.4byte	.LASF175
 4797 0b5a 10       		.byte	0x10
 4798 0b5b 41       		.byte	0x41
 4799 0b5c DC0A0000 		.4byte	0xadc
 4800 0b60 0B       		.uleb128 0xb
 4801 0b61 20       		.byte	0x20
 4802 0b62 10       		.byte	0x10
ARM GAS  C:\Users\Matuesz\AppData\Local\Temp\ccLA85Wr.s 			page 86


 4803 0b63 46       		.byte	0x46
 4804 0b64 D90B0000 		.4byte	0xbd9
 4805 0b68 09       		.uleb128 0x9
 4806 0b69 E50C0000 		.4byte	.LASF176
 4807 0b6d 10       		.byte	0x10
 4808 0b6e 47       		.byte	0x47
 4809 0b6f 85030000 		.4byte	0x385
 4810 0b73 02       		.byte	0x2
 4811 0b74 23       		.byte	0x23
 4812 0b75 00       		.uleb128 0
 4813 0b76 09       		.uleb128 0x9
 4814 0b77 5E000000 		.4byte	.LASF177
 4815 0b7b 10       		.byte	0x10
 4816 0b7c 49       		.byte	0x49
 4817 0b7d 85030000 		.4byte	0x385
 4818 0b81 02       		.byte	0x2
 4819 0b82 23       		.byte	0x23
 4820 0b83 04       		.uleb128 0x4
 4821 0b84 09       		.uleb128 0x9
 4822 0b85 320D0000 		.4byte	.LASF178
 4823 0b89 10       		.byte	0x10
 4824 0b8a 4A       		.byte	0x4a
 4825 0b8b 85030000 		.4byte	0x385
 4826 0b8f 02       		.byte	0x2
 4827 0b90 23       		.byte	0x23
 4828 0b91 08       		.uleb128 0x8
 4829 0b92 09       		.uleb128 0x9
 4830 0b93 84000000 		.4byte	.LASF179
 4831 0b97 10       		.byte	0x10
 4832 0b98 4C       		.byte	0x4c
 4833 0b99 85030000 		.4byte	0x385
 4834 0b9d 02       		.byte	0x2
 4835 0b9e 23       		.byte	0x23
 4836 0b9f 0C       		.uleb128 0xc
 4837 0ba0 09       		.uleb128 0x9
 4838 0ba1 84030000 		.4byte	.LASF180
 4839 0ba5 10       		.byte	0x10
 4840 0ba6 4D       		.byte	0x4d
 4841 0ba7 85030000 		.4byte	0x385
 4842 0bab 02       		.byte	0x2
 4843 0bac 23       		.byte	0x23
 4844 0bad 10       		.uleb128 0x10
 4845 0bae 09       		.uleb128 0x9
 4846 0baf 320C0000 		.4byte	.LASF172
 4847 0bb3 10       		.byte	0x10
 4848 0bb4 4F       		.byte	0x4f
 4849 0bb5 85030000 		.4byte	0x385
 4850 0bb9 02       		.byte	0x2
 4851 0bba 23       		.byte	0x23
 4852 0bbb 14       		.uleb128 0x14
 4853 0bbc 09       		.uleb128 0x9
 4854 0bbd 420C0000 		.4byte	.LASF181
 4855 0bc1 10       		.byte	0x10
 4856 0bc2 50       		.byte	0x50
 4857 0bc3 85030000 		.4byte	0x385
 4858 0bc7 02       		.byte	0x2
 4859 0bc8 23       		.byte	0x23
ARM GAS  C:\Users\Matuesz\AppData\Local\Temp\ccLA85Wr.s 			page 87


 4860 0bc9 18       		.uleb128 0x18
 4861 0bca 09       		.uleb128 0x9
 4862 0bcb 5D0C0000 		.4byte	.LASF182
 4863 0bcf 10       		.byte	0x10
 4864 0bd0 52       		.byte	0x52
 4865 0bd1 85030000 		.4byte	0x385
 4866 0bd5 02       		.byte	0x2
 4867 0bd6 23       		.byte	0x23
 4868 0bd7 1C       		.uleb128 0x1c
 4869 0bd8 00       		.byte	0
 4870 0bd9 07       		.uleb128 0x7
 4871 0bda 140B0000 		.4byte	.LASF183
 4872 0bde 10       		.byte	0x10
 4873 0bdf 53       		.byte	0x53
 4874 0be0 600B0000 		.4byte	0xb60
 4875 0be4 0B       		.uleb128 0xb
 4876 0be5 20       		.byte	0x20
 4877 0be6 10       		.byte	0x10
 4878 0be7 58       		.byte	0x58
 4879 0be8 5D0C0000 		.4byte	0xc5d
 4880 0bec 09       		.uleb128 0x9
 4881 0bed 98020000 		.4byte	.LASF184
 4882 0bf1 10       		.byte	0x10
 4883 0bf2 59       		.byte	0x59
 4884 0bf3 85030000 		.4byte	0x385
 4885 0bf7 02       		.byte	0x2
 4886 0bf8 23       		.byte	0x23
 4887 0bf9 00       		.uleb128 0
 4888 0bfa 09       		.uleb128 0x9
 4889 0bfb 5E000000 		.4byte	.LASF177
 4890 0bff 10       		.byte	0x10
 4891 0c00 5B       		.byte	0x5b
 4892 0c01 85030000 		.4byte	0x385
 4893 0c05 02       		.byte	0x2
 4894 0c06 23       		.byte	0x23
 4895 0c07 04       		.uleb128 0x4
 4896 0c08 09       		.uleb128 0x9
 4897 0c09 E9020000 		.4byte	.LASF185
 4898 0c0d 10       		.byte	0x10
 4899 0c0e 5C       		.byte	0x5c
 4900 0c0f 85030000 		.4byte	0x385
 4901 0c13 02       		.byte	0x2
 4902 0c14 23       		.byte	0x23
 4903 0c15 08       		.uleb128 0x8
 4904 0c16 09       		.uleb128 0x9
 4905 0c17 84000000 		.4byte	.LASF179
 4906 0c1b 10       		.byte	0x10
 4907 0c1c 5E       		.byte	0x5e
 4908 0c1d 85030000 		.4byte	0x385
 4909 0c21 02       		.byte	0x2
 4910 0c22 23       		.byte	0x23
 4911 0c23 0C       		.uleb128 0xc
 4912 0c24 09       		.uleb128 0x9
 4913 0c25 E1070000 		.4byte	.LASF186
 4914 0c29 10       		.byte	0x10
 4915 0c2a 5F       		.byte	0x5f
 4916 0c2b 85030000 		.4byte	0x385
ARM GAS  C:\Users\Matuesz\AppData\Local\Temp\ccLA85Wr.s 			page 88


 4917 0c2f 02       		.byte	0x2
 4918 0c30 23       		.byte	0x23
 4919 0c31 10       		.uleb128 0x10
 4920 0c32 09       		.uleb128 0x9
 4921 0c33 320C0000 		.4byte	.LASF172
 4922 0c37 10       		.byte	0x10
 4923 0c38 61       		.byte	0x61
 4924 0c39 85030000 		.4byte	0x385
 4925 0c3d 02       		.byte	0x2
 4926 0c3e 23       		.byte	0x23
 4927 0c3f 14       		.uleb128 0x14
 4928 0c40 09       		.uleb128 0x9
 4929 0c41 3A0C0000 		.4byte	.LASF173
 4930 0c45 10       		.byte	0x10
 4931 0c46 62       		.byte	0x62
 4932 0c47 85030000 		.4byte	0x385
 4933 0c4b 02       		.byte	0x2
 4934 0c4c 23       		.byte	0x23
 4935 0c4d 18       		.uleb128 0x18
 4936 0c4e 09       		.uleb128 0x9
 4937 0c4f 5D0C0000 		.4byte	.LASF182
 4938 0c53 10       		.byte	0x10
 4939 0c54 63       		.byte	0x63
 4940 0c55 85030000 		.4byte	0x385
 4941 0c59 02       		.byte	0x2
 4942 0c5a 23       		.byte	0x23
 4943 0c5b 1C       		.uleb128 0x1c
 4944 0c5c 00       		.byte	0
 4945 0c5d 07       		.uleb128 0x7
 4946 0c5e EF030000 		.4byte	.LASF187
 4947 0c62 10       		.byte	0x10
 4948 0c63 64       		.byte	0x64
 4949 0c64 E40B0000 		.4byte	0xbe4
 4950 0c68 1D       		.uleb128 0x1d
 4951 0c69 00100100 		.4byte	0x11000
 4952 0c6d 10       		.byte	0x10
 4953 0c6e 69       		.byte	0x69
 4954 0c6f B70F0000 		.4byte	0xfb7
 4955 0c73 09       		.uleb128 0x9
 4956 0c74 B3060000 		.4byte	.LASF188
 4957 0c78 10       		.byte	0x10
 4958 0c79 6A       		.byte	0x6a
 4959 0c7a 85030000 		.4byte	0x385
 4960 0c7e 02       		.byte	0x2
 4961 0c7f 23       		.byte	0x23
 4962 0c80 00       		.uleb128 0
 4963 0c81 09       		.uleb128 0x9
 4964 0c82 990A0000 		.4byte	.LASF189
 4965 0c86 10       		.byte	0x10
 4966 0c87 6B       		.byte	0x6b
 4967 0c88 85030000 		.4byte	0x385
 4968 0c8c 02       		.byte	0x2
 4969 0c8d 23       		.byte	0x23
 4970 0c8e 04       		.uleb128 0x4
 4971 0c8f 09       		.uleb128 0x9
 4972 0c90 2C060000 		.4byte	.LASF190
 4973 0c94 10       		.byte	0x10
ARM GAS  C:\Users\Matuesz\AppData\Local\Temp\ccLA85Wr.s 			page 89


 4974 0c95 6C       		.byte	0x6c
 4975 0c96 85030000 		.4byte	0x385
 4976 0c9a 02       		.byte	0x2
 4977 0c9b 23       		.byte	0x23
 4978 0c9c 08       		.uleb128 0x8
 4979 0c9d 09       		.uleb128 0x9
 4980 0c9e F00E0000 		.4byte	.LASF191
 4981 0ca2 10       		.byte	0x10
 4982 0ca3 6D       		.byte	0x6d
 4983 0ca4 85030000 		.4byte	0x385
 4984 0ca8 02       		.byte	0x2
 4985 0ca9 23       		.byte	0x23
 4986 0caa 0C       		.uleb128 0xc
 4987 0cab 09       		.uleb128 0x9
 4988 0cac 5D050000 		.4byte	.LASF192
 4989 0cb0 10       		.byte	0x10
 4990 0cb1 6E       		.byte	0x6e
 4991 0cb2 85030000 		.4byte	0x385
 4992 0cb6 02       		.byte	0x2
 4993 0cb7 23       		.byte	0x23
 4994 0cb8 10       		.uleb128 0x10
 4995 0cb9 09       		.uleb128 0x9
 4996 0cba 020D0000 		.4byte	.LASF193
 4997 0cbe 10       		.byte	0x10
 4998 0cbf 6F       		.byte	0x6f
 4999 0cc0 85030000 		.4byte	0x385
 5000 0cc4 02       		.byte	0x2
 5001 0cc5 23       		.byte	0x23
 5002 0cc6 14       		.uleb128 0x14
 5003 0cc7 09       		.uleb128 0x9
 5004 0cc8 E9080000 		.4byte	.LASF194
 5005 0ccc 10       		.byte	0x10
 5006 0ccd 70       		.byte	0x70
 5007 0cce 85030000 		.4byte	0x385
 5008 0cd2 02       		.byte	0x2
 5009 0cd3 23       		.byte	0x23
 5010 0cd4 18       		.uleb128 0x18
 5011 0cd5 09       		.uleb128 0x9
 5012 0cd6 ED060000 		.4byte	.LASF195
 5013 0cda 10       		.byte	0x10
 5014 0cdb 71       		.byte	0x71
 5015 0cdc 85030000 		.4byte	0x385
 5016 0ce0 02       		.byte	0x2
 5017 0ce1 23       		.byte	0x23
 5018 0ce2 1C       		.uleb128 0x1c
 5019 0ce3 09       		.uleb128 0x9
 5020 0ce4 DC060000 		.4byte	.LASF196
 5021 0ce8 10       		.byte	0x10
 5022 0ce9 73       		.byte	0x73
 5023 0cea 85030000 		.4byte	0x385
 5024 0cee 02       		.byte	0x2
 5025 0cef 23       		.byte	0x23
 5026 0cf0 20       		.uleb128 0x20
 5027 0cf1 09       		.uleb128 0x9
 5028 0cf2 AF050000 		.4byte	.LASF197
 5029 0cf6 10       		.byte	0x10
 5030 0cf7 75       		.byte	0x75
ARM GAS  C:\Users\Matuesz\AppData\Local\Temp\ccLA85Wr.s 			page 90


 5031 0cf8 85030000 		.4byte	0x385
 5032 0cfc 02       		.byte	0x2
 5033 0cfd 23       		.byte	0x23
 5034 0cfe 24       		.uleb128 0x24
 5035 0cff 09       		.uleb128 0x9
 5036 0d00 AA010000 		.4byte	.LASF198
 5037 0d04 10       		.byte	0x10
 5038 0d05 76       		.byte	0x76
 5039 0d06 85030000 		.4byte	0x385
 5040 0d0a 02       		.byte	0x2
 5041 0d0b 23       		.byte	0x23
 5042 0d0c 28       		.uleb128 0x28
 5043 0d0d 09       		.uleb128 0x9
 5044 0d0e 3A0D0000 		.4byte	.LASF199
 5045 0d12 10       		.byte	0x10
 5046 0d13 78       		.byte	0x78
 5047 0d14 85030000 		.4byte	0x385
 5048 0d18 02       		.byte	0x2
 5049 0d19 23       		.byte	0x23
 5050 0d1a 2C       		.uleb128 0x2c
 5051 0d1b 09       		.uleb128 0x9
 5052 0d1c 710D0000 		.4byte	.LASF200
 5053 0d20 10       		.byte	0x10
 5054 0d21 7A       		.byte	0x7a
 5055 0d22 85030000 		.4byte	0x385
 5056 0d26 02       		.byte	0x2
 5057 0d27 23       		.byte	0x23
 5058 0d28 30       		.uleb128 0x30
 5059 0d29 09       		.uleb128 0x9
 5060 0d2a 820D0000 		.4byte	.LASF201
 5061 0d2e 10       		.byte	0x10
 5062 0d2f 7B       		.byte	0x7b
 5063 0d30 85030000 		.4byte	0x385
 5064 0d34 02       		.byte	0x2
 5065 0d35 23       		.byte	0x23
 5066 0d36 34       		.uleb128 0x34
 5067 0d37 09       		.uleb128 0x9
 5068 0d38 75030000 		.4byte	.LASF202
 5069 0d3c 10       		.byte	0x10
 5070 0d3d 7C       		.byte	0x7c
 5071 0d3e 85030000 		.4byte	0x385
 5072 0d42 02       		.byte	0x2
 5073 0d43 23       		.byte	0x23
 5074 0d44 38       		.uleb128 0x38
 5075 0d45 0A       		.uleb128 0xa
 5076 0d46 43494400 		.ascii	"CID\000"
 5077 0d4a 10       		.byte	0x10
 5078 0d4b 7D       		.byte	0x7d
 5079 0d4c 85030000 		.4byte	0x385
 5080 0d50 02       		.byte	0x2
 5081 0d51 23       		.byte	0x23
 5082 0d52 3C       		.uleb128 0x3c
 5083 0d53 09       		.uleb128 0x9
 5084 0d54 740E0000 		.4byte	.LASF203
 5085 0d58 10       		.byte	0x10
 5086 0d59 7E       		.byte	0x7e
 5087 0d5a C70F0000 		.4byte	0xfc7
ARM GAS  C:\Users\Matuesz\AppData\Local\Temp\ccLA85Wr.s 			page 91


 5088 0d5e 02       		.byte	0x2
 5089 0d5f 23       		.byte	0x23
 5090 0d60 40       		.uleb128 0x40
 5091 0d61 09       		.uleb128 0x9
 5092 0d62 070A0000 		.4byte	.LASF204
 5093 0d66 10       		.byte	0x10
 5094 0d67 7F       		.byte	0x7f
 5095 0d68 85030000 		.4byte	0x385
 5096 0d6c 03       		.byte	0x3
 5097 0d6d 23       		.byte	0x23
 5098 0d6e 8002     		.uleb128 0x100
 5099 0d70 09       		.uleb128 0x9
 5100 0d71 FA050000 		.4byte	.LASF205
 5101 0d75 10       		.byte	0x10
 5102 0d76 81       		.byte	0x81
 5103 0d77 CC0F0000 		.4byte	0xfcc
 5104 0d7b 03       		.byte	0x3
 5105 0d7c 23       		.byte	0x23
 5106 0d7d 8402     		.uleb128 0x104
 5107 0d7f 09       		.uleb128 0x9
 5108 0d80 030F0000 		.4byte	.LASF206
 5109 0d84 10       		.byte	0x10
 5110 0d85 83       		.byte	0x83
 5111 0d86 E10F0000 		.4byte	0xfe1
 5112 0d8a 03       		.byte	0x3
 5113 0d8b 23       		.byte	0x23
 5114 0d8c C002     		.uleb128 0x140
 5115 0d8e 09       		.uleb128 0x9
 5116 0d8f C6030000 		.4byte	.LASF207
 5117 0d93 10       		.byte	0x10
 5118 0d94 84       		.byte	0x84
 5119 0d95 85030000 		.4byte	0x385
 5120 0d99 03       		.byte	0x3
 5121 0d9a 23       		.byte	0x23
 5122 0d9b 8008     		.uleb128 0x400
 5123 0d9d 09       		.uleb128 0x9
 5124 0d9e 9A0E0000 		.4byte	.LASF208
 5125 0da2 10       		.byte	0x10
 5126 0da3 85       		.byte	0x85
 5127 0da4 85030000 		.4byte	0x385
 5128 0da8 03       		.byte	0x3
 5129 0da9 23       		.byte	0x23
 5130 0daa 8408     		.uleb128 0x404
 5131 0dac 09       		.uleb128 0x9
 5132 0dad 90040000 		.4byte	.LASF209
 5133 0db1 10       		.byte	0x10
 5134 0db2 86       		.byte	0x86
 5135 0db3 85030000 		.4byte	0x385
 5136 0db7 03       		.byte	0x3
 5137 0db8 23       		.byte	0x23
 5138 0db9 8808     		.uleb128 0x408
 5139 0dbb 09       		.uleb128 0x9
 5140 0dbc 99060000 		.4byte	.LASF210
 5141 0dc0 10       		.byte	0x10
 5142 0dc1 88       		.byte	0x88
 5143 0dc2 85030000 		.4byte	0x385
 5144 0dc6 03       		.byte	0x3
ARM GAS  C:\Users\Matuesz\AppData\Local\Temp\ccLA85Wr.s 			page 92


 5145 0dc7 23       		.byte	0x23
 5146 0dc8 8C08     		.uleb128 0x40c
 5147 0dca 09       		.uleb128 0x9
 5148 0dcb 6C0E0000 		.4byte	.LASF211
 5149 0dcf 10       		.byte	0x10
 5150 0dd0 89       		.byte	0x89
 5151 0dd1 85030000 		.4byte	0x385
 5152 0dd5 03       		.byte	0x3
 5153 0dd6 23       		.byte	0x23
 5154 0dd7 9008     		.uleb128 0x410
 5155 0dd9 09       		.uleb128 0x9
 5156 0dda EA070000 		.4byte	.LASF212
 5157 0dde 10       		.byte	0x10
 5158 0ddf 8B       		.byte	0x8b
 5159 0de0 85030000 		.4byte	0x385
 5160 0de4 03       		.byte	0x3
 5161 0de5 23       		.byte	0x23
 5162 0de6 9408     		.uleb128 0x414
 5163 0de8 09       		.uleb128 0x9
 5164 0de9 CC080000 		.4byte	.LASF213
 5165 0ded 10       		.byte	0x10
 5166 0dee 8D       		.byte	0x8d
 5167 0def 85030000 		.4byte	0x385
 5168 0df3 03       		.byte	0x3
 5169 0df4 23       		.byte	0x23
 5170 0df5 9808     		.uleb128 0x418
 5171 0df7 09       		.uleb128 0x9
 5172 0df8 750B0000 		.4byte	.LASF214
 5173 0dfc 10       		.byte	0x10
 5174 0dfd 8F       		.byte	0x8f
 5175 0dfe F60F0000 		.4byte	0xff6
 5176 0e02 03       		.byte	0x3
 5177 0e03 23       		.byte	0x23
 5178 0e04 9C08     		.uleb128 0x41c
 5179 0e06 09       		.uleb128 0x9
 5180 0e07 15040000 		.4byte	.LASF215
 5181 0e0b 10       		.byte	0x10
 5182 0e0c 90       		.byte	0x90
 5183 0e0d 85030000 		.4byte	0x385
 5184 0e11 03       		.byte	0x3
 5185 0e12 23       		.byte	0x23
 5186 0e13 C008     		.uleb128 0x440
 5187 0e15 09       		.uleb128 0x9
 5188 0e16 9E080000 		.4byte	.LASF216
 5189 0e1a 10       		.byte	0x10
 5190 0e1b 92       		.byte	0x92
 5191 0e1c 0B100000 		.4byte	0x100b
 5192 0e20 03       		.byte	0x3
 5193 0e21 23       		.byte	0x23
 5194 0e22 C408     		.uleb128 0x444
 5195 0e24 0A       		.uleb128 0xa
 5196 0e25 686300   		.ascii	"hc\000"
 5197 0e28 10       		.byte	0x10
 5198 0e29 93       		.byte	0x93
 5199 0e2a 10100000 		.4byte	0x1010
 5200 0e2e 03       		.byte	0x3
 5201 0e2f 23       		.byte	0x23
ARM GAS  C:\Users\Matuesz\AppData\Local\Temp\ccLA85Wr.s 			page 93


 5202 0e30 800A     		.uleb128 0x500
 5203 0e32 09       		.uleb128 0x9
 5204 0e33 F9000000 		.4byte	.LASF217
 5205 0e37 10       		.byte	0x10
 5206 0e38 94       		.byte	0x94
 5207 0e39 30100000 		.4byte	0x1030
 5208 0e3d 03       		.byte	0x3
 5209 0e3e 23       		.byte	0x23
 5210 0e3f 800E     		.uleb128 0x700
 5211 0e41 09       		.uleb128 0x9
 5212 0e42 68030000 		.4byte	.LASF218
 5213 0e46 10       		.byte	0x10
 5214 0e47 95       		.byte	0x95
 5215 0e48 85030000 		.4byte	0x385
 5216 0e4c 03       		.byte	0x3
 5217 0e4d 23       		.byte	0x23
 5218 0e4e 8010     		.uleb128 0x800
 5219 0e50 09       		.uleb128 0x9
 5220 0e51 4E0A0000 		.4byte	.LASF219
 5221 0e55 10       		.byte	0x10
 5222 0e56 96       		.byte	0x96
 5223 0e57 85030000 		.4byte	0x385
 5224 0e5b 03       		.byte	0x3
 5225 0e5c 23       		.byte	0x23
 5226 0e5d 8410     		.uleb128 0x804
 5227 0e5f 09       		.uleb128 0x9
 5228 0e60 0D0E0000 		.4byte	.LASF220
 5229 0e64 10       		.byte	0x10
 5230 0e65 97       		.byte	0x97
 5231 0e66 85030000 		.4byte	0x385
 5232 0e6a 03       		.byte	0x3
 5233 0e6b 23       		.byte	0x23
 5234 0e6c 8810     		.uleb128 0x808
 5235 0e6e 09       		.uleb128 0x9
 5236 0e6f 0C040000 		.4byte	.LASF221
 5237 0e73 10       		.byte	0x10
 5238 0e74 98       		.byte	0x98
 5239 0e75 85030000 		.4byte	0x385
 5240 0e79 03       		.byte	0x3
 5241 0e7a 23       		.byte	0x23
 5242 0e7b 8C10     		.uleb128 0x80c
 5243 0e7d 09       		.uleb128 0x9
 5244 0e7e 650C0000 		.4byte	.LASF222
 5245 0e82 10       		.byte	0x10
 5246 0e83 99       		.byte	0x99
 5247 0e84 85030000 		.4byte	0x385
 5248 0e88 03       		.byte	0x3
 5249 0e89 23       		.byte	0x23
 5250 0e8a 9010     		.uleb128 0x810
 5251 0e8c 09       		.uleb128 0x9
 5252 0e8d 70020000 		.4byte	.LASF223
 5253 0e91 10       		.byte	0x10
 5254 0e92 9B       		.byte	0x9b
 5255 0e93 85030000 		.4byte	0x385
 5256 0e97 03       		.byte	0x3
 5257 0e98 23       		.byte	0x23
 5258 0e99 9410     		.uleb128 0x814
ARM GAS  C:\Users\Matuesz\AppData\Local\Temp\ccLA85Wr.s 			page 94


 5259 0e9b 09       		.uleb128 0x9
 5260 0e9c 54020000 		.4byte	.LASF224
 5261 0ea0 10       		.byte	0x10
 5262 0ea1 9D       		.byte	0x9d
 5263 0ea2 85030000 		.4byte	0x385
 5264 0ea6 03       		.byte	0x3
 5265 0ea7 23       		.byte	0x23
 5266 0ea8 9810     		.uleb128 0x818
 5267 0eaa 09       		.uleb128 0x9
 5268 0eab B90A0000 		.4byte	.LASF225
 5269 0eaf 10       		.byte	0x10
 5270 0eb0 9F       		.byte	0x9f
 5271 0eb1 85030000 		.4byte	0x385
 5272 0eb5 03       		.byte	0x3
 5273 0eb6 23       		.byte	0x23
 5274 0eb7 9C10     		.uleb128 0x81c
 5275 0eb9 09       		.uleb128 0x9
 5276 0eba EC040000 		.4byte	.LASF226
 5277 0ebe 10       		.byte	0x10
 5278 0ebf A1       		.byte	0xa1
 5279 0ec0 85030000 		.4byte	0x385
 5280 0ec4 03       		.byte	0x3
 5281 0ec5 23       		.byte	0x23
 5282 0ec6 A010     		.uleb128 0x820
 5283 0ec8 09       		.uleb128 0x9
 5284 0ec9 F5040000 		.4byte	.LASF227
 5285 0ecd 10       		.byte	0x10
 5286 0ece A2       		.byte	0xa2
 5287 0ecf 85030000 		.4byte	0x385
 5288 0ed3 03       		.byte	0x3
 5289 0ed4 23       		.byte	0x23
 5290 0ed5 A410     		.uleb128 0x824
 5291 0ed7 09       		.uleb128 0x9
 5292 0ed8 A90D0000 		.4byte	.LASF228
 5293 0edc 10       		.byte	0x10
 5294 0edd A3       		.byte	0xa3
 5295 0ede 85030000 		.4byte	0x385
 5296 0ee2 03       		.byte	0x3
 5297 0ee3 23       		.byte	0x23
 5298 0ee4 A810     		.uleb128 0x828
 5299 0ee6 09       		.uleb128 0x9
 5300 0ee7 03050000 		.4byte	.LASF229
 5301 0eeb 10       		.byte	0x10
 5302 0eec A5       		.byte	0xa5
 5303 0eed 85030000 		.4byte	0x385
 5304 0ef1 03       		.byte	0x3
 5305 0ef2 23       		.byte	0x23
 5306 0ef3 AC10     		.uleb128 0x82c
 5307 0ef5 09       		.uleb128 0x9
 5308 0ef6 57070000 		.4byte	.LASF230
 5309 0efa 10       		.byte	0x10
 5310 0efb A7       		.byte	0xa7
 5311 0efc 85030000 		.4byte	0x385
 5312 0f00 03       		.byte	0x3
 5313 0f01 23       		.byte	0x23
 5314 0f02 B010     		.uleb128 0x830
 5315 0f04 09       		.uleb128 0x9
ARM GAS  C:\Users\Matuesz\AppData\Local\Temp\ccLA85Wr.s 			page 95


 5316 0f05 19050000 		.4byte	.LASF231
 5317 0f09 10       		.byte	0x10
 5318 0f0a A8       		.byte	0xa8
 5319 0f0b 85030000 		.4byte	0x385
 5320 0f0f 03       		.byte	0x3
 5321 0f10 23       		.byte	0x23
 5322 0f11 B410     		.uleb128 0x834
 5323 0f13 09       		.uleb128 0x9
 5324 0f14 70050000 		.4byte	.LASF232
 5325 0f18 10       		.byte	0x10
 5326 0f19 AA       		.byte	0xaa
 5327 0f1a 85030000 		.4byte	0x385
 5328 0f1e 03       		.byte	0x3
 5329 0f1f 23       		.byte	0x23
 5330 0f20 B810     		.uleb128 0x838
 5331 0f22 09       		.uleb128 0x9
 5332 0f23 8F070000 		.4byte	.LASF233
 5333 0f27 10       		.byte	0x10
 5334 0f28 AB       		.byte	0xab
 5335 0f29 85030000 		.4byte	0x385
 5336 0f2d 03       		.byte	0x3
 5337 0f2e 23       		.byte	0x23
 5338 0f2f BC10     		.uleb128 0x83c
 5339 0f31 09       		.uleb128 0x9
 5340 0f32 F1050000 		.4byte	.LASF234
 5341 0f36 10       		.byte	0x10
 5342 0f37 AC       		.byte	0xac
 5343 0f38 45100000 		.4byte	0x1045
 5344 0f3c 03       		.byte	0x3
 5345 0f3d 23       		.byte	0x23
 5346 0f3e C010     		.uleb128 0x840
 5347 0f40 09       		.uleb128 0x9
 5348 0f41 79070000 		.4byte	.LASF235
 5349 0f45 10       		.byte	0x10
 5350 0f46 AD       		.byte	0xad
 5351 0f47 4A100000 		.4byte	0x104a
 5352 0f4b 03       		.byte	0x3
 5353 0f4c 23       		.byte	0x23
 5354 0f4d 8011     		.uleb128 0x880
 5355 0f4f 09       		.uleb128 0x9
 5356 0f50 790D0000 		.4byte	.LASF236
 5357 0f54 10       		.byte	0x10
 5358 0f55 AE       		.byte	0xae
 5359 0f56 4F100000 		.4byte	0x104f
 5360 0f5a 03       		.byte	0x3
 5361 0f5b 23       		.byte	0x23
 5362 0f5c C011     		.uleb128 0x8c0
 5363 0f5e 0A       		.uleb128 0xa
 5364 0f5f 696500   		.ascii	"ie\000"
 5365 0f62 10       		.byte	0x10
 5366 0f63 AF       		.byte	0xaf
 5367 0f64 54100000 		.4byte	0x1054
 5368 0f68 03       		.byte	0x3
 5369 0f69 23       		.byte	0x23
 5370 0f6a 8012     		.uleb128 0x900
 5371 0f6c 0A       		.uleb128 0xa
 5372 0f6d 6F6500   		.ascii	"oe\000"
ARM GAS  C:\Users\Matuesz\AppData\Local\Temp\ccLA85Wr.s 			page 96


 5373 0f70 10       		.byte	0x10
 5374 0f71 B0       		.byte	0xb0
 5375 0f72 64100000 		.4byte	0x1064
 5376 0f76 03       		.byte	0x3
 5377 0f77 23       		.byte	0x23
 5378 0f78 8016     		.uleb128 0xb00
 5379 0f7a 09       		.uleb128 0x9
 5380 0f7b E7090000 		.4byte	.LASF237
 5381 0f7f 10       		.byte	0x10
 5382 0f80 B1       		.byte	0xb1
 5383 0f81 74100000 		.4byte	0x1074
 5384 0f85 03       		.byte	0x3
 5385 0f86 23       		.byte	0x23
 5386 0f87 801A     		.uleb128 0xd00
 5387 0f89 09       		.uleb128 0x9
 5388 0f8a 06070000 		.4byte	.LASF238
 5389 0f8e 10       		.byte	0x10
 5390 0f8f B2       		.byte	0xb2
 5391 0f90 85030000 		.4byte	0x385
 5392 0f94 03       		.byte	0x3
 5393 0f95 23       		.byte	0x23
 5394 0f96 801C     		.uleb128 0xe00
 5395 0f98 09       		.uleb128 0x9
 5396 0f99 680D0000 		.4byte	.LASF239
 5397 0f9d 10       		.byte	0x10
 5398 0f9e B4       		.byte	0xb4
 5399 0f9f 89100000 		.4byte	0x1089
 5400 0fa3 03       		.byte	0x3
 5401 0fa4 23       		.byte	0x23
 5402 0fa5 841C     		.uleb128 0xe04
 5403 0fa7 09       		.uleb128 0x9
 5404 0fa8 500B0000 		.4byte	.LASF240
 5405 0fac 10       		.byte	0x10
 5406 0fad B5       		.byte	0xb5
 5407 0fae A5100000 		.4byte	0x10a5
 5408 0fb2 03       		.byte	0x3
 5409 0fb3 23       		.byte	0x23
 5410 0fb4 8020     		.uleb128 0x1000
 5411 0fb6 00       		.byte	0
 5412 0fb7 14       		.uleb128 0x14
 5413 0fb8 B6000000 		.4byte	0xb6
 5414 0fbc C70F0000 		.4byte	0xfc7
 5415 0fc0 15       		.uleb128 0x15
 5416 0fc1 68000000 		.4byte	0x68
 5417 0fc5 2F       		.byte	0x2f
 5418 0fc6 00       		.byte	0
 5419 0fc7 0E       		.uleb128 0xe
 5420 0fc8 B70F0000 		.4byte	0xfb7
 5421 0fcc 0E       		.uleb128 0xe
 5422 0fcd 7D050000 		.4byte	0x57d
 5423 0fd1 14       		.uleb128 0x14
 5424 0fd2 B6000000 		.4byte	0xb6
 5425 0fd6 E10F0000 		.4byte	0xfe1
 5426 0fda 15       		.uleb128 0x15
 5427 0fdb 68000000 		.4byte	0x68
 5428 0fdf AF       		.byte	0xaf
 5429 0fe0 00       		.byte	0
ARM GAS  C:\Users\Matuesz\AppData\Local\Temp\ccLA85Wr.s 			page 97


 5430 0fe1 0E       		.uleb128 0xe
 5431 0fe2 D10F0000 		.4byte	0xfd1
 5432 0fe6 14       		.uleb128 0x14
 5433 0fe7 B6000000 		.4byte	0xb6
 5434 0feb F60F0000 		.4byte	0xff6
 5435 0fef 15       		.uleb128 0x15
 5436 0ff0 68000000 		.4byte	0x68
 5437 0ff4 08       		.byte	0x8
 5438 0ff5 00       		.byte	0
 5439 0ff6 0E       		.uleb128 0xe
 5440 0ff7 E60F0000 		.4byte	0xfe6
 5441 0ffb 14       		.uleb128 0x14
 5442 0ffc B6000000 		.4byte	0xb6
 5443 1000 0B100000 		.4byte	0x100b
 5444 1004 15       		.uleb128 0x15
 5445 1005 68000000 		.4byte	0x68
 5446 1009 2E       		.byte	0x2e
 5447 100a 00       		.byte	0
 5448 100b 0E       		.uleb128 0xe
 5449 100c FB0F0000 		.4byte	0xffb
 5450 1010 14       		.uleb128 0x14
 5451 1011 550B0000 		.4byte	0xb55
 5452 1015 20100000 		.4byte	0x1020
 5453 1019 15       		.uleb128 0x15
 5454 101a 68000000 		.4byte	0x68
 5455 101e 0F       		.byte	0xf
 5456 101f 00       		.byte	0
 5457 1020 14       		.uleb128 0x14
 5458 1021 B6000000 		.4byte	0xb6
 5459 1025 30100000 		.4byte	0x1030
 5460 1029 15       		.uleb128 0x15
 5461 102a 68000000 		.4byte	0x68
 5462 102e 3F       		.byte	0x3f
 5463 102f 00       		.byte	0
 5464 1030 0E       		.uleb128 0xe
 5465 1031 20100000 		.4byte	0x1020
 5466 1035 14       		.uleb128 0x14
 5467 1036 B6000000 		.4byte	0xb6
 5468 103a 45100000 		.4byte	0x1045
 5469 103e 15       		.uleb128 0x15
 5470 103f 68000000 		.4byte	0x68
 5471 1043 0F       		.byte	0xf
 5472 1044 00       		.byte	0
 5473 1045 0E       		.uleb128 0xe
 5474 1046 35100000 		.4byte	0x1035
 5475 104a 0E       		.uleb128 0xe
 5476 104b 35100000 		.4byte	0x1035
 5477 104f 0E       		.uleb128 0xe
 5478 1050 35100000 		.4byte	0x1035
 5479 1054 14       		.uleb128 0x14
 5480 1055 D90B0000 		.4byte	0xbd9
 5481 1059 64100000 		.4byte	0x1064
 5482 105d 15       		.uleb128 0x15
 5483 105e 68000000 		.4byte	0x68
 5484 1062 0F       		.byte	0xf
 5485 1063 00       		.byte	0
 5486 1064 14       		.uleb128 0x14
ARM GAS  C:\Users\Matuesz\AppData\Local\Temp\ccLA85Wr.s 			page 98


 5487 1065 5D0C0000 		.4byte	0xc5d
 5488 1069 74100000 		.4byte	0x1074
 5489 106d 15       		.uleb128 0x15
 5490 106e 68000000 		.4byte	0x68
 5491 1072 0F       		.byte	0xf
 5492 1073 00       		.byte	0
 5493 1074 0E       		.uleb128 0xe
 5494 1075 20100000 		.4byte	0x1020
 5495 1079 14       		.uleb128 0x14
 5496 107a B6000000 		.4byte	0xb6
 5497 107e 89100000 		.4byte	0x1089
 5498 1082 15       		.uleb128 0x15
 5499 1083 68000000 		.4byte	0x68
 5500 1087 7E       		.byte	0x7e
 5501 1088 00       		.byte	0
 5502 1089 0E       		.uleb128 0xe
 5503 108a 79100000 		.4byte	0x1079
 5504 108e 14       		.uleb128 0x14
 5505 108f B6000000 		.4byte	0xb6
 5506 1093 A5100000 		.4byte	0x10a5
 5507 1097 15       		.uleb128 0x15
 5508 1098 68000000 		.4byte	0x68
 5509 109c 0F       		.byte	0xf
 5510 109d 1E       		.uleb128 0x1e
 5511 109e 68000000 		.4byte	0x68
 5512 10a2 FF03     		.2byte	0x3ff
 5513 10a4 00       		.byte	0
 5514 10a5 0E       		.uleb128 0xe
 5515 10a6 8E100000 		.4byte	0x108e
 5516 10aa 07       		.uleb128 0x7
 5517 10ab 41080000 		.4byte	.LASF241
 5518 10af 10       		.byte	0x10
 5519 10b0 B6       		.byte	0xb6
 5520 10b1 680C0000 		.4byte	0xc68
 5521 10b5 0B       		.uleb128 0xb
 5522 10b6 0C       		.byte	0xc
 5523 10b7 0F       		.byte	0xf
 5524 10b8 C1       		.byte	0xc1
 5525 10b9 E8100000 		.4byte	0x10e8
 5526 10bd 09       		.uleb128 0x9
 5527 10be F60B0000 		.4byte	.LASF242
 5528 10c2 0F       		.byte	0xf
 5529 10c3 C2       		.byte	0xc2
 5530 10c4 B6000000 		.4byte	0xb6
 5531 10c8 02       		.byte	0x2
 5532 10c9 23       		.byte	0x23
 5533 10ca 00       		.uleb128 0
 5534 10cb 09       		.uleb128 0x9
 5535 10cc 260B0000 		.4byte	.LASF243
 5536 10d0 0F       		.byte	0xf
 5537 10d1 C3       		.byte	0xc3
 5538 10d2 B6000000 		.4byte	0xb6
 5539 10d6 02       		.byte	0x2
 5540 10d7 23       		.byte	0x23
 5541 10d8 04       		.uleb128 0x4
 5542 10d9 09       		.uleb128 0x9
 5543 10da 47060000 		.4byte	.LASF244
ARM GAS  C:\Users\Matuesz\AppData\Local\Temp\ccLA85Wr.s 			page 99


 5544 10de 0F       		.byte	0xf
 5545 10df C4       		.byte	0xc4
 5546 10e0 B6000000 		.4byte	0xb6
 5547 10e4 02       		.byte	0x2
 5548 10e5 23       		.byte	0x23
 5549 10e6 08       		.uleb128 0x8
 5550 10e7 00       		.byte	0
 5551 10e8 07       		.uleb128 0x7
 5552 10e9 32050000 		.4byte	.LASF245
 5553 10ed 0F       		.byte	0xf
 5554 10ee C5       		.byte	0xc5
 5555 10ef B5100000 		.4byte	0x10b5
 5556 10f3 0B       		.uleb128 0xb
 5557 10f4 04       		.byte	0x4
 5558 10f5 0F       		.byte	0xf
 5559 10f6 D8       		.byte	0xd8
 5560 10f7 0A110000 		.4byte	0x110a
 5561 10fb 09       		.uleb128 0x9
 5562 10fc 10020000 		.4byte	.LASF246
 5563 1100 0F       		.byte	0xf
 5564 1101 DC       		.byte	0xdc
 5565 1102 62050000 		.4byte	0x562
 5566 1106 02       		.byte	0x2
 5567 1107 23       		.byte	0x23
 5568 1108 00       		.uleb128 0
 5569 1109 00       		.byte	0
 5570 110a 0B       		.uleb128 0xb
 5571 110b 04       		.byte	0x4
 5572 110c 0F       		.byte	0xf
 5573 110d DE       		.byte	0xde
 5574 110e 21110000 		.4byte	0x1121
 5575 1112 09       		.uleb128 0x9
 5576 1113 4A0C0000 		.4byte	.LASF247
 5577 1117 0F       		.byte	0xf
 5578 1118 E2       		.byte	0xe2
 5579 1119 21110000 		.4byte	0x1121
 5580 111d 02       		.byte	0x2
 5581 111e 23       		.byte	0x23
 5582 111f 00       		.uleb128 0
 5583 1120 00       		.byte	0
 5584 1121 05       		.uleb128 0x5
 5585 1122 04       		.byte	0x4
 5586 1123 57050000 		.4byte	0x557
 5587 1127 0F       		.uleb128 0xf
 5588 1128 04       		.byte	0x4
 5589 1129 0F       		.byte	0xf
 5590 112a D7       		.byte	0xd7
 5591 112b 46110000 		.4byte	0x1146
 5592 112f 10       		.uleb128 0x10
 5593 1130 410A0000 		.4byte	.LASF248
 5594 1134 0F       		.byte	0xf
 5595 1135 DD       		.byte	0xdd
 5596 1136 F3100000 		.4byte	0x10f3
 5597 113a 10       		.uleb128 0x10
 5598 113b AB0A0000 		.4byte	.LASF249
 5599 113f 0F       		.byte	0xf
 5600 1140 E3       		.byte	0xe3
ARM GAS  C:\Users\Matuesz\AppData\Local\Temp\ccLA85Wr.s 			page 100


 5601 1141 0A110000 		.4byte	0x110a
 5602 1145 00       		.byte	0
 5603 1146 0B       		.uleb128 0xb
 5604 1147 14       		.byte	0x14
 5605 1148 0F       		.byte	0xf
 5606 1149 CA       		.byte	0xca
 5607 114a 95110000 		.4byte	0x1195
 5608 114e 09       		.uleb128 0x9
 5609 114f E70E0000 		.4byte	.LASF250
 5610 1153 0F       		.byte	0xf
 5611 1154 CE       		.byte	0xce
 5612 1155 CC000000 		.4byte	0xcc
 5613 1159 02       		.byte	0x2
 5614 115a 23       		.byte	0x23
 5615 115b 00       		.uleb128 0
 5616 115c 09       		.uleb128 0x9
 5617 115d 5D060000 		.4byte	.LASF251
 5618 1161 0F       		.byte	0xf
 5619 1162 D2       		.byte	0xd2
 5620 1163 8A000000 		.4byte	0x8a
 5621 1167 02       		.byte	0x2
 5622 1168 23       		.byte	0x23
 5623 1169 04       		.uleb128 0x4
 5624 116a 09       		.uleb128 0x9
 5625 116b C9050000 		.4byte	.LASF252
 5626 116f 0F       		.byte	0xf
 5627 1170 D6       		.byte	0xd6
 5628 1171 8A000000 		.4byte	0x8a
 5629 1175 02       		.byte	0x2
 5630 1176 23       		.byte	0x23
 5631 1177 08       		.uleb128 0x8
 5632 1178 09       		.uleb128 0x9
 5633 1179 0C0C0000 		.4byte	.LASF253
 5634 117d 0F       		.byte	0xf
 5635 117e E4       		.byte	0xe4
 5636 117f 27110000 		.4byte	0x1127
 5637 1183 02       		.byte	0x2
 5638 1184 23       		.byte	0x23
 5639 1185 0C       		.uleb128 0xc
 5640 1186 09       		.uleb128 0x9
 5641 1187 EE0B0000 		.4byte	.LASF254
 5642 118b 0F       		.byte	0xf
 5643 118c E8       		.byte	0xe8
 5644 118d 8A000000 		.4byte	0x8a
 5645 1191 02       		.byte	0x2
 5646 1192 23       		.byte	0x23
 5647 1193 10       		.uleb128 0x10
 5648 1194 00       		.byte	0
 5649 1195 07       		.uleb128 0x7
 5650 1196 D9040000 		.4byte	.LASF255
 5651 119a 0F       		.byte	0xf
 5652 119b E9       		.byte	0xe9
 5653 119c 46110000 		.4byte	0x1146
 5654 11a0 0B       		.uleb128 0xb
 5655 11a1 04       		.byte	0x4
 5656 11a2 0F       		.byte	0xf
 5657 11a3 FC       		.byte	0xfc
ARM GAS  C:\Users\Matuesz\AppData\Local\Temp\ccLA85Wr.s 			page 101


 5658 11a4 B8110000 		.4byte	0x11b8
 5659 11a8 17       		.uleb128 0x17
 5660 11a9 D6060000 		.4byte	.LASF256
 5661 11ad 0F       		.byte	0xf
 5662 11ae 0001     		.2byte	0x100
 5663 11b0 46050000 		.4byte	0x546
 5664 11b4 02       		.byte	0x2
 5665 11b5 23       		.byte	0x23
 5666 11b6 00       		.uleb128 0
 5667 11b7 00       		.byte	0
 5668 11b8 16       		.uleb128 0x16
 5669 11b9 04       		.byte	0x4
 5670 11ba 0F       		.byte	0xf
 5671 11bb 0201     		.2byte	0x102
 5672 11bd D1110000 		.4byte	0x11d1
 5673 11c1 17       		.uleb128 0x17
 5674 11c2 B10A0000 		.4byte	.LASF257
 5675 11c6 0F       		.byte	0xf
 5676 11c7 0601     		.2byte	0x106
 5677 11c9 D1110000 		.4byte	0x11d1
 5678 11cd 02       		.byte	0x2
 5679 11ce 23       		.byte	0x23
 5680 11cf 00       		.uleb128 0
 5681 11d0 00       		.byte	0
 5682 11d1 05       		.uleb128 0x5
 5683 11d2 04       		.byte	0x4
 5684 11d3 4C050000 		.4byte	0x54c
 5685 11d7 0F       		.uleb128 0xf
 5686 11d8 04       		.byte	0x4
 5687 11d9 0F       		.byte	0xf
 5688 11da FB       		.byte	0xfb
 5689 11db F8110000 		.4byte	0x11f8
 5690 11df 1F       		.uleb128 0x1f
 5691 11e0 410A0000 		.4byte	.LASF248
 5692 11e4 0F       		.byte	0xf
 5693 11e5 0101     		.2byte	0x101
 5694 11e7 A0110000 		.4byte	0x11a0
 5695 11eb 1F       		.uleb128 0x1f
 5696 11ec AB0A0000 		.4byte	.LASF249
 5697 11f0 0F       		.byte	0xf
 5698 11f1 0701     		.2byte	0x107
 5699 11f3 B8110000 		.4byte	0x11b8
 5700 11f7 00       		.byte	0
 5701 11f8 0B       		.uleb128 0xb
 5702 11f9 10       		.byte	0x10
 5703 11fa 0F       		.byte	0xf
 5704 11fb EE       		.byte	0xee
 5705 11fc 3A120000 		.4byte	0x123a
 5706 1200 09       		.uleb128 0x9
 5707 1201 6E0A0000 		.4byte	.LASF258
 5708 1205 0F       		.byte	0xf
 5709 1206 F2       		.byte	0xf2
 5710 1207 CC000000 		.4byte	0xcc
 5711 120b 02       		.byte	0x2
 5712 120c 23       		.byte	0x23
 5713 120d 00       		.uleb128 0
 5714 120e 09       		.uleb128 0x9
ARM GAS  C:\Users\Matuesz\AppData\Local\Temp\ccLA85Wr.s 			page 102


 5715 120f 05030000 		.4byte	.LASF259
 5716 1213 0F       		.byte	0xf
 5717 1214 F6       		.byte	0xf6
 5718 1215 8A000000 		.4byte	0x8a
 5719 1219 02       		.byte	0x2
 5720 121a 23       		.byte	0x23
 5721 121b 04       		.uleb128 0x4
 5722 121c 09       		.uleb128 0x9
 5723 121d 6C060000 		.4byte	.LASF260
 5724 1221 0F       		.byte	0xf
 5725 1222 FA       		.byte	0xfa
 5726 1223 8A000000 		.4byte	0x8a
 5727 1227 02       		.byte	0x2
 5728 1228 23       		.byte	0x23
 5729 1229 08       		.uleb128 0x8
 5730 122a 17       		.uleb128 0x17
 5731 122b 0C0C0000 		.4byte	.LASF253
 5732 122f 0F       		.byte	0xf
 5733 1230 0801     		.2byte	0x108
 5734 1232 D7110000 		.4byte	0x11d7
 5735 1236 02       		.byte	0x2
 5736 1237 23       		.byte	0x23
 5737 1238 0C       		.uleb128 0xc
 5738 1239 00       		.byte	0
 5739 123a 18       		.uleb128 0x18
 5740 123b BD090000 		.4byte	.LASF261
 5741 123f 0F       		.byte	0xf
 5742 1240 0901     		.2byte	0x109
 5743 1242 F8110000 		.4byte	0x11f8
 5744 1246 16       		.uleb128 0x16
 5745 1247 24       		.byte	0x24
 5746 1248 0F       		.byte	0xf
 5747 1249 0F01     		.2byte	0x10f
 5748 124b E6120000 		.4byte	0x12e6
 5749 124f 17       		.uleb128 0x17
 5750 1250 15010000 		.4byte	.LASF262
 5751 1254 0F       		.byte	0xf
 5752 1255 1301     		.2byte	0x113
 5753 1257 B6000000 		.4byte	0xb6
 5754 125b 02       		.byte	0x2
 5755 125c 23       		.byte	0x23
 5756 125d 00       		.uleb128 0
 5757 125e 17       		.uleb128 0x17
 5758 125f 4E040000 		.4byte	.LASF263
 5759 1263 0F       		.byte	0xf
 5760 1264 1E01     		.2byte	0x11e
 5761 1266 380A0000 		.4byte	0xa38
 5762 126a 02       		.byte	0x2
 5763 126b 23       		.byte	0x23
 5764 126c 04       		.uleb128 0x4
 5765 126d 17       		.uleb128 0x17
 5766 126e 73040000 		.4byte	.LASF264
 5767 1272 0F       		.byte	0xf
 5768 1273 2401     		.2byte	0x124
 5769 1275 380A0000 		.4byte	0xa38
 5770 1279 02       		.byte	0x2
 5771 127a 23       		.byte	0x23
ARM GAS  C:\Users\Matuesz\AppData\Local\Temp\ccLA85Wr.s 			page 103


 5772 127b 08       		.uleb128 0x8
 5773 127c 17       		.uleb128 0x17
 5774 127d B1080000 		.4byte	.LASF265
 5775 1281 0F       		.byte	0xf
 5776 1282 2A01     		.2byte	0x12a
 5777 1284 380A0000 		.4byte	0xa38
 5778 1288 02       		.byte	0x2
 5779 1289 23       		.byte	0x23
 5780 128a 0C       		.uleb128 0xc
 5781 128b 17       		.uleb128 0x17
 5782 128c DE080000 		.4byte	.LASF266
 5783 1290 0F       		.byte	0xf
 5784 1291 3001     		.2byte	0x130
 5785 1293 A0000000 		.4byte	0xa0
 5786 1297 02       		.byte	0x2
 5787 1298 23       		.byte	0x23
 5788 1299 10       		.uleb128 0x10
 5789 129a 17       		.uleb128 0x17
 5790 129b F1010000 		.4byte	.LASF267
 5791 129f 0F       		.byte	0xf
 5792 12a0 3601     		.2byte	0x136
 5793 12a2 A0000000 		.4byte	0xa0
 5794 12a6 02       		.byte	0x2
 5795 12a7 23       		.byte	0x23
 5796 12a8 12       		.uleb128 0x12
 5797 12a9 17       		.uleb128 0x17
 5798 12aa E4060000 		.4byte	.LASF268
 5799 12ae 0F       		.byte	0xf
 5800 12af 3B01     		.2byte	0x13b
 5801 12b1 E6120000 		.4byte	0x12e6
 5802 12b5 02       		.byte	0x2
 5803 12b6 23       		.byte	0x23
 5804 12b7 14       		.uleb128 0x14
 5805 12b8 17       		.uleb128 0x17
 5806 12b9 F8080000 		.4byte	.LASF269
 5807 12bd 0F       		.byte	0xf
 5808 12be 4001     		.2byte	0x140
 5809 12c0 EC120000 		.4byte	0x12ec
 5810 12c4 02       		.byte	0x2
 5811 12c5 23       		.byte	0x23
 5812 12c6 18       		.uleb128 0x18
 5813 12c7 17       		.uleb128 0x17
 5814 12c8 34060000 		.4byte	.LASF270
 5815 12cc 0F       		.byte	0xf
 5816 12cd 4701     		.2byte	0x147
 5817 12cf A0000000 		.4byte	0xa0
 5818 12d3 02       		.byte	0x2
 5819 12d4 23       		.byte	0x23
 5820 12d5 1C       		.uleb128 0x1c
 5821 12d6 17       		.uleb128 0x17
 5822 12d7 75080000 		.4byte	.LASF271
 5823 12db 0F       		.byte	0xf
 5824 12dc 4D01     		.2byte	0x14d
 5825 12de 46050000 		.4byte	0x546
 5826 12e2 02       		.byte	0x2
 5827 12e3 23       		.byte	0x23
 5828 12e4 20       		.uleb128 0x20
ARM GAS  C:\Users\Matuesz\AppData\Local\Temp\ccLA85Wr.s 			page 104


 5829 12e5 00       		.byte	0
 5830 12e6 05       		.uleb128 0x5
 5831 12e7 04       		.byte	0x4
 5832 12e8 95110000 		.4byte	0x1195
 5833 12ec 05       		.uleb128 0x5
 5834 12ed 04       		.byte	0x4
 5835 12ee 3A120000 		.4byte	0x123a
 5836 12f2 18       		.uleb128 0x18
 5837 12f3 530A0000 		.4byte	.LASF272
 5838 12f7 0F       		.byte	0xf
 5839 12f8 4E01     		.2byte	0x14e
 5840 12fa 46120000 		.4byte	0x1246
 5841 12fe 16       		.uleb128 0x16
 5842 12ff 10       		.byte	0x10
 5843 1300 0F       		.byte	0xf
 5844 1301 5301     		.2byte	0x153
 5845 1303 44130000 		.4byte	0x1344
 5846 1307 17       		.uleb128 0x17
 5847 1308 1A070000 		.4byte	.LASF273
 5848 130c 0F       		.byte	0xf
 5849 130d 5801     		.2byte	0x158
 5850 130f 5B0A0000 		.4byte	0xa5b
 5851 1313 02       		.byte	0x2
 5852 1314 23       		.byte	0x23
 5853 1315 00       		.uleb128 0
 5854 1316 17       		.uleb128 0x17
 5855 1317 120E0000 		.4byte	.LASF274
 5856 131b 0F       		.byte	0xf
 5857 131c 5D01     		.2byte	0x15d
 5858 131e A00A0000 		.4byte	0xaa0
 5859 1322 02       		.byte	0x2
 5860 1323 23       		.byte	0x23
 5861 1324 04       		.uleb128 0x4
 5862 1325 17       		.uleb128 0x17
 5863 1326 8D030000 		.4byte	.LASF275
 5864 132a 0F       		.byte	0xf
 5865 132b 6301     		.2byte	0x163
 5866 132d 7E0A0000 		.4byte	0xa7e
 5867 1331 02       		.byte	0x2
 5868 1332 23       		.byte	0x23
 5869 1333 08       		.uleb128 0x8
 5870 1334 17       		.uleb128 0x17
 5871 1335 610D0000 		.4byte	.LASF276
 5872 1339 0F       		.byte	0xf
 5873 133a 6701     		.2byte	0x167
 5874 133c 140A0000 		.4byte	0xa14
 5875 1340 02       		.byte	0x2
 5876 1341 23       		.byte	0x23
 5877 1342 0C       		.uleb128 0xc
 5878 1343 00       		.byte	0
 5879 1344 18       		.uleb128 0x18
 5880 1345 0A080000 		.4byte	.LASF277
 5881 1349 0F       		.byte	0xf
 5882 134a 6901     		.2byte	0x169
 5883 134c FE120000 		.4byte	0x12fe
 5884 1350 05       		.uleb128 0x5
 5885 1351 04       		.byte	0x4
ARM GAS  C:\Users\Matuesz\AppData\Local\Temp\ccLA85Wr.s 			page 105


 5886 1352 56130000 		.4byte	0x1356
 5887 1356 06       		.uleb128 0x6
 5888 1357 44130000 		.4byte	0x1344
 5889 135b 14       		.uleb128 0x14
 5890 135c 6B130000 		.4byte	0x136b
 5891 1360 6B130000 		.4byte	0x136b
 5892 1364 15       		.uleb128 0x15
 5893 1365 68000000 		.4byte	0x68
 5894 1369 05       		.byte	0x5
 5895 136a 00       		.byte	0
 5896 136b 05       		.uleb128 0x5
 5897 136c 04       		.byte	0x4
 5898 136d 71130000 		.4byte	0x1371
 5899 1371 06       		.uleb128 0x6
 5900 1372 F2120000 		.4byte	0x12f2
 5901 1376 14       		.uleb128 0x14
 5902 1377 6F000000 		.4byte	0x6f
 5903 137b 86130000 		.4byte	0x1386
 5904 137f 15       		.uleb128 0x15
 5905 1380 68000000 		.4byte	0x68
 5906 1384 04       		.byte	0x4
 5907 1385 00       		.byte	0
 5908 1386 14       		.uleb128 0x14
 5909 1387 95000000 		.4byte	0x95
 5910 138b 96130000 		.4byte	0x1396
 5911 138f 15       		.uleb128 0x15
 5912 1390 68000000 		.4byte	0x68
 5913 1394 07       		.byte	0x7
 5914 1395 00       		.byte	0
 5915 1396 05       		.uleb128 0x5
 5916 1397 04       		.byte	0x4
 5917 1398 AA100000 		.4byte	0x10aa
 5918 139c 05       		.uleb128 0x5
 5919 139d 04       		.byte	0x4
 5920 139e A2130000 		.4byte	0x13a2
 5921 13a2 06       		.uleb128 0x6
 5922 13a3 E8100000 		.4byte	0x10e8
 5923 13a7 14       		.uleb128 0x14
 5924 13a8 C9020000 		.4byte	0x2c9
 5925 13ac B7130000 		.4byte	0x13b7
 5926 13b0 15       		.uleb128 0x15
 5927 13b1 68000000 		.4byte	0x68
 5928 13b5 29       		.byte	0x29
 5929 13b6 00       		.byte	0
 5930 13b7 0F       		.uleb128 0xf
 5931 13b8 14       		.byte	0x14
 5932 13b9 01       		.byte	0x1
 5933 13ba 3F       		.byte	0x3f
 5934 13bb D5130000 		.4byte	0x13d5
 5935 13bf 20       		.uleb128 0x20
 5936 13c0 696E00   		.ascii	"in\000"
 5937 13c3 01       		.byte	0x1
 5938 13c4 43       		.byte	0x43
 5939 13c5 95110000 		.4byte	0x1195
 5940 13c9 20       		.uleb128 0x20
 5941 13ca 6F757400 		.ascii	"out\000"
 5942 13ce 01       		.byte	0x1
ARM GAS  C:\Users\Matuesz\AppData\Local\Temp\ccLA85Wr.s 			page 106


 5943 13cf 47       		.byte	0x47
 5944 13d0 3A120000 		.4byte	0x123a
 5945 13d4 00       		.byte	0
 5946 13d5 21       		.uleb128 0x21
 5947 13d6 0E070000 		.4byte	.LASF279
 5948 13da 01       		.byte	0x1
 5949 13db F6       		.byte	0xf6
 5950 13dc 01       		.byte	0x1
 5951 13dd 46050000 		.4byte	0x546
 5952 13e1 01       		.byte	0x1
 5953 13e2 06140000 		.4byte	0x1406
 5954 13e6 22       		.uleb128 0x22
 5955 13e7 E3000000 		.4byte	.LASF278
 5956 13eb 01       		.byte	0x1
 5957 13ec F6       		.byte	0xf6
 5958 13ed 97070000 		.4byte	0x797
 5959 13f1 23       		.uleb128 0x23
 5960 13f2 62756600 		.ascii	"buf\000"
 5961 13f6 01       		.byte	0x1
 5962 13f7 F6       		.byte	0xf6
 5963 13f8 46050000 		.4byte	0x546
 5964 13fc 23       		.uleb128 0x23
 5965 13fd 6E00     		.ascii	"n\000"
 5966 13ff 01       		.byte	0x1
 5967 1400 F6       		.byte	0xf6
 5968 1401 8A000000 		.4byte	0x8a
 5969 1405 00       		.byte	0
 5970 1406 24       		.uleb128 0x24
 5971 1407 520C0000 		.4byte	.LASF280
 5972 140b 01       		.byte	0x1
 5973 140c 5801     		.2byte	0x158
 5974 140e 01       		.byte	0x1
 5975 140f 46050000 		.4byte	0x546
 5976 1413 01       		.byte	0x1
 5977 1414 47140000 		.4byte	0x1447
 5978 1418 25       		.uleb128 0x25
 5979 1419 E3000000 		.4byte	.LASF278
 5980 141d 01       		.byte	0x1
 5981 141e 5801     		.2byte	0x158
 5982 1420 97070000 		.4byte	0x797
 5983 1424 26       		.uleb128 0x26
 5984 1425 62756600 		.ascii	"buf\000"
 5985 1429 01       		.byte	0x1
 5986 142a 5801     		.2byte	0x158
 5987 142c 46050000 		.4byte	0x546
 5988 1430 26       		.uleb128 0x26
 5989 1431 6E00     		.ascii	"n\000"
 5990 1433 01       		.byte	0x1
 5991 1434 5801     		.2byte	0x158
 5992 1436 8A000000 		.4byte	0x8a
 5993 143a 27       		.uleb128 0x27
 5994 143b 28       		.uleb128 0x28
 5995 143c 7700     		.ascii	"w\000"
 5996 143e 01       		.byte	0x1
 5997 143f 5B01     		.2byte	0x15b
 5998 1441 B6000000 		.4byte	0xb6
 5999 1445 00       		.byte	0
ARM GAS  C:\Users\Matuesz\AppData\Local\Temp\ccLA85Wr.s 			page 107


 6000 1446 00       		.byte	0
 6001 1447 21       		.uleb128 0x21
 6002 1448 C60E0000 		.4byte	.LASF281
 6003 144c 02       		.byte	0x2
 6004 144d 3B       		.byte	0x3b
 6005 144e 01       		.byte	0x1
 6006 144f 8B020000 		.4byte	0x28b
 6007 1453 03       		.byte	0x3
 6008 1454 6E140000 		.4byte	0x146e
 6009 1458 23       		.uleb128 0x23
 6010 1459 74717000 		.ascii	"tqp\000"
 6011 145d 02       		.byte	0x2
 6012 145e 3B       		.byte	0x3b
 6013 145f 6E140000 		.4byte	0x146e
 6014 1463 29       		.uleb128 0x29
 6015 1464 747000   		.ascii	"tp\000"
 6016 1467 02       		.byte	0x2
 6017 1468 3C       		.byte	0x3c
 6018 1469 8B020000 		.4byte	0x28b
 6019 146d 00       		.byte	0
 6020 146e 05       		.uleb128 0x5
 6021 146f 04       		.byte	0x4
 6022 1470 91020000 		.4byte	0x291
 6023 1474 2A       		.uleb128 0x2a
 6024 1475 6C000000 		.4byte	.LASF282
 6025 1479 01       		.byte	0x1
 6026 147a 6F01     		.2byte	0x16f
 6027 147c 01       		.byte	0x1
 6028 147d 01       		.byte	0x1
 6029 147e BD140000 		.4byte	0x14bd
 6030 1482 25       		.uleb128 0x25
 6031 1483 E3000000 		.4byte	.LASF278
 6032 1487 01       		.byte	0x1
 6033 1488 6F01     		.2byte	0x16f
 6034 148a 97070000 		.4byte	0x797
 6035 148e 26       		.uleb128 0x26
 6036 148f 62756600 		.ascii	"buf\000"
 6037 1493 01       		.byte	0x1
 6038 1494 7001     		.2byte	0x170
 6039 1496 46050000 		.4byte	0x546
 6040 149a 26       		.uleb128 0x26
 6041 149b 6E00     		.ascii	"n\000"
 6042 149d 01       		.byte	0x1
 6043 149e 7101     		.2byte	0x171
 6044 14a0 8A000000 		.4byte	0x8a
 6045 14a4 26       		.uleb128 0x26
 6046 14a5 6D617800 		.ascii	"max\000"
 6047 14a9 01       		.byte	0x1
 6048 14aa 7201     		.2byte	0x172
 6049 14ac 8A000000 		.4byte	0x8a
 6050 14b0 27       		.uleb128 0x27
 6051 14b1 28       		.uleb128 0x28
 6052 14b2 7700     		.ascii	"w\000"
 6053 14b4 01       		.byte	0x1
 6054 14b5 7701     		.2byte	0x177
 6055 14b7 B6000000 		.4byte	0xb6
 6056 14bb 00       		.byte	0
ARM GAS  C:\Users\Matuesz\AppData\Local\Temp\ccLA85Wr.s 			page 108


 6057 14bc 00       		.byte	0
 6058 14bd 2A       		.uleb128 0x2a
 6059 14be 16020000 		.4byte	.LASF283
 6060 14c2 01       		.byte	0x1
 6061 14c3 0B01     		.2byte	0x10b
 6062 14c5 01       		.byte	0x1
 6063 14c6 01       		.byte	0x1
 6064 14c7 EE140000 		.4byte	0x14ee
 6065 14cb 25       		.uleb128 0x25
 6066 14cc E3000000 		.4byte	.LASF278
 6067 14d0 01       		.byte	0x1
 6068 14d1 0B01     		.2byte	0x10b
 6069 14d3 97070000 		.4byte	0x797
 6070 14d7 26       		.uleb128 0x26
 6071 14d8 62756600 		.ascii	"buf\000"
 6072 14dc 01       		.byte	0x1
 6073 14dd 0C01     		.2byte	0x10c
 6074 14df 62050000 		.4byte	0x562
 6075 14e3 26       		.uleb128 0x26
 6076 14e4 6E00     		.ascii	"n\000"
 6077 14e6 01       		.byte	0x1
 6078 14e7 0D01     		.2byte	0x10d
 6079 14e9 8A000000 		.4byte	0x8a
 6080 14ed 00       		.byte	0
 6081 14ee 2B       		.uleb128 0x2b
 6082 14ef 8A0D0000 		.4byte	.LASF284
 6083 14f3 01       		.byte	0x1
 6084 14f4 D3       		.byte	0xd3
 6085 14f5 01       		.byte	0x1
 6086 14f6 01       		.byte	0x1
 6087 14f7 07150000 		.4byte	0x1507
 6088 14fb 22       		.uleb128 0x22
 6089 14fc 42060000 		.4byte	.LASF285
 6090 1500 01       		.byte	0x1
 6091 1501 D3       		.byte	0xd3
 6092 1502 320A0000 		.4byte	0xa32
 6093 1506 00       		.byte	0
 6094 1507 21       		.uleb128 0x21
 6095 1508 D90E0000 		.4byte	.LASF286
 6096 150c 01       		.byte	0x1
 6097 150d E0       		.byte	0xe0
 6098 150e 01       		.byte	0x1
 6099 150f B6000000 		.4byte	0xb6
 6100 1513 01       		.byte	0x1
 6101 1514 3A150000 		.4byte	0x153a
 6102 1518 22       		.uleb128 0x22
 6103 1519 42060000 		.4byte	.LASF285
 6104 151d 01       		.byte	0x1
 6105 151e E0       		.byte	0xe0
 6106 151f 320A0000 		.4byte	0xa32
 6107 1523 22       		.uleb128 0x22
 6108 1524 E2090000 		.4byte	.LASF287
 6109 1528 01       		.byte	0x1
 6110 1529 E0       		.byte	0xe0
 6111 152a 8A000000 		.4byte	0x8a
 6112 152e 2C       		.uleb128 0x2c
 6113 152f BA0E0000 		.4byte	.LASF288
ARM GAS  C:\Users\Matuesz\AppData\Local\Temp\ccLA85Wr.s 			page 109


 6114 1533 01       		.byte	0x1
 6115 1534 E1       		.byte	0xe1
 6116 1535 B6000000 		.4byte	0xb6
 6117 1539 00       		.byte	0
 6118 153a 2D       		.uleb128 0x2d
 6119 153b 01       		.byte	0x1
 6120 153c D1090000 		.4byte	.LASF339
 6121 1540 01       		.byte	0x1
 6122 1541 FA04     		.2byte	0x4fa
 6123 1543 01       		.byte	0x1
 6124 1544 01       		.byte	0x1
 6125 1545 61150000 		.4byte	0x1561
 6126 1549 25       		.uleb128 0x25
 6127 154a 42060000 		.4byte	.LASF285
 6128 154e 01       		.byte	0x1
 6129 154f FA04     		.2byte	0x4fa
 6130 1551 320A0000 		.4byte	0xa32
 6131 1555 26       		.uleb128 0x26
 6132 1556 657000   		.ascii	"ep\000"
 6133 1559 01       		.byte	0x1
 6134 155a FA04     		.2byte	0x4fa
 6135 155c 02090000 		.4byte	0x902
 6136 1560 00       		.byte	0
 6137 1561 2E       		.uleb128 0x2e
 6138 1562 0C0F0000 		.4byte	.LASF290
 6139 1566 01       		.byte	0x1
 6140 1567 93       		.byte	0x93
 6141 1568 01       		.byte	0x1
 6142 1569 00000000 		.4byte	.LFB120
 6143 156d 82000000 		.4byte	.LFE120
 6144 1571 00000000 		.4byte	.LLST0
 6145 1575 01       		.byte	0x1
 6146 1576 A4150000 		.4byte	0x15a4
 6147 157a 2F       		.uleb128 0x2f
 6148 157b 42060000 		.4byte	.LASF285
 6149 157f 01       		.byte	0x1
 6150 1580 93       		.byte	0x93
 6151 1581 320A0000 		.4byte	0xa32
 6152 1585 20000000 		.4byte	.LLST1
 6153 1589 30       		.uleb128 0x30
 6154 158a 400E0000 		.4byte	.LASF289
 6155 158e 01       		.byte	0x1
 6156 158f 94       		.byte	0x94
 6157 1590 96130000 		.4byte	0x1396
 6158 1594 01       		.byte	0x1
 6159 1595 53       		.byte	0x53
 6160 1596 31       		.uleb128 0x31
 6161 1597 6900     		.ascii	"i\000"
 6162 1599 01       		.byte	0x1
 6163 159a 95       		.byte	0x95
 6164 159b 29000000 		.4byte	0x29
 6165 159f 41000000 		.4byte	.LLST2
 6166 15a3 00       		.byte	0
 6167 15a4 32       		.uleb128 0x32
 6168 15a5 61040000 		.4byte	.LASF291
 6169 15a9 01       		.byte	0x1
 6170 15aa 5602     		.2byte	0x256
ARM GAS  C:\Users\Matuesz\AppData\Local\Temp\ccLA85Wr.s 			page 110


 6171 15ac 01       		.byte	0x1
 6172 15ad 00000000 		.4byte	.LFB134
 6173 15b1 58000000 		.4byte	.LFE134
 6174 15b5 6B000000 		.4byte	.LLST3
 6175 15b9 01       		.byte	0x1
 6176 15ba 22160000 		.4byte	0x1622
 6177 15be 33       		.uleb128 0x33
 6178 15bf 42060000 		.4byte	.LASF285
 6179 15c3 01       		.byte	0x1
 6180 15c4 5602     		.2byte	0x256
 6181 15c6 320A0000 		.4byte	0xa32
 6182 15ca 8B000000 		.4byte	.LLST4
 6183 15ce 34       		.uleb128 0x34
 6184 15cf 657000   		.ascii	"ep\000"
 6185 15d2 01       		.byte	0x1
 6186 15d3 5602     		.2byte	0x256
 6187 15d5 02090000 		.4byte	0x902
 6188 15d9 BF000000 		.4byte	.LLST5
 6189 15dd 35       		.uleb128 0x35
 6190 15de 400E0000 		.4byte	.LASF289
 6191 15e2 01       		.byte	0x1
 6192 15e3 5702     		.2byte	0x257
 6193 15e5 96130000 		.4byte	0x1396
 6194 15e9 01       		.byte	0x1
 6195 15ea 55       		.byte	0x55
 6196 15eb 35       		.uleb128 0x35
 6197 15ec A3040000 		.4byte	.LASF292
 6198 15f0 01       		.byte	0x1
 6199 15f1 5802     		.2byte	0x258
 6200 15f3 B6000000 		.4byte	0xb6
 6201 15f7 01       		.byte	0x1
 6202 15f8 54       		.byte	0x54
 6203 15f9 36       		.uleb128 0x36
 6204 15fa 4A000000 		.4byte	.LVL11
 6205 15fe 0F160000 		.4byte	0x160f
 6206 1602 37       		.uleb128 0x37
 6207 1603 01       		.byte	0x1
 6208 1604 51       		.byte	0x51
 6209 1605 02       		.byte	0x2
 6210 1606 77       		.byte	0x77
 6211 1607 00       		.sleb128 0
 6212 1608 37       		.uleb128 0x37
 6213 1609 01       		.byte	0x1
 6214 160a 50       		.byte	0x50
 6215 160b 02       		.byte	0x2
 6216 160c 76       		.byte	0x76
 6217 160d 00       		.sleb128 0
 6218 160e 00       		.byte	0
 6219 160f 38       		.uleb128 0x38
 6220 1610 56000000 		.4byte	.LVL13
 6221 1614 37       		.uleb128 0x37
 6222 1615 01       		.byte	0x1
 6223 1616 51       		.byte	0x51
 6224 1617 02       		.byte	0x2
 6225 1618 77       		.byte	0x77
 6226 1619 00       		.sleb128 0
 6227 161a 37       		.uleb128 0x37
ARM GAS  C:\Users\Matuesz\AppData\Local\Temp\ccLA85Wr.s 			page 111


 6228 161b 01       		.byte	0x1
 6229 161c 50       		.byte	0x50
 6230 161d 02       		.byte	0x2
 6231 161e 76       		.byte	0x76
 6232 161f 00       		.sleb128 0
 6233 1620 00       		.byte	0
 6234 1621 00       		.byte	0
 6235 1622 39       		.uleb128 0x39
 6236 1623 C70B0000 		.4byte	.LASF293
 6237 1627 01       		.byte	0x1
 6238 1628 C2       		.byte	0xc2
 6239 1629 01       		.byte	0x1
 6240 162a 00000000 		.4byte	.LFB122
 6241 162e 16000000 		.4byte	.LFE122
 6242 1632 02       		.byte	0x2
 6243 1633 7D       		.byte	0x7d
 6244 1634 00       		.sleb128 0
 6245 1635 01       		.byte	0x1
 6246 1636 78160000 		.4byte	0x1678
 6247 163a 2F       		.uleb128 0x2f
 6248 163b 42060000 		.4byte	.LASF285
 6249 163f 01       		.byte	0x1
 6250 1640 C2       		.byte	0xc2
 6251 1641 320A0000 		.4byte	0xa32
 6252 1645 F9000000 		.4byte	.LLST6
 6253 1649 2F       		.uleb128 0x2f
 6254 164a C4010000 		.4byte	.LASF294
 6255 164e 01       		.byte	0x1
 6256 164f C2       		.byte	0xc2
 6257 1650 B6000000 		.4byte	0xb6
 6258 1654 1A010000 		.4byte	.LLST7
 6259 1658 3A       		.uleb128 0x3a
 6260 1659 400E0000 		.4byte	.LASF289
 6261 165d 01       		.byte	0x1
 6262 165e C3       		.byte	0xc3
 6263 165f 96130000 		.4byte	0x1396
 6264 1663 3B010000 		.4byte	.LLST8
 6265 1667 3B       		.uleb128 0x3b
 6266 1668 16000000 		.4byte	.LVL18
 6267 166c 01       		.byte	0x1
 6268 166d 79280000 		.4byte	0x2879
 6269 1671 37       		.uleb128 0x37
 6270 1672 01       		.byte	0x1
 6271 1673 50       		.byte	0x50
 6272 1674 01       		.byte	0x1
 6273 1675 3C       		.byte	0x3c
 6274 1676 00       		.byte	0
 6275 1677 00       		.byte	0
 6276 1678 2A       		.uleb128 0x2a
 6277 1679 A9030000 		.4byte	.LASF295
 6278 167d 01       		.byte	0x1
 6279 167e C301     		.2byte	0x1c3
 6280 1680 01       		.byte	0x1
 6281 1681 01       		.byte	0x1
 6282 1682 B6160000 		.4byte	0x16b6
 6283 1686 25       		.uleb128 0x25
 6284 1687 42060000 		.4byte	.LASF285
ARM GAS  C:\Users\Matuesz\AppData\Local\Temp\ccLA85Wr.s 			page 112


 6285 168b 01       		.byte	0x1
 6286 168c C301     		.2byte	0x1c3
 6287 168e 320A0000 		.4byte	0xa32
 6288 1692 28       		.uleb128 0x28
 6289 1693 73747300 		.ascii	"sts\000"
 6290 1697 01       		.byte	0x1
 6291 1698 C401     		.2byte	0x1c4
 6292 169a B6000000 		.4byte	0xb6
 6293 169e 28       		.uleb128 0x28
 6294 169f 636E7400 		.ascii	"cnt\000"
 6295 16a3 01       		.byte	0x1
 6296 16a4 C401     		.2byte	0x1c4
 6297 16a6 B6000000 		.4byte	0xb6
 6298 16aa 28       		.uleb128 0x28
 6299 16ab 657000   		.ascii	"ep\000"
 6300 16ae 01       		.byte	0x1
 6301 16af C401     		.2byte	0x1c4
 6302 16b1 B6000000 		.4byte	0xb6
 6303 16b5 00       		.byte	0
 6304 16b6 2A       		.uleb128 0x2a
 6305 16b7 0A0D0000 		.4byte	.LASF296
 6306 16bb 01       		.byte	0x1
 6307 16bc 8C01     		.2byte	0x18c
 6308 16be 01       		.byte	0x1
 6309 16bf 01       		.byte	0x1
 6310 16c0 52170000 		.4byte	0x1752
 6311 16c4 25       		.uleb128 0x25
 6312 16c5 E3000000 		.4byte	.LASF278
 6313 16c9 01       		.byte	0x1
 6314 16ca 8C01     		.2byte	0x18c
 6315 16cc 97070000 		.4byte	0x797
 6316 16d0 26       		.uleb128 0x26
 6317 16d1 69717000 		.ascii	"iqp\000"
 6318 16d5 01       		.byte	0x1
 6319 16d6 8D01     		.2byte	0x18d
 6320 16d8 D1110000 		.4byte	0x11d1
 6321 16dc 26       		.uleb128 0x26
 6322 16dd 6E00     		.ascii	"n\000"
 6323 16df 01       		.byte	0x1
 6324 16e0 8E01     		.2byte	0x18e
 6325 16e2 8A000000 		.4byte	0x8a
 6326 16e6 3C       		.uleb128 0x3c
 6327 16e7 ED0D0000 		.4byte	.LASF297
 6328 16eb 01       		.byte	0x1
 6329 16ec 8F01     		.2byte	0x18f
 6330 16ee 8A000000 		.4byte	0x8a
 6331 16f2 3D       		.uleb128 0x3d
 6332 16f3 31170000 		.4byte	0x1731
 6333 16f7 28       		.uleb128 0x28
 6334 16f8 7700     		.ascii	"w\000"
 6335 16fa 01       		.byte	0x1
 6336 16fb 9301     		.2byte	0x193
 6337 16fd B6000000 		.4byte	0xb6
 6338 1701 28       		.uleb128 0x28
 6339 1702 6900     		.ascii	"i\000"
 6340 1704 01       		.byte	0x1
 6341 1705 9301     		.2byte	0x193
ARM GAS  C:\Users\Matuesz\AppData\Local\Temp\ccLA85Wr.s 			page 113


 6342 1707 B6000000 		.4byte	0xb6
 6343 170b 28       		.uleb128 0x28
 6344 170c 6E7700   		.ascii	"nw\000"
 6345 170f 01       		.byte	0x1
 6346 1710 9401     		.2byte	0x194
 6347 1712 8A000000 		.4byte	0x8a
 6348 1716 27       		.uleb128 0x27
 6349 1717 3C       		.uleb128 0x3c
 6350 1718 A9040000 		.4byte	.LASF298
 6351 171c 01       		.byte	0x1
 6352 171d 9701     		.2byte	0x197
 6353 171f 8A000000 		.4byte	0x8a
 6354 1723 3C       		.uleb128 0x3c
 6355 1724 D2070000 		.4byte	.LASF299
 6356 1728 01       		.byte	0x1
 6357 1729 9801     		.2byte	0x198
 6358 172b B6000000 		.4byte	0xb6
 6359 172f 00       		.byte	0
 6360 1730 00       		.byte	0
 6361 1731 3D       		.uleb128 0x3d
 6362 1732 43170000 		.4byte	0x1743
 6363 1736 28       		.uleb128 0x28
 6364 1737 746D7000 		.ascii	"tmp\000"
 6365 173b 01       		.byte	0x1
 6366 173c B401     		.2byte	0x1b4
 6367 173e B6000000 		.4byte	0xb6
 6368 1742 00       		.byte	0
 6369 1743 27       		.uleb128 0x27
 6370 1744 28       		.uleb128 0x28
 6371 1745 746D7000 		.ascii	"tmp\000"
 6372 1749 01       		.byte	0x1
 6373 174a B901     		.2byte	0x1b9
 6374 174c B6000000 		.4byte	0xb6
 6375 1750 00       		.byte	0
 6376 1751 00       		.byte	0
 6377 1752 24       		.uleb128 0x24
 6378 1753 C3060000 		.4byte	.LASF300
 6379 1757 01       		.byte	0x1
 6380 1758 F201     		.2byte	0x1f2
 6381 175a 01       		.byte	0x1
 6382 175b CC000000 		.4byte	0xcc
 6383 175f 01       		.byte	0x1
 6384 1760 88170000 		.4byte	0x1788
 6385 1764 25       		.uleb128 0x25
 6386 1765 42060000 		.4byte	.LASF285
 6387 1769 01       		.byte	0x1
 6388 176a F201     		.2byte	0x1f2
 6389 176c 320A0000 		.4byte	0xa32
 6390 1770 26       		.uleb128 0x26
 6391 1771 657000   		.ascii	"ep\000"
 6392 1774 01       		.byte	0x1
 6393 1775 F201     		.2byte	0x1f2
 6394 1777 02090000 		.4byte	0x902
 6395 177b 27       		.uleb128 0x27
 6396 177c 28       		.uleb128 0x28
 6397 177d 6E00     		.ascii	"n\000"
 6398 177f 01       		.byte	0x1
ARM GAS  C:\Users\Matuesz\AppData\Local\Temp\ccLA85Wr.s 			page 114


 6399 1780 F601     		.2byte	0x1f6
 6400 1782 B6000000 		.4byte	0xb6
 6401 1786 00       		.byte	0
 6402 1787 00       		.byte	0
 6403 1788 2A       		.uleb128 0x2a
 6404 1789 3A020000 		.4byte	.LASF301
 6405 178d 01       		.byte	0x1
 6406 178e 1B01     		.2byte	0x11b
 6407 1790 01       		.byte	0x1
 6408 1791 01       		.byte	0x1
 6409 1792 24180000 		.4byte	0x1824
 6410 1796 25       		.uleb128 0x25
 6411 1797 E3000000 		.4byte	.LASF278
 6412 179b 01       		.byte	0x1
 6413 179c 1B01     		.2byte	0x11b
 6414 179e 97070000 		.4byte	0x797
 6415 17a2 26       		.uleb128 0x26
 6416 17a3 6F717000 		.ascii	"oqp\000"
 6417 17a7 01       		.byte	0x1
 6418 17a8 1C01     		.2byte	0x11c
 6419 17aa 21110000 		.4byte	0x1121
 6420 17ae 26       		.uleb128 0x26
 6421 17af 6E00     		.ascii	"n\000"
 6422 17b1 01       		.byte	0x1
 6423 17b2 1D01     		.2byte	0x11d
 6424 17b4 8A000000 		.4byte	0x8a
 6425 17b8 3C       		.uleb128 0x3c
 6426 17b9 ED0D0000 		.4byte	.LASF297
 6427 17bd 01       		.byte	0x1
 6428 17be 1E01     		.2byte	0x11e
 6429 17c0 8A000000 		.4byte	0x8a
 6430 17c4 3D       		.uleb128 0x3d
 6431 17c5 03180000 		.4byte	0x1803
 6432 17c9 28       		.uleb128 0x28
 6433 17ca 7700     		.ascii	"w\000"
 6434 17cc 01       		.byte	0x1
 6435 17cd 2201     		.2byte	0x122
 6436 17cf B6000000 		.4byte	0xb6
 6437 17d3 28       		.uleb128 0x28
 6438 17d4 6900     		.ascii	"i\000"
 6439 17d6 01       		.byte	0x1
 6440 17d7 2201     		.2byte	0x122
 6441 17d9 B6000000 		.4byte	0xb6
 6442 17dd 28       		.uleb128 0x28
 6443 17de 6E7700   		.ascii	"nw\000"
 6444 17e1 01       		.byte	0x1
 6445 17e2 2301     		.2byte	0x123
 6446 17e4 8A000000 		.4byte	0x8a
 6447 17e8 27       		.uleb128 0x27
 6448 17e9 3C       		.uleb128 0x3c
 6449 17ea A9040000 		.4byte	.LASF298
 6450 17ee 01       		.byte	0x1
 6451 17ef 2601     		.2byte	0x126
 6452 17f1 8A000000 		.4byte	0x8a
 6453 17f5 3C       		.uleb128 0x3c
 6454 17f6 D2070000 		.4byte	.LASF299
 6455 17fa 01       		.byte	0x1
ARM GAS  C:\Users\Matuesz\AppData\Local\Temp\ccLA85Wr.s 			page 115


 6456 17fb 2701     		.2byte	0x127
 6457 17fd B6000000 		.4byte	0xb6
 6458 1801 00       		.byte	0
 6459 1802 00       		.byte	0
 6460 1803 3D       		.uleb128 0x3d
 6461 1804 15180000 		.4byte	0x1815
 6462 1808 28       		.uleb128 0x28
 6463 1809 746D7000 		.ascii	"tmp\000"
 6464 180d 01       		.byte	0x1
 6465 180e 4401     		.2byte	0x144
 6466 1810 B6000000 		.4byte	0xb6
 6467 1814 00       		.byte	0
 6468 1815 27       		.uleb128 0x27
 6469 1816 28       		.uleb128 0x28
 6470 1817 746D7000 		.ascii	"tmp\000"
 6471 181b 01       		.byte	0x1
 6472 181c 4901     		.2byte	0x149
 6473 181e B6000000 		.4byte	0xb6
 6474 1822 00       		.byte	0
 6475 1823 00       		.byte	0
 6476 1824 3E       		.uleb128 0x3e
 6477 1825 6D090000 		.4byte	.LASF352
 6478 1829 01       		.byte	0x1
 6479 182a B902     		.2byte	0x2b9
 6480 182c 01       		.byte	0x1
 6481 182d 15010000 		.4byte	0x115
 6482 1831 00000000 		.4byte	.LFB136
 6483 1835 96040000 		.4byte	.LFE136
 6484 1839 4E010000 		.4byte	.LLST9
 6485 183d 01       		.byte	0x1
 6486 183e E61C0000 		.4byte	0x1ce6
 6487 1842 34       		.uleb128 0x34
 6488 1843 7000     		.ascii	"p\000"
 6489 1845 01       		.byte	0x1
 6490 1846 B902     		.2byte	0x2b9
 6491 1848 6F000000 		.4byte	0x6f
 6492 184c 7B010000 		.4byte	.LLST10
 6493 1850 3F       		.uleb128 0x3f
 6494 1851 42060000 		.4byte	.LASF285
 6495 1855 01       		.byte	0x1
 6496 1856 BA02     		.2byte	0x2ba
 6497 1858 320A0000 		.4byte	0xa32
 6498 185c 99010000 		.4byte	.LLST11
 6499 1860 35       		.uleb128 0x35
 6500 1861 400E0000 		.4byte	.LASF289
 6501 1865 01       		.byte	0x1
 6502 1866 BB02     		.2byte	0x2bb
 6503 1868 96130000 		.4byte	0x1396
 6504 186c 01       		.byte	0x1
 6505 186d 5A       		.byte	0x5a
 6506 186e 40       		.uleb128 0x40
 6507 186f 00000000 		.4byte	.Ldebug_ranges0+0
 6508 1873 88180000 		.4byte	0x1888
 6509 1877 41       		.uleb128 0x41
 6510 1878 746D7000 		.ascii	"tmp\000"
 6511 187c 01       		.byte	0x1
 6512 187d BE02     		.2byte	0x2be
ARM GAS  C:\Users\Matuesz\AppData\Local\Temp\ccLA85Wr.s 			page 116


 6513 187f B6000000 		.4byte	0xb6
 6514 1883 B7010000 		.4byte	.LLST12
 6515 1887 00       		.byte	0
 6516 1888 42       		.uleb128 0x42
 6517 1889 18000000 		.4byte	.Ldebug_ranges0+0x18
 6518 188d 41       		.uleb128 0x41
 6519 188e 657000   		.ascii	"ep\000"
 6520 1891 01       		.byte	0x1
 6521 1892 C002     		.2byte	0x2c0
 6522 1894 02090000 		.4byte	0x902
 6523 1898 CA010000 		.4byte	.LLST13
 6524 189c 3F       		.uleb128 0x3f
 6525 189d 40040000 		.4byte	.LASF302
 6526 18a1 01       		.byte	0x1
 6527 18a2 C102     		.2byte	0x2c1
 6528 18a4 B6000000 		.4byte	0xb6
 6529 18a8 F4010000 		.4byte	.LLST14
 6530 18ac 40       		.uleb128 0x40
 6531 18ad 30000000 		.4byte	.Ldebug_ranges0+0x30
 6532 18b1 C6180000 		.4byte	0x18c6
 6533 18b5 41       		.uleb128 0x41
 6534 18b6 746D7000 		.ascii	"tmp\000"
 6535 18ba 01       		.byte	0x1
 6536 18bb CA02     		.2byte	0x2ca
 6537 18bd B6000000 		.4byte	0xb6
 6538 18c1 2A020000 		.4byte	.LLST15
 6539 18c5 00       		.byte	0
 6540 18c6 43       		.uleb128 0x43
 6541 18c7 78160000 		.4byte	0x1678
 6542 18cb 6C000000 		.4byte	.LBB95
 6543 18cf 48000000 		.4byte	.Ldebug_ranges0+0x48
 6544 18d3 01       		.byte	0x1
 6545 18d4 D102     		.2byte	0x2d1
 6546 18d6 861A0000 		.4byte	0x1a86
 6547 18da 44       		.uleb128 0x44
 6548 18db 86160000 		.4byte	0x1686
 6549 18df 53020000 		.4byte	.LLST16
 6550 18e3 42       		.uleb128 0x42
 6551 18e4 60000000 		.4byte	.Ldebug_ranges0+0x60
 6552 18e8 45       		.uleb128 0x45
 6553 18e9 92160000 		.4byte	0x1692
 6554 18ed 71020000 		.4byte	.LLST17
 6555 18f1 45       		.uleb128 0x45
 6556 18f2 9E160000 		.4byte	0x169e
 6557 18f6 8F020000 		.4byte	.LLST18
 6558 18fa 45       		.uleb128 0x45
 6559 18fb AA160000 		.4byte	0x16aa
 6560 18ff C0020000 		.4byte	.LLST19
 6561 1903 43       		.uleb128 0x43
 6562 1904 74140000 		.4byte	0x1474
 6563 1908 90000000 		.4byte	.LBB97
 6564 190c 78000000 		.4byte	.Ldebug_ranges0+0x78
 6565 1910 01       		.byte	0x1
 6566 1911 CD01     		.2byte	0x1cd
 6567 1913 4B190000 		.4byte	0x194b
 6568 1917 44       		.uleb128 0x44
 6569 1918 A4140000 		.4byte	0x14a4
ARM GAS  C:\Users\Matuesz\AppData\Local\Temp\ccLA85Wr.s 			page 117


 6570 191c FC020000 		.4byte	.LLST20
 6571 1920 44       		.uleb128 0x44
 6572 1921 9A140000 		.4byte	0x149a
 6573 1925 32030000 		.4byte	.LLST21
 6574 1929 44       		.uleb128 0x44
 6575 192a 8E140000 		.4byte	0x148e
 6576 192e 5F030000 		.4byte	.LLST22
 6577 1932 44       		.uleb128 0x44
 6578 1933 82140000 		.4byte	0x1482
 6579 1937 72030000 		.4byte	.LLST23
 6580 193b 42       		.uleb128 0x42
 6581 193c 90000000 		.4byte	.Ldebug_ranges0+0x90
 6582 1940 45       		.uleb128 0x45
 6583 1941 B1140000 		.4byte	0x14b1
 6584 1945 A5030000 		.4byte	.LLST24
 6585 1949 00       		.byte	0
 6586 194a 00       		.byte	0
 6587 194b 46       		.uleb128 0x46
 6588 194c 74140000 		.4byte	0x1474
 6589 1950 2A010000 		.4byte	.LBB106
 6590 1954 88010000 		.4byte	.LBE106
 6591 1958 01       		.byte	0x1
 6592 1959 DA01     		.2byte	0x1da
 6593 195b 93190000 		.4byte	0x1993
 6594 195f 44       		.uleb128 0x44
 6595 1960 A4140000 		.4byte	0x14a4
 6596 1964 C4030000 		.4byte	.LLST25
 6597 1968 44       		.uleb128 0x44
 6598 1969 9A140000 		.4byte	0x149a
 6599 196d 12040000 		.4byte	.LLST26
 6600 1971 44       		.uleb128 0x44
 6601 1972 8E140000 		.4byte	0x148e
 6602 1976 4E040000 		.4byte	.LLST27
 6603 197a 44       		.uleb128 0x44
 6604 197b 82140000 		.4byte	0x1482
 6605 197f 6C040000 		.4byte	.LLST28
 6606 1983 42       		.uleb128 0x42
 6607 1984 C0000000 		.4byte	.Ldebug_ranges0+0xc0
 6608 1988 45       		.uleb128 0x45
 6609 1989 B1140000 		.4byte	0x14b1
 6610 198d 9F040000 		.4byte	.LLST29
 6611 1991 00       		.byte	0
 6612 1992 00       		.byte	0
 6613 1993 47       		.uleb128 0x47
 6614 1994 B6160000 		.4byte	0x16b6
 6615 1998 A2010000 		.4byte	.LBB111
 6616 199c 60020000 		.4byte	.LBE111
 6617 19a0 01       		.byte	0x1
 6618 19a1 D501     		.2byte	0x1d5
 6619 19a3 44       		.uleb128 0x44
 6620 19a4 DC160000 		.4byte	0x16dc
 6621 19a8 B2040000 		.4byte	.LLST30
 6622 19ac 44       		.uleb128 0x44
 6623 19ad D0160000 		.4byte	0x16d0
 6624 19b1 C5040000 		.4byte	.LLST31
 6625 19b5 44       		.uleb128 0x44
 6626 19b6 C4160000 		.4byte	0x16c4
ARM GAS  C:\Users\Matuesz\AppData\Local\Temp\ccLA85Wr.s 			page 118


 6627 19ba D8040000 		.4byte	.LLST32
 6628 19be 48       		.uleb128 0x48
 6629 19bf A2010000 		.4byte	.LBB112
 6630 19c3 60020000 		.4byte	.LBE112
 6631 19c7 45       		.uleb128 0x45
 6632 19c8 E6160000 		.4byte	0x16e6
 6633 19cc FD040000 		.4byte	.LLST33
 6634 19d0 49       		.uleb128 0x49
 6635 19d1 AA010000 		.4byte	.LBB113
 6636 19d5 28020000 		.4byte	.LBE113
 6637 19d9 111A0000 		.4byte	0x1a11
 6638 19dd 45       		.uleb128 0x45
 6639 19de F7160000 		.4byte	0x16f7
 6640 19e2 5A050000 		.4byte	.LLST34
 6641 19e6 45       		.uleb128 0x45
 6642 19e7 01170000 		.4byte	0x1701
 6643 19eb 6D050000 		.4byte	.LLST35
 6644 19ef 45       		.uleb128 0x45
 6645 19f0 0B170000 		.4byte	0x170b
 6646 19f4 A5050000 		.4byte	.LLST36
 6647 19f8 42       		.uleb128 0x42
 6648 19f9 E0000000 		.4byte	.Ldebug_ranges0+0xe0
 6649 19fd 45       		.uleb128 0x45
 6650 19fe 17170000 		.4byte	0x1717
 6651 1a02 CB050000 		.4byte	.LLST37
 6652 1a06 45       		.uleb128 0x45
 6653 1a07 23170000 		.4byte	0x1723
 6654 1a0b CB050000 		.4byte	.LLST37
 6655 1a0f 00       		.byte	0
 6656 1a10 00       		.byte	0
 6657 1a11 49       		.uleb128 0x49
 6658 1a12 28020000 		.4byte	.LBB117
 6659 1a16 2E020000 		.4byte	.LBE117
 6660 1a1a 281A0000 		.4byte	0x1a28
 6661 1a1e 45       		.uleb128 0x45
 6662 1a1f 36170000 		.4byte	0x1736
 6663 1a23 DF050000 		.4byte	.LLST39
 6664 1a27 00       		.byte	0
 6665 1a28 46       		.uleb128 0x46
 6666 1a29 47140000 		.4byte	0x1447
 6667 1a2d 3A020000 		.4byte	.LBB118
 6668 1a31 40020000 		.4byte	.LBE118
 6669 1a35 01       		.byte	0x1
 6670 1a36 B701     		.2byte	0x1b7
 6671 1a38 591A0000 		.4byte	0x1a59
 6672 1a3c 44       		.uleb128 0x44
 6673 1a3d 58140000 		.4byte	0x1458
 6674 1a41 FD050000 		.4byte	.LLST40
 6675 1a45 48       		.uleb128 0x48
 6676 1a46 3A020000 		.4byte	.LBB119
 6677 1a4a 40020000 		.4byte	.LBE119
 6678 1a4e 45       		.uleb128 0x45
 6679 1a4f 63140000 		.4byte	0x1463
 6680 1a53 10060000 		.4byte	.LLST41
 6681 1a57 00       		.byte	0
 6682 1a58 00       		.byte	0
 6683 1a59 49       		.uleb128 0x49
ARM GAS  C:\Users\Matuesz\AppData\Local\Temp\ccLA85Wr.s 			page 119


 6684 1a5a 52020000 		.4byte	.LBB120
 6685 1a5e 60020000 		.4byte	.LBE120
 6686 1a62 701A0000 		.4byte	0x1a70
 6687 1a66 45       		.uleb128 0x45
 6688 1a67 44170000 		.4byte	0x1744
 6689 1a6b 23060000 		.4byte	.LLST42
 6690 1a6f 00       		.byte	0
 6691 1a70 4A       		.uleb128 0x4a
 6692 1a71 44020000 		.4byte	.LVL102
 6693 1a75 8D280000 		.4byte	0x288d
 6694 1a79 4A       		.uleb128 0x4a
 6695 1a7a 52020000 		.4byte	.LVL104
 6696 1a7e A5280000 		.4byte	0x28a5
 6697 1a82 00       		.byte	0
 6698 1a83 00       		.byte	0
 6699 1a84 00       		.byte	0
 6700 1a85 00       		.byte	0
 6701 1a86 49       		.uleb128 0x49
 6702 1a87 04010000 		.4byte	.LBB122
 6703 1a8b 0A010000 		.4byte	.LBE122
 6704 1a8f A41A0000 		.4byte	0x1aa4
 6705 1a93 41       		.uleb128 0x41
 6706 1a94 746D7000 		.ascii	"tmp\000"
 6707 1a98 01       		.byte	0x1
 6708 1a99 ED02     		.2byte	0x2ed
 6709 1a9b B6000000 		.4byte	0xb6
 6710 1a9f 62060000 		.4byte	.LLST43
 6711 1aa3 00       		.byte	0
 6712 1aa4 49       		.uleb128 0x49
 6713 1aa5 60020000 		.4byte	.LBB124
 6714 1aa9 96040000 		.4byte	.LBE124
 6715 1aad D51C0000 		.4byte	0x1cd5
 6716 1ab1 35       		.uleb128 0x35
 6717 1ab2 86060000 		.4byte	.LASF303
 6718 1ab6 01       		.byte	0x1
 6719 1ab7 D602     		.2byte	0x2d6
 6720 1ab9 CC000000 		.4byte	0xcc
 6721 1abd 01       		.byte	0x1
 6722 1abe 52       		.byte	0x52
 6723 1abf 49       		.uleb128 0x49
 6724 1ac0 60020000 		.4byte	.LBB125
 6725 1ac4 66020000 		.4byte	.LBE125
 6726 1ac8 DD1A0000 		.4byte	0x1add
 6727 1acc 41       		.uleb128 0x41
 6728 1acd 746D7000 		.ascii	"tmp\000"
 6729 1ad1 01       		.byte	0x1
 6730 1ad2 D802     		.2byte	0x2d8
 6731 1ad4 B6000000 		.4byte	0xb6
 6732 1ad8 80060000 		.4byte	.LLST44
 6733 1adc 00       		.byte	0
 6734 1add 40       		.uleb128 0x40
 6735 1ade 00010000 		.4byte	.Ldebug_ranges0+0x100
 6736 1ae2 F71A0000 		.4byte	0x1af7
 6737 1ae6 41       		.uleb128 0x41
 6738 1ae7 746D7000 		.ascii	"tmp\000"
 6739 1aeb 01       		.byte	0x1
 6740 1aec E202     		.2byte	0x2e2
ARM GAS  C:\Users\Matuesz\AppData\Local\Temp\ccLA85Wr.s 			page 120


 6741 1aee B6000000 		.4byte	0xb6
 6742 1af2 93060000 		.4byte	.LLST45
 6743 1af6 00       		.byte	0
 6744 1af7 43       		.uleb128 0x43
 6745 1af8 52170000 		.4byte	0x1752
 6746 1afc 86020000 		.4byte	.LBB128
 6747 1b00 18010000 		.4byte	.Ldebug_ranges0+0x118
 6748 1b04 01       		.byte	0x1
 6749 1b05 E402     		.2byte	0x2e4
 6750 1b07 9C1C0000 		.4byte	0x1c9c
 6751 1b0b 44       		.uleb128 0x44
 6752 1b0c 70170000 		.4byte	0x1770
 6753 1b10 A6060000 		.4byte	.LLST46
 6754 1b14 4B       		.uleb128 0x4b
 6755 1b15 64170000 		.4byte	0x1764
 6756 1b19 01       		.byte	0x1
 6757 1b1a 5B       		.byte	0x5b
 6758 1b1b 42       		.uleb128 0x42
 6759 1b1c 30010000 		.4byte	.Ldebug_ranges0+0x130
 6760 1b20 45       		.uleb128 0x45
 6761 1b21 7C170000 		.4byte	0x177c
 6762 1b25 F1060000 		.4byte	.LLST47
 6763 1b29 43       		.uleb128 0x43
 6764 1b2a BD140000 		.4byte	0x14bd
 6765 1b2e CC020000 		.4byte	.LBB130
 6766 1b32 48010000 		.4byte	.Ldebug_ranges0+0x148
 6767 1b36 01       		.byte	0x1
 6768 1b37 1202     		.2byte	0x212
 6769 1b39 851B0000 		.4byte	0x1b85
 6770 1b3d 44       		.uleb128 0x44
 6771 1b3e E3140000 		.4byte	0x14e3
 6772 1b42 46070000 		.4byte	.LLST48
 6773 1b46 44       		.uleb128 0x44
 6774 1b47 D7140000 		.4byte	0x14d7
 6775 1b4b 59070000 		.4byte	.LLST49
 6776 1b4f 44       		.uleb128 0x44
 6777 1b50 CB140000 		.4byte	0x14cb
 6778 1b54 6C070000 		.4byte	.LLST50
 6779 1b58 4C       		.uleb128 0x4c
 6780 1b59 D5130000 		.4byte	0x13d5
 6781 1b5d CE020000 		.4byte	.LBB132
 6782 1b61 68010000 		.4byte	.Ldebug_ranges0+0x168
 6783 1b65 01       		.byte	0x1
 6784 1b66 0F01     		.2byte	0x10f
 6785 1b68 44       		.uleb128 0x44
 6786 1b69 FC130000 		.4byte	0x13fc
 6787 1b6d 7F070000 		.4byte	.LLST51
 6788 1b71 44       		.uleb128 0x44
 6789 1b72 F1130000 		.4byte	0x13f1
 6790 1b76 92070000 		.4byte	.LLST52
 6791 1b7a 44       		.uleb128 0x44
 6792 1b7b E6130000 		.4byte	0x13e6
 6793 1b7f 6C070000 		.4byte	.LLST50
 6794 1b83 00       		.byte	0
 6795 1b84 00       		.byte	0
 6796 1b85 4C       		.uleb128 0x4c
 6797 1b86 88170000 		.4byte	0x1788
ARM GAS  C:\Users\Matuesz\AppData\Local\Temp\ccLA85Wr.s 			page 121


 6798 1b8a 4E030000 		.4byte	.LBB142
 6799 1b8e 88010000 		.4byte	.Ldebug_ranges0+0x188
 6800 1b92 01       		.byte	0x1
 6801 1b93 0C02     		.2byte	0x20c
 6802 1b95 44       		.uleb128 0x44
 6803 1b96 AE170000 		.4byte	0x17ae
 6804 1b9a A5070000 		.4byte	.LLST54
 6805 1b9e 44       		.uleb128 0x44
 6806 1b9f A2170000 		.4byte	0x17a2
 6807 1ba3 D9070000 		.4byte	.LLST55
 6808 1ba7 44       		.uleb128 0x44
 6809 1ba8 96170000 		.4byte	0x1796
 6810 1bac EC070000 		.4byte	.LLST56
 6811 1bb0 42       		.uleb128 0x42
 6812 1bb1 A0010000 		.4byte	.Ldebug_ranges0+0x1a0
 6813 1bb5 45       		.uleb128 0x45
 6814 1bb6 B8170000 		.4byte	0x17b8
 6815 1bba 0A080000 		.4byte	.LLST57
 6816 1bbe 40       		.uleb128 0x40
 6817 1bbf B8010000 		.4byte	.Ldebug_ranges0+0x1b8
 6818 1bc3 271C0000 		.4byte	0x1c27
 6819 1bc7 45       		.uleb128 0x45
 6820 1bc8 C9170000 		.4byte	0x17c9
 6821 1bcc 72080000 		.4byte	.LLST58
 6822 1bd0 45       		.uleb128 0x45
 6823 1bd1 D3170000 		.4byte	0x17d3
 6824 1bd5 91080000 		.4byte	.LLST59
 6825 1bd9 45       		.uleb128 0x45
 6826 1bda DD170000 		.4byte	0x17dd
 6827 1bde D5080000 		.4byte	.LLST60
 6828 1be2 48       		.uleb128 0x48
 6829 1be3 8E030000 		.4byte	.LBB145
 6830 1be7 EA030000 		.4byte	.LBE145
 6831 1beb 45       		.uleb128 0x45
 6832 1bec E9170000 		.4byte	0x17e9
 6833 1bf0 F7080000 		.4byte	.LLST61
 6834 1bf4 45       		.uleb128 0x45
 6835 1bf5 F5170000 		.4byte	0x17f5
 6836 1bf9 24090000 		.4byte	.LLST62
 6837 1bfd 47       		.uleb128 0x47
 6838 1bfe D5130000 		.4byte	0x13d5
 6839 1c02 A6030000 		.4byte	.LBB146
 6840 1c06 E0030000 		.4byte	.LBE146
 6841 1c0a 01       		.byte	0x1
 6842 1c0b 2A01     		.2byte	0x12a
 6843 1c0d 44       		.uleb128 0x44
 6844 1c0e F1130000 		.4byte	0x13f1
 6845 1c12 64090000 		.4byte	.LLST63
 6846 1c16 44       		.uleb128 0x44
 6847 1c17 FC130000 		.4byte	0x13fc
 6848 1c1b 77090000 		.4byte	.LLST64
 6849 1c1f 4D       		.uleb128 0x4d
 6850 1c20 E6130000 		.4byte	0x13e6
 6851 1c24 00       		.byte	0
 6852 1c25 00       		.byte	0
 6853 1c26 00       		.byte	0
 6854 1c27 49       		.uleb128 0x49
ARM GAS  C:\Users\Matuesz\AppData\Local\Temp\ccLA85Wr.s 			page 122


 6855 1c28 F0030000 		.4byte	.LBB148
 6856 1c2c F6030000 		.4byte	.LBE148
 6857 1c30 3E1C0000 		.4byte	0x1c3e
 6858 1c34 45       		.uleb128 0x45
 6859 1c35 08180000 		.4byte	0x1808
 6860 1c39 A4090000 		.4byte	.LLST65
 6861 1c3d 00       		.byte	0
 6862 1c3e 46       		.uleb128 0x46
 6863 1c3f 47140000 		.4byte	0x1447
 6864 1c43 02040000 		.4byte	.LBB149
 6865 1c47 08040000 		.4byte	.LBE149
 6866 1c4b 01       		.byte	0x1
 6867 1c4c 4701     		.2byte	0x147
 6868 1c4e 6F1C0000 		.4byte	0x1c6f
 6869 1c52 44       		.uleb128 0x44
 6870 1c53 58140000 		.4byte	0x1458
 6871 1c57 C2090000 		.4byte	.LLST66
 6872 1c5b 48       		.uleb128 0x48
 6873 1c5c 02040000 		.4byte	.LBB150
 6874 1c60 08040000 		.4byte	.LBE150
 6875 1c64 45       		.uleb128 0x45
 6876 1c65 63140000 		.4byte	0x1463
 6877 1c69 D5090000 		.4byte	.LLST67
 6878 1c6d 00       		.byte	0
 6879 1c6e 00       		.byte	0
 6880 1c6f 49       		.uleb128 0x49
 6881 1c70 1A040000 		.4byte	.LBB151
 6882 1c74 22040000 		.4byte	.LBE151
 6883 1c78 861C0000 		.4byte	0x1c86
 6884 1c7c 45       		.uleb128 0x45
 6885 1c7d 16180000 		.4byte	0x1816
 6886 1c81 E8090000 		.4byte	.LLST68
 6887 1c85 00       		.byte	0
 6888 1c86 4A       		.uleb128 0x4a
 6889 1c87 0C040000 		.4byte	.LVL152
 6890 1c8b 8D280000 		.4byte	0x288d
 6891 1c8f 4A       		.uleb128 0x4a
 6892 1c90 1A040000 		.4byte	.LVL154
 6893 1c94 A5280000 		.4byte	0x28a5
 6894 1c98 00       		.byte	0
 6895 1c99 00       		.byte	0
 6896 1c9a 00       		.byte	0
 6897 1c9b 00       		.byte	0
 6898 1c9c 49       		.uleb128 0x49
 6899 1c9d 50030000 		.4byte	.LBB156
 6900 1ca1 56030000 		.4byte	.LBE156
 6901 1ca5 BA1C0000 		.4byte	0x1cba
 6902 1ca9 41       		.uleb128 0x41
 6903 1caa 746D7000 		.ascii	"tmp\000"
 6904 1cae 01       		.byte	0x1
 6905 1caf E602     		.2byte	0x2e6
 6906 1cb1 B6000000 		.4byte	0xb6
 6907 1cb5 060A0000 		.4byte	.LLST69
 6908 1cb9 00       		.byte	0
 6909 1cba 48       		.uleb128 0x48
 6910 1cbb 72030000 		.4byte	.LBB157
 6911 1cbf 7A030000 		.4byte	.LBE157
ARM GAS  C:\Users\Matuesz\AppData\Local\Temp\ccLA85Wr.s 			page 123


 6912 1cc3 41       		.uleb128 0x41
 6913 1cc4 746D7000 		.ascii	"tmp\000"
 6914 1cc8 01       		.byte	0x1
 6915 1cc9 EA02     		.2byte	0x2ea
 6916 1ccb B6000000 		.4byte	0xb6
 6917 1ccf 190A0000 		.4byte	.LLST70
 6918 1cd3 00       		.byte	0
 6919 1cd4 00       		.byte	0
 6920 1cd5 4E       		.uleb128 0x4e
 6921 1cd6 5A000000 		.4byte	.LVL26
 6922 1cda AF280000 		.4byte	0x28af
 6923 1cde 37       		.uleb128 0x37
 6924 1cdf 01       		.byte	0x1
 6925 1ce0 50       		.byte	0x50
 6926 1ce1 01       		.byte	0x1
 6927 1ce2 32       		.byte	0x32
 6928 1ce3 00       		.byte	0
 6929 1ce4 00       		.byte	0
 6930 1ce5 00       		.byte	0
 6931 1ce6 4F       		.uleb128 0x4f
 6932 1ce7 01       		.byte	0x1
 6933 1ce8 FD070000 		.4byte	.LASF305
 6934 1cec 01       		.byte	0x1
 6935 1ced 2203     		.2byte	0x322
 6936 1cef 01       		.byte	0x1
 6937 1cf0 00000000 		.4byte	.LFB139
 6938 1cf4 4C000000 		.4byte	.LFE139
 6939 1cf8 370A0000 		.4byte	.LLST71
 6940 1cfc 01       		.byte	0x1
 6941 1cfd 261D0000 		.4byte	0x1d26
 6942 1d01 50       		.uleb128 0x50
 6943 1d02 14000000 		.4byte	.LVL168
 6944 1d06 C3280000 		.4byte	0x28c3
 6945 1d0a 151D0000 		.4byte	0x1d15
 6946 1d0e 37       		.uleb128 0x37
 6947 1d0f 01       		.byte	0x1
 6948 1d10 50       		.byte	0x50
 6949 1d11 02       		.byte	0x2
 6950 1d12 75       		.byte	0x75
 6951 1d13 00       		.sleb128 0
 6952 1d14 00       		.byte	0
 6953 1d15 4E       		.uleb128 0x4e
 6954 1d16 34000000 		.4byte	.LVL169
 6955 1d1a C3280000 		.4byte	0x28c3
 6956 1d1e 37       		.uleb128 0x37
 6957 1d1f 01       		.byte	0x1
 6958 1d20 50       		.byte	0x50
 6959 1d21 02       		.byte	0x2
 6960 1d22 74       		.byte	0x74
 6961 1d23 00       		.sleb128 0
 6962 1d24 00       		.byte	0
 6963 1d25 00       		.byte	0
 6964 1d26 2B       		.uleb128 0x2b
 6965 1d27 210F0000 		.4byte	.LASF304
 6966 1d2b 01       		.byte	0x1
 6967 1d2c 82       		.byte	0x82
 6968 1d2d 01       		.byte	0x1
ARM GAS  C:\Users\Matuesz\AppData\Local\Temp\ccLA85Wr.s 			page 124


 6969 1d2e 01       		.byte	0x1
 6970 1d2f 4A1D0000 		.4byte	0x1d4a
 6971 1d33 22       		.uleb128 0x22
 6972 1d34 42060000 		.4byte	.LASF285
 6973 1d38 01       		.byte	0x1
 6974 1d39 82       		.byte	0x82
 6975 1d3a 320A0000 		.4byte	0xa32
 6976 1d3e 2C       		.uleb128 0x2c
 6977 1d3f 400E0000 		.4byte	.LASF289
 6978 1d43 01       		.byte	0x1
 6979 1d44 83       		.byte	0x83
 6980 1d45 96130000 		.4byte	0x1396
 6981 1d49 00       		.byte	0
 6982 1d4a 4F       		.uleb128 0x4f
 6983 1d4b 01       		.byte	0x1
 6984 1d4c B80C0000 		.4byte	.LASF306
 6985 1d50 01       		.byte	0x1
 6986 1d51 5C03     		.2byte	0x35c
 6987 1d53 01       		.byte	0x1
 6988 1d54 00000000 		.4byte	.LFB140
 6989 1d58 20010000 		.4byte	.LFE140
 6990 1d5c 570A0000 		.4byte	.LLST72
 6991 1d60 01       		.byte	0x1
 6992 1d61 491E0000 		.4byte	0x1e49
 6993 1d65 33       		.uleb128 0x33
 6994 1d66 42060000 		.4byte	.LASF285
 6995 1d6a 01       		.byte	0x1
 6996 1d6b 5C03     		.2byte	0x35c
 6997 1d6d 320A0000 		.4byte	0xa32
 6998 1d71 830A0000 		.4byte	.LLST73
 6999 1d75 35       		.uleb128 0x35
 7000 1d76 400E0000 		.4byte	.LASF289
 7001 1d7a 01       		.byte	0x1
 7002 1d7b 5D03     		.2byte	0x35d
 7003 1d7d 96130000 		.4byte	0x1396
 7004 1d81 01       		.byte	0x1
 7005 1d82 56       		.byte	0x56
 7006 1d83 43       		.uleb128 0x43
 7007 1d84 261D0000 		.4byte	0x1d26
 7008 1d88 3E000000 		.4byte	.LBB162
 7009 1d8c D0010000 		.4byte	.Ldebug_ranges0+0x1d0
 7010 1d90 01       		.byte	0x1
 7011 1d91 9A03     		.2byte	0x39a
 7012 1d93 D31D0000 		.4byte	0x1dd3
 7013 1d97 44       		.uleb128 0x44
 7014 1d98 331D0000 		.4byte	0x1d33
 7015 1d9c B70A0000 		.4byte	.LLST74
 7016 1da0 42       		.uleb128 0x42
 7017 1da1 F0010000 		.4byte	.Ldebug_ranges0+0x1f0
 7018 1da5 45       		.uleb128 0x45
 7019 1da6 3E1D0000 		.4byte	0x1d3e
 7020 1daa CA0A0000 		.4byte	.LLST75
 7021 1dae 50       		.uleb128 0x50
 7022 1daf 50000000 		.4byte	.LVL176
 7023 1db3 79280000 		.4byte	0x2879
 7024 1db7 C21D0000 		.4byte	0x1dc2
 7025 1dbb 37       		.uleb128 0x37
ARM GAS  C:\Users\Matuesz\AppData\Local\Temp\ccLA85Wr.s 			page 125


 7026 1dbc 01       		.byte	0x1
 7027 1dbd 50       		.byte	0x50
 7028 1dbe 02       		.byte	0x2
 7029 1dbf 08       		.byte	0x8
 7030 1dc0 20       		.byte	0x20
 7031 1dc1 00       		.byte	0
 7032 1dc2 4E       		.uleb128 0x4e
 7033 1dc3 60000000 		.4byte	.LVL177
 7034 1dc7 79280000 		.4byte	0x2879
 7035 1dcb 37       		.uleb128 0x37
 7036 1dcc 01       		.byte	0x1
 7037 1dcd 50       		.byte	0x50
 7038 1dce 01       		.byte	0x1
 7039 1dcf 3C       		.byte	0x3c
 7040 1dd0 00       		.byte	0
 7041 1dd1 00       		.byte	0
 7042 1dd2 00       		.byte	0
 7043 1dd3 50       		.uleb128 0x50
 7044 1dd4 70000000 		.4byte	.LVL179
 7045 1dd8 61150000 		.4byte	0x1561
 7046 1ddc E71D0000 		.4byte	0x1de7
 7047 1de0 37       		.uleb128 0x37
 7048 1de1 01       		.byte	0x1
 7049 1de2 50       		.byte	0x50
 7050 1de3 02       		.byte	0x2
 7051 1de4 75       		.byte	0x75
 7052 1de5 00       		.sleb128 0
 7053 1de6 00       		.byte	0
 7054 1de7 50       		.uleb128 0x50
 7055 1de8 B2000000 		.4byte	.LVL181
 7056 1dec D8280000 		.4byte	0x28d8
 7057 1df0 181E0000 		.4byte	0x1e18
 7058 1df4 37       		.uleb128 0x37
 7059 1df5 01       		.byte	0x1
 7060 1df6 53       		.byte	0x53
 7061 1df7 05       		.byte	0x5
 7062 1df8 03       		.byte	0x3
 7063 1df9 00000000 		.4byte	usb_lld_pump
 7064 1dfd 37       		.uleb128 0x37
 7065 1dfe 01       		.byte	0x1
 7066 1dff 52       		.byte	0x52
 7067 1e00 01       		.byte	0x1
 7068 1e01 32       		.byte	0x32
 7069 1e02 37       		.uleb128 0x37
 7070 1e03 01       		.byte	0x1
 7071 1e04 51       		.byte	0x51
 7072 1e05 03       		.byte	0x3
 7073 1e06 0A       		.byte	0xa
 7074 1e07 5001     		.2byte	0x150
 7075 1e09 37       		.uleb128 0x37
 7076 1e0a 01       		.byte	0x1
 7077 1e0b 50       		.byte	0x50
 7078 1e0c 03       		.byte	0x3
 7079 1e0d 75       		.byte	0x75
 7080 1e0e 8001     		.sleb128 128
 7081 1e10 37       		.uleb128 0x37
 7082 1e11 02       		.byte	0x2
ARM GAS  C:\Users\Matuesz\AppData\Local\Temp\ccLA85Wr.s 			page 126


 7083 1e12 7D       		.byte	0x7d
 7084 1e13 00       		.sleb128 0
 7085 1e14 02       		.byte	0x2
 7086 1e15 75       		.byte	0x75
 7087 1e16 00       		.sleb128 0
 7088 1e17 00       		.byte	0
 7089 1e18 50       		.uleb128 0x50
 7090 1e19 DC000000 		.4byte	.LVL182
 7091 1e1d 05290000 		.4byte	0x2905
 7092 1e21 321E0000 		.4byte	0x1e32
 7093 1e25 37       		.uleb128 0x37
 7094 1e26 01       		.byte	0x1
 7095 1e27 51       		.byte	0x51
 7096 1e28 02       		.byte	0x2
 7097 1e29 08       		.byte	0x8
 7098 1e2a E0       		.byte	0xe0
 7099 1e2b 37       		.uleb128 0x37
 7100 1e2c 01       		.byte	0x1
 7101 1e2d 50       		.byte	0x50
 7102 1e2e 02       		.byte	0x2
 7103 1e2f 08       		.byte	0x8
 7104 1e30 43       		.byte	0x43
 7105 1e31 00       		.byte	0
 7106 1e32 4E       		.uleb128 0x4e
 7107 1e33 12010000 		.4byte	.LVL183
 7108 1e37 05290000 		.4byte	0x2905
 7109 1e3b 37       		.uleb128 0x37
 7110 1e3c 01       		.byte	0x1
 7111 1e3d 51       		.byte	0x51
 7112 1e3e 02       		.byte	0x2
 7113 1e3f 08       		.byte	0x8
 7114 1e40 E0       		.byte	0xe0
 7115 1e41 37       		.uleb128 0x37
 7116 1e42 01       		.byte	0x1
 7117 1e43 50       		.byte	0x50
 7118 1e44 02       		.byte	0x2
 7119 1e45 08       		.byte	0x8
 7120 1e46 4D       		.byte	0x4d
 7121 1e47 00       		.byte	0
 7122 1e48 00       		.byte	0
 7123 1e49 4F       		.uleb128 0x4f
 7124 1e4a 01       		.byte	0x1
 7125 1e4b 3E010000 		.4byte	.LASF307
 7126 1e4f 01       		.byte	0x1
 7127 1e50 BB03     		.2byte	0x3bb
 7128 1e52 01       		.byte	0x1
 7129 1e53 00000000 		.4byte	.LFB141
 7130 1e57 1E000000 		.4byte	.LFE141
 7131 1e5b DD0A0000 		.4byte	.LLST76
 7132 1e5f 01       		.byte	0x1
 7133 1e60 931E0000 		.4byte	0x1e93
 7134 1e64 33       		.uleb128 0x33
 7135 1e65 42060000 		.4byte	.LASF285
 7136 1e69 01       		.byte	0x1
 7137 1e6a BB03     		.2byte	0x3bb
 7138 1e6c 320A0000 		.4byte	0xa32
 7139 1e70 FD0A0000 		.4byte	.LLST77
ARM GAS  C:\Users\Matuesz\AppData\Local\Temp\ccLA85Wr.s 			page 127


 7140 1e74 35       		.uleb128 0x35
 7141 1e75 400E0000 		.4byte	.LASF289
 7142 1e79 01       		.byte	0x1
 7143 1e7a BC03     		.2byte	0x3bc
 7144 1e7c 96130000 		.4byte	0x1396
 7145 1e80 01       		.byte	0x1
 7146 1e81 55       		.byte	0x55
 7147 1e82 4E       		.uleb128 0x4e
 7148 1e83 10000000 		.4byte	.LVL186
 7149 1e87 61150000 		.4byte	0x1561
 7150 1e8b 37       		.uleb128 0x37
 7151 1e8c 01       		.byte	0x1
 7152 1e8d 50       		.byte	0x50
 7153 1e8e 02       		.byte	0x2
 7154 1e8f 74       		.byte	0x74
 7155 1e90 00       		.sleb128 0
 7156 1e91 00       		.byte	0
 7157 1e92 00       		.byte	0
 7158 1e93 2B       		.uleb128 0x2b
 7159 1e94 240E0000 		.4byte	.LASF308
 7160 1e98 01       		.byte	0x1
 7161 1e99 B8       		.byte	0xb8
 7162 1e9a 01       		.byte	0x1
 7163 1e9b 01       		.byte	0x1
 7164 1e9c B71E0000 		.4byte	0x1eb7
 7165 1ea0 22       		.uleb128 0x22
 7166 1ea1 42060000 		.4byte	.LASF285
 7167 1ea5 01       		.byte	0x1
 7168 1ea6 B8       		.byte	0xb8
 7169 1ea7 320A0000 		.4byte	0xa32
 7170 1eab 2C       		.uleb128 0x2c
 7171 1eac 400E0000 		.4byte	.LASF289
 7172 1eb0 01       		.byte	0x1
 7173 1eb1 B9       		.byte	0xb9
 7174 1eb2 96130000 		.4byte	0x1396
 7175 1eb6 00       		.byte	0
 7176 1eb7 4F       		.uleb128 0x4f
 7177 1eb8 01       		.byte	0x1
 7178 1eb9 02090000 		.4byte	.LASF309
 7179 1ebd 01       		.byte	0x1
 7180 1ebe E203     		.2byte	0x3e2
 7181 1ec0 01       		.byte	0x1
 7182 1ec1 00000000 		.4byte	.LFB142
 7183 1ec5 2C010000 		.4byte	.LFE142
 7184 1ec9 1B0B0000 		.4byte	.LLST78
 7185 1ecd 01       		.byte	0x1
 7186 1ece 971F0000 		.4byte	0x1f97
 7187 1ed2 33       		.uleb128 0x33
 7188 1ed3 42060000 		.4byte	.LASF285
 7189 1ed7 01       		.byte	0x1
 7190 1ed8 E203     		.2byte	0x3e2
 7191 1eda 320A0000 		.4byte	0xa32
 7192 1ede 3B0B0000 		.4byte	.LLST79
 7193 1ee2 28       		.uleb128 0x28
 7194 1ee3 6900     		.ascii	"i\000"
 7195 1ee5 01       		.byte	0x1
 7196 1ee6 E303     		.2byte	0x3e3
ARM GAS  C:\Users\Matuesz\AppData\Local\Temp\ccLA85Wr.s 			page 128


 7197 1ee8 29000000 		.4byte	0x29
 7198 1eec 35       		.uleb128 0x35
 7199 1eed 400E0000 		.4byte	.LASF289
 7200 1ef1 01       		.byte	0x1
 7201 1ef2 E403     		.2byte	0x3e4
 7202 1ef4 96130000 		.4byte	0x1396
 7203 1ef8 01       		.byte	0x1
 7204 1ef9 54       		.byte	0x54
 7205 1efa 43       		.uleb128 0x43
 7206 1efb EE140000 		.4byte	0x14ee
 7207 1eff A0000000 		.4byte	.LBB174
 7208 1f03 10020000 		.4byte	.Ldebug_ranges0+0x210
 7209 1f07 01       		.byte	0x1
 7210 1f08 F603     		.2byte	0x3f6
 7211 1f0a 161F0000 		.4byte	0x1f16
 7212 1f0e 4B       		.uleb128 0x4b
 7213 1f0f FB140000 		.4byte	0x14fb
 7214 1f13 01       		.byte	0x1
 7215 1f14 58       		.byte	0x58
 7216 1f15 00       		.byte	0
 7217 1f16 43       		.uleb128 0x43
 7218 1f17 931E0000 		.4byte	0x1e93
 7219 1f1b A4000000 		.4byte	.LBB177
 7220 1f1f 28020000 		.4byte	.Ldebug_ranges0+0x228
 7221 1f23 01       		.byte	0x1
 7222 1f24 FA03     		.2byte	0x3fa
 7223 1f26 501F0000 		.4byte	0x1f50
 7224 1f2a 4B       		.uleb128 0x4b
 7225 1f2b A01E0000 		.4byte	0x1ea0
 7226 1f2f 01       		.byte	0x1
 7227 1f30 58       		.byte	0x58
 7228 1f31 42       		.uleb128 0x42
 7229 1f32 48020000 		.4byte	.Ldebug_ranges0+0x248
 7230 1f36 45       		.uleb128 0x45
 7231 1f37 AB1E0000 		.4byte	0x1eab
 7232 1f3b 590B0000 		.4byte	.LLST80
 7233 1f3f 4E       		.uleb128 0x4e
 7234 1f40 D0000000 		.4byte	.LVL192
 7235 1f44 79280000 		.4byte	0x2879
 7236 1f48 37       		.uleb128 0x37
 7237 1f49 01       		.byte	0x1
 7238 1f4a 50       		.byte	0x50
 7239 1f4b 01       		.byte	0x1
 7240 1f4c 3C       		.byte	0x3c
 7241 1f4d 00       		.byte	0
 7242 1f4e 00       		.byte	0
 7243 1f4f 00       		.byte	0
 7244 1f50 43       		.uleb128 0x43
 7245 1f51 07150000 		.4byte	0x1507
 7246 1f55 D4000000 		.4byte	.LBB184
 7247 1f59 68020000 		.4byte	.Ldebug_ranges0+0x268
 7248 1f5d 01       		.byte	0x1
 7249 1f5e 0D04     		.2byte	0x40d
 7250 1f60 811F0000 		.4byte	0x1f81
 7251 1f64 51       		.uleb128 0x51
 7252 1f65 23150000 		.4byte	0x1523
 7253 1f69 10       		.byte	0x10
ARM GAS  C:\Users\Matuesz\AppData\Local\Temp\ccLA85Wr.s 			page 129


 7254 1f6a 4B       		.uleb128 0x4b
 7255 1f6b 18150000 		.4byte	0x1518
 7256 1f6f 01       		.byte	0x1
 7257 1f70 58       		.byte	0x58
 7258 1f71 42       		.uleb128 0x42
 7259 1f72 88020000 		.4byte	.Ldebug_ranges0+0x288
 7260 1f76 52       		.uleb128 0x52
 7261 1f77 2E150000 		.4byte	0x152e
 7262 1f7b 03       		.byte	0x3
 7263 1f7c 78       		.byte	0x78
 7264 1f7d F000     		.sleb128 112
 7265 1f7f 00       		.byte	0
 7266 1f80 00       		.byte	0
 7267 1f81 4E       		.uleb128 0x4e
 7268 1f82 0E000000 		.4byte	.LVL189
 7269 1f86 22160000 		.4byte	0x1622
 7270 1f8a 37       		.uleb128 0x37
 7271 1f8b 01       		.byte	0x1
 7272 1f8c 51       		.byte	0x51
 7273 1f8d 01       		.byte	0x1
 7274 1f8e 30       		.byte	0x30
 7275 1f8f 37       		.uleb128 0x37
 7276 1f90 01       		.byte	0x1
 7277 1f91 50       		.byte	0x50
 7278 1f92 02       		.byte	0x2
 7279 1f93 78       		.byte	0x78
 7280 1f94 00       		.sleb128 0
 7281 1f95 00       		.byte	0
 7282 1f96 00       		.byte	0
 7283 1f97 53       		.uleb128 0x53
 7284 1f98 01       		.byte	0x1
 7285 1f99 59090000 		.4byte	.LASF310
 7286 1f9d 01       		.byte	0x1
 7287 1f9e 1804     		.2byte	0x418
 7288 1fa0 01       		.byte	0x1
 7289 1fa1 00000000 		.4byte	.LFB143
 7290 1fa5 18000000 		.4byte	.LFE143
 7291 1fa9 02       		.byte	0x2
 7292 1faa 7D       		.byte	0x7d
 7293 1fab 00       		.sleb128 0
 7294 1fac 01       		.byte	0x1
 7295 1fad D01F0000 		.4byte	0x1fd0
 7296 1fb1 33       		.uleb128 0x33
 7297 1fb2 42060000 		.4byte	.LASF285
 7298 1fb6 01       		.byte	0x1
 7299 1fb7 1804     		.2byte	0x418
 7300 1fb9 320A0000 		.4byte	0xa32
 7301 1fbd 6C0B0000 		.4byte	.LLST81
 7302 1fc1 35       		.uleb128 0x35
 7303 1fc2 400E0000 		.4byte	.LASF289
 7304 1fc6 01       		.byte	0x1
 7305 1fc7 1904     		.2byte	0x419
 7306 1fc9 96130000 		.4byte	0x1396
 7307 1fcd 01       		.byte	0x1
 7308 1fce 53       		.byte	0x53
 7309 1fcf 00       		.byte	0
 7310 1fd0 4F       		.uleb128 0x4f
ARM GAS  C:\Users\Matuesz\AppData\Local\Temp\ccLA85Wr.s 			page 130


 7311 1fd1 01       		.byte	0x1
 7312 1fd2 28010000 		.4byte	.LASF311
 7313 1fd6 01       		.byte	0x1
 7314 1fd7 2604     		.2byte	0x426
 7315 1fd9 01       		.byte	0x1
 7316 1fda 00000000 		.4byte	.LFB144
 7317 1fde 3A010000 		.4byte	.LFE144
 7318 1fe2 8D0B0000 		.4byte	.LLST82
 7319 1fe6 01       		.byte	0x1
 7320 1fe7 A0200000 		.4byte	0x20a0
 7321 1feb 33       		.uleb128 0x33
 7322 1fec 42060000 		.4byte	.LASF285
 7323 1ff0 01       		.byte	0x1
 7324 1ff1 2604     		.2byte	0x426
 7325 1ff3 320A0000 		.4byte	0xa32
 7326 1ff7 AD0B0000 		.4byte	.LLST83
 7327 1ffb 34       		.uleb128 0x34
 7328 1ffc 657000   		.ascii	"ep\000"
 7329 1fff 01       		.byte	0x1
 7330 2000 2604     		.2byte	0x426
 7331 2002 02090000 		.4byte	0x902
 7332 2006 EF0B0000 		.4byte	.LLST84
 7333 200a 41       		.uleb128 0x41
 7334 200b 63746C00 		.ascii	"ctl\000"
 7335 200f 01       		.byte	0x1
 7336 2010 2704     		.2byte	0x427
 7337 2012 B6000000 		.4byte	0xb6
 7338 2016 290C0000 		.4byte	.LLST85
 7339 201a 3F       		.uleb128 0x3f
 7340 201b 02010000 		.4byte	.LASF312
 7341 201f 01       		.byte	0x1
 7342 2020 2704     		.2byte	0x427
 7343 2022 B6000000 		.4byte	0xb6
 7344 2026 670C0000 		.4byte	.LLST86
 7345 202a 35       		.uleb128 0x35
 7346 202b 400E0000 		.4byte	.LASF289
 7347 202f 01       		.byte	0x1
 7348 2030 2804     		.2byte	0x428
 7349 2032 96130000 		.4byte	0x1396
 7350 2036 01       		.byte	0x1
 7351 2037 54       		.byte	0x54
 7352 2038 43       		.uleb128 0x43
 7353 2039 07150000 		.4byte	0x1507
 7354 203d 82000000 		.4byte	.LBB190
 7355 2041 A8020000 		.4byte	.Ldebug_ranges0+0x2a8
 7356 2045 01       		.byte	0x1
 7357 2046 4F04     		.2byte	0x44f
 7358 2048 6E200000 		.4byte	0x206e
 7359 204c 44       		.uleb128 0x44
 7360 204d 23150000 		.4byte	0x1523
 7361 2051 7A0C0000 		.4byte	.LLST87
 7362 2055 44       		.uleb128 0x44
 7363 2056 18150000 		.4byte	0x1518
 7364 205a 8D0C0000 		.4byte	.LLST88
 7365 205e 42       		.uleb128 0x42
 7366 205f C0020000 		.4byte	.Ldebug_ranges0+0x2c0
 7367 2063 45       		.uleb128 0x45
ARM GAS  C:\Users\Matuesz\AppData\Local\Temp\ccLA85Wr.s 			page 131


 7368 2064 2E150000 		.4byte	0x152e
 7369 2068 B90C0000 		.4byte	.LLST89
 7370 206c 00       		.byte	0
 7371 206d 00       		.byte	0
 7372 206e 50       		.uleb128 0x50
 7373 206f A2000000 		.4byte	.LVL207
 7374 2073 22160000 		.4byte	0x1622
 7375 2077 89200000 		.4byte	0x2089
 7376 207b 37       		.uleb128 0x37
 7377 207c 01       		.byte	0x1
 7378 207d 51       		.byte	0x51
 7379 207e 02       		.byte	0x2
 7380 207f 75       		.byte	0x75
 7381 2080 00       		.sleb128 0
 7382 2081 37       		.uleb128 0x37
 7383 2082 01       		.byte	0x1
 7384 2083 50       		.byte	0x50
 7385 2084 03       		.byte	0x3
 7386 2085 F3       		.byte	0xf3
 7387 2086 01       		.uleb128 0x1
 7388 2087 50       		.byte	0x50
 7389 2088 00       		.byte	0
 7390 2089 4E       		.uleb128 0x4e
 7391 208a 16010000 		.4byte	.LVL213
 7392 208e 22160000 		.4byte	0x1622
 7393 2092 37       		.uleb128 0x37
 7394 2093 01       		.byte	0x1
 7395 2094 51       		.byte	0x51
 7396 2095 02       		.byte	0x2
 7397 2096 75       		.byte	0x75
 7398 2097 00       		.sleb128 0
 7399 2098 37       		.uleb128 0x37
 7400 2099 01       		.byte	0x1
 7401 209a 50       		.byte	0x50
 7402 209b 02       		.byte	0x2
 7403 209c 76       		.byte	0x76
 7404 209d 00       		.sleb128 0
 7405 209e 00       		.byte	0
 7406 209f 00       		.byte	0
 7407 20a0 53       		.uleb128 0x53
 7408 20a1 01       		.byte	0x1
 7409 20a2 100A0000 		.4byte	.LASF313
 7410 20a6 01       		.byte	0x1
 7411 20a7 6604     		.2byte	0x466
 7412 20a9 01       		.byte	0x1
 7413 20aa 00000000 		.4byte	.LFB145
 7414 20ae 0A000000 		.4byte	.LFE145
 7415 20b2 02       		.byte	0x2
 7416 20b3 7D       		.byte	0x7d
 7417 20b4 00       		.sleb128 0
 7418 20b5 01       		.byte	0x1
 7419 20b6 FB200000 		.4byte	0x20fb
 7420 20ba 33       		.uleb128 0x33
 7421 20bb 42060000 		.4byte	.LASF285
 7422 20bf 01       		.byte	0x1
 7423 20c0 6604     		.2byte	0x466
 7424 20c2 320A0000 		.4byte	0xa32
ARM GAS  C:\Users\Matuesz\AppData\Local\Temp\ccLA85Wr.s 			page 132


 7425 20c6 CC0C0000 		.4byte	.LLST90
 7426 20ca 46       		.uleb128 0x46
 7427 20cb EE140000 		.4byte	0x14ee
 7428 20cf 00000000 		.4byte	.LBB194
 7429 20d3 06000000 		.4byte	.LBE194
 7430 20d7 01       		.byte	0x1
 7431 20d8 6904     		.2byte	0x469
 7432 20da E8200000 		.4byte	0x20e8
 7433 20de 44       		.uleb128 0x44
 7434 20df FB140000 		.4byte	0x14fb
 7435 20e3 CC0C0000 		.4byte	.LLST90
 7436 20e7 00       		.byte	0
 7437 20e8 3B       		.uleb128 0x3b
 7438 20e9 0A000000 		.4byte	.LVL215
 7439 20ed 01       		.byte	0x1
 7440 20ee 61150000 		.4byte	0x1561
 7441 20f2 37       		.uleb128 0x37
 7442 20f3 01       		.byte	0x1
 7443 20f4 50       		.byte	0x50
 7444 20f5 03       		.byte	0x3
 7445 20f6 F3       		.byte	0xf3
 7446 20f7 01       		.uleb128 0x1
 7447 20f8 50       		.byte	0x50
 7448 20f9 00       		.byte	0
 7449 20fa 00       		.byte	0
 7450 20fb 54       		.uleb128 0x54
 7451 20fc 01       		.byte	0x1
 7452 20fd A10C0000 		.4byte	.LASF314
 7453 2101 01       		.byte	0x1
 7454 2102 7B04     		.2byte	0x47b
 7455 2104 01       		.byte	0x1
 7456 2105 5A090000 		.4byte	0x95a
 7457 2109 00000000 		.4byte	.LFB146
 7458 210d 1A000000 		.4byte	.LFE146
 7459 2111 02       		.byte	0x2
 7460 2112 7D       		.byte	0x7d
 7461 2113 00       		.sleb128 0
 7462 2114 01       		.byte	0x1
 7463 2115 47210000 		.4byte	0x2147
 7464 2119 33       		.uleb128 0x33
 7465 211a 42060000 		.4byte	.LASF285
 7466 211e 01       		.byte	0x1
 7467 211f 7B04     		.2byte	0x47b
 7468 2121 320A0000 		.4byte	0xa32
 7469 2125 ED0C0000 		.4byte	.LLST92
 7470 2129 34       		.uleb128 0x34
 7471 212a 657000   		.ascii	"ep\000"
 7472 212d 01       		.byte	0x1
 7473 212e 7B04     		.2byte	0x47b
 7474 2130 02090000 		.4byte	0x902
 7475 2134 0E0D0000 		.4byte	.LLST93
 7476 2138 55       		.uleb128 0x55
 7477 2139 63746C00 		.ascii	"ctl\000"
 7478 213d 01       		.byte	0x1
 7479 213e 7C04     		.2byte	0x47c
 7480 2140 B6000000 		.4byte	0xb6
 7481 2144 01       		.byte	0x1
ARM GAS  C:\Users\Matuesz\AppData\Local\Temp\ccLA85Wr.s 			page 133


 7482 2145 52       		.byte	0x52
 7483 2146 00       		.byte	0
 7484 2147 54       		.uleb128 0x54
 7485 2148 01       		.byte	0x1
 7486 2149 C2000000 		.4byte	.LASF315
 7487 214d 01       		.byte	0x1
 7488 214e 9404     		.2byte	0x494
 7489 2150 01       		.byte	0x1
 7490 2151 5A090000 		.4byte	0x95a
 7491 2155 00000000 		.4byte	.LFB147
 7492 2159 1A000000 		.4byte	.LFE147
 7493 215d 02       		.byte	0x2
 7494 215e 7D       		.byte	0x7d
 7495 215f 00       		.sleb128 0
 7496 2160 01       		.byte	0x1
 7497 2161 93210000 		.4byte	0x2193
 7498 2165 33       		.uleb128 0x33
 7499 2166 42060000 		.4byte	.LASF285
 7500 216a 01       		.byte	0x1
 7501 216b 9404     		.2byte	0x494
 7502 216d 320A0000 		.4byte	0xa32
 7503 2171 2F0D0000 		.4byte	.LLST94
 7504 2175 34       		.uleb128 0x34
 7505 2176 657000   		.ascii	"ep\000"
 7506 2179 01       		.byte	0x1
 7507 217a 9404     		.2byte	0x494
 7508 217c 02090000 		.4byte	0x902
 7509 2180 500D0000 		.4byte	.LLST95
 7510 2184 55       		.uleb128 0x55
 7511 2185 63746C00 		.ascii	"ctl\000"
 7512 2189 01       		.byte	0x1
 7513 218a 9504     		.2byte	0x495
 7514 218c B6000000 		.4byte	0xb6
 7515 2190 01       		.byte	0x1
 7516 2191 52       		.byte	0x52
 7517 2192 00       		.byte	0
 7518 2193 53       		.uleb128 0x53
 7519 2194 01       		.byte	0x1
 7520 2195 DC030000 		.4byte	.LASF316
 7521 2199 01       		.byte	0x1
 7522 219a AF04     		.2byte	0x4af
 7523 219c 01       		.byte	0x1
 7524 219d 00000000 		.4byte	.LFB148
 7525 21a1 12000000 		.4byte	.LFE148
 7526 21a5 02       		.byte	0x2
 7527 21a6 7D       		.byte	0x7d
 7528 21a7 00       		.sleb128 0
 7529 21a8 01       		.byte	0x1
 7530 21a9 DB210000 		.4byte	0x21db
 7531 21ad 33       		.uleb128 0x33
 7532 21ae 42060000 		.4byte	.LASF285
 7533 21b2 01       		.byte	0x1
 7534 21b3 AF04     		.2byte	0x4af
 7535 21b5 320A0000 		.4byte	0xa32
 7536 21b9 710D0000 		.4byte	.LLST96
 7537 21bd 34       		.uleb128 0x34
 7538 21be 657000   		.ascii	"ep\000"
ARM GAS  C:\Users\Matuesz\AppData\Local\Temp\ccLA85Wr.s 			page 134


 7539 21c1 01       		.byte	0x1
 7540 21c2 AF04     		.2byte	0x4af
 7541 21c4 02090000 		.4byte	0x902
 7542 21c8 920D0000 		.4byte	.LLST97
 7543 21cc 56       		.uleb128 0x56
 7544 21cd 62756600 		.ascii	"buf\000"
 7545 21d1 01       		.byte	0x1
 7546 21d2 AF04     		.2byte	0x4af
 7547 21d4 46050000 		.4byte	0x546
 7548 21d8 01       		.byte	0x1
 7549 21d9 52       		.byte	0x52
 7550 21da 00       		.byte	0
 7551 21db 4F       		.uleb128 0x4f
 7552 21dc 01       		.byte	0x1
 7553 21dd 810A0000 		.4byte	.LASF317
 7554 21e1 01       		.byte	0x1
 7555 21e2 BC04     		.2byte	0x4bc
 7556 21e4 01       		.byte	0x1
 7557 21e5 00000000 		.4byte	.LFB149
 7558 21e9 2C000000 		.4byte	.LFE149
 7559 21ed B30D0000 		.4byte	.LLST98
 7560 21f1 01       		.byte	0x1
 7561 21f2 36220000 		.4byte	0x2236
 7562 21f6 33       		.uleb128 0x33
 7563 21f7 42060000 		.4byte	.LASF285
 7564 21fb 01       		.byte	0x1
 7565 21fc BC04     		.2byte	0x4bc
 7566 21fe 320A0000 		.4byte	0xa32
 7567 2202 D30D0000 		.4byte	.LLST99
 7568 2206 34       		.uleb128 0x34
 7569 2207 657000   		.ascii	"ep\000"
 7570 220a 01       		.byte	0x1
 7571 220b BC04     		.2byte	0x4bc
 7572 220d 02090000 		.4byte	0x902
 7573 2211 F40D0000 		.4byte	.LLST100
 7574 2215 3F       		.uleb128 0x3f
 7575 2216 9E030000 		.4byte	.LASF318
 7576 221a 01       		.byte	0x1
 7577 221b BD04     		.2byte	0x4bd
 7578 221d B6000000 		.4byte	0xb6
 7579 2221 150E0000 		.4byte	.LLST101
 7580 2225 41       		.uleb128 0x41
 7581 2226 6F737000 		.ascii	"osp\000"
 7582 222a 01       		.byte	0x1
 7583 222b BE04     		.2byte	0x4be
 7584 222d EC120000 		.4byte	0x12ec
 7585 2231 380E0000 		.4byte	.LLST102
 7586 2235 00       		.byte	0
 7587 2236 4F       		.uleb128 0x4f
 7588 2237 01       		.byte	0x1
 7589 2238 8B000000 		.4byte	.LASF319
 7590 223c 01       		.byte	0x1
 7591 223d D004     		.2byte	0x4d0
 7592 223f 01       		.byte	0x1
 7593 2240 00000000 		.4byte	.LFB150
 7594 2244 4A000000 		.4byte	.LFE150
 7595 2248 630E0000 		.4byte	.LLST103
ARM GAS  C:\Users\Matuesz\AppData\Local\Temp\ccLA85Wr.s 			page 135


 7596 224c 01       		.byte	0x1
 7597 224d 97220000 		.4byte	0x2297
 7598 2251 33       		.uleb128 0x33
 7599 2252 42060000 		.4byte	.LASF285
 7600 2256 01       		.byte	0x1
 7601 2257 D004     		.2byte	0x4d0
 7602 2259 320A0000 		.4byte	0xa32
 7603 225d 830E0000 		.4byte	.LLST104
 7604 2261 34       		.uleb128 0x34
 7605 2262 657000   		.ascii	"ep\000"
 7606 2265 01       		.byte	0x1
 7607 2266 D004     		.2byte	0x4d0
 7608 2268 02090000 		.4byte	0x902
 7609 226c BD0E0000 		.4byte	.LLST105
 7610 2270 41       		.uleb128 0x41
 7611 2271 69737000 		.ascii	"isp\000"
 7612 2275 01       		.byte	0x1
 7613 2276 D104     		.2byte	0x4d1
 7614 2278 E6120000 		.4byte	0x12e6
 7615 227c F70E0000 		.4byte	.LLST106
 7616 2280 42       		.uleb128 0x42
 7617 2281 D8020000 		.4byte	.Ldebug_ranges0+0x2d8
 7618 2285 3F       		.uleb128 0x3f
 7619 2286 9E030000 		.4byte	.LASF318
 7620 228a 01       		.byte	0x1
 7621 228b DE04     		.2byte	0x4de
 7622 228d B6000000 		.4byte	0xb6
 7623 2291 440F0000 		.4byte	.LLST107
 7624 2295 00       		.byte	0
 7625 2296 00       		.byte	0
 7626 2297 2B       		.uleb128 0x2b
 7627 2298 AA070000 		.4byte	.LASF320
 7628 229c 01       		.byte	0x1
 7629 229d 7A       		.byte	0x7a
 7630 229e 01       		.byte	0x1
 7631 229f 01       		.byte	0x1
 7632 22a0 B0220000 		.4byte	0x22b0
 7633 22a4 22       		.uleb128 0x22
 7634 22a5 42060000 		.4byte	.LASF285
 7635 22a9 01       		.byte	0x1
 7636 22aa 7A       		.byte	0x7a
 7637 22ab 320A0000 		.4byte	0xa32
 7638 22af 00       		.byte	0
 7639 22b0 32       		.uleb128 0x32
 7640 22b1 DC0D0000 		.4byte	.LASF321
 7641 22b5 01       		.byte	0x1
 7642 22b6 2602     		.2byte	0x226
 7643 22b8 01       		.byte	0x1
 7644 22b9 00000000 		.4byte	.LFB133
 7645 22bd D0000000 		.4byte	.LFE133
 7646 22c1 700F0000 		.4byte	.LLST108
 7647 22c5 01       		.byte	0x1
 7648 22c6 0E240000 		.4byte	0x240e
 7649 22ca 33       		.uleb128 0x33
 7650 22cb 42060000 		.4byte	.LASF285
 7651 22cf 01       		.byte	0x1
 7652 22d0 2602     		.2byte	0x226
ARM GAS  C:\Users\Matuesz\AppData\Local\Temp\ccLA85Wr.s 			page 136


 7653 22d2 320A0000 		.4byte	0xa32
 7654 22d6 900F0000 		.4byte	.LLST109
 7655 22da 34       		.uleb128 0x34
 7656 22db 657000   		.ascii	"ep\000"
 7657 22de 01       		.byte	0x1
 7658 22df 2602     		.2byte	0x226
 7659 22e1 02090000 		.4byte	0x902
 7660 22e5 DA0F0000 		.4byte	.LLST110
 7661 22e9 35       		.uleb128 0x35
 7662 22ea 400E0000 		.4byte	.LASF289
 7663 22ee 01       		.byte	0x1
 7664 22ef 2702     		.2byte	0x227
 7665 22f1 96130000 		.4byte	0x1396
 7666 22f5 01       		.byte	0x1
 7667 22f6 55       		.byte	0x55
 7668 22f7 35       		.uleb128 0x35
 7669 22f8 A3040000 		.4byte	.LASF292
 7670 22fc 01       		.byte	0x1
 7671 22fd 2802     		.2byte	0x228
 7672 22ff B6000000 		.4byte	0xb6
 7673 2303 01       		.byte	0x1
 7674 2304 54       		.byte	0x54
 7675 2305 40       		.uleb128 0x40
 7676 2306 F0020000 		.4byte	.Ldebug_ranges0+0x2f0
 7677 230a AE230000 		.4byte	0x23ae
 7678 230e 41       		.uleb128 0x41
 7679 230f 69737000 		.ascii	"isp\000"
 7680 2313 01       		.byte	0x1
 7681 2314 3102     		.2byte	0x231
 7682 2316 E6120000 		.4byte	0x12e6
 7683 231a 2D100000 		.4byte	.LLST111
 7684 231e 49       		.uleb128 0x49
 7685 231f 5E000000 		.4byte	.LBB208
 7686 2323 64000000 		.4byte	.LBE208
 7687 2327 3C230000 		.4byte	0x233c
 7688 232b 41       		.uleb128 0x41
 7689 232c 746D7000 		.ascii	"tmp\000"
 7690 2330 01       		.byte	0x1
 7691 2331 3A02     		.2byte	0x23a
 7692 2333 B6000000 		.4byte	0xb6
 7693 2337 61100000 		.4byte	.LLST112
 7694 233b 00       		.byte	0
 7695 233c 46       		.uleb128 0x46
 7696 233d 3A150000 		.4byte	0x153a
 7697 2341 64000000 		.4byte	.LBB209
 7698 2345 84000000 		.4byte	.LBE209
 7699 2349 01       		.byte	0x1
 7700 234a 3B02     		.2byte	0x23b
 7701 234c 63230000 		.4byte	0x2363
 7702 2350 44       		.uleb128 0x44
 7703 2351 55150000 		.4byte	0x1555
 7704 2355 74100000 		.4byte	.LLST113
 7705 2359 44       		.uleb128 0x44
 7706 235a 49150000 		.4byte	0x1549
 7707 235e 87100000 		.4byte	.LLST114
 7708 2362 00       		.byte	0
 7709 2363 49       		.uleb128 0x49
ARM GAS  C:\Users\Matuesz\AppData\Local\Temp\ccLA85Wr.s 			page 137


 7710 2364 84000000 		.4byte	.LBB211
 7711 2368 8C000000 		.4byte	.LBE211
 7712 236c 81230000 		.4byte	0x2381
 7713 2370 41       		.uleb128 0x41
 7714 2371 746D7000 		.ascii	"tmp\000"
 7715 2375 01       		.byte	0x1
 7716 2376 3C02     		.2byte	0x23c
 7717 2378 B6000000 		.4byte	0xb6
 7718 237c 9A100000 		.4byte	.LLST115
 7719 2380 00       		.byte	0
 7720 2381 50       		.uleb128 0x50
 7721 2382 5E000000 		.4byte	.LVL253
 7722 2386 36220000 		.4byte	0x2236
 7723 238a 9B230000 		.4byte	0x239b
 7724 238e 37       		.uleb128 0x37
 7725 238f 01       		.byte	0x1
 7726 2390 51       		.byte	0x51
 7727 2391 02       		.byte	0x2
 7728 2392 77       		.byte	0x77
 7729 2393 00       		.sleb128 0
 7730 2394 37       		.uleb128 0x37
 7731 2395 01       		.byte	0x1
 7732 2396 50       		.byte	0x50
 7733 2397 02       		.byte	0x2
 7734 2398 76       		.byte	0x76
 7735 2399 00       		.sleb128 0
 7736 239a 00       		.byte	0
 7737 239b 38       		.uleb128 0x38
 7738 239c CE000000 		.4byte	.LVL268
 7739 23a0 37       		.uleb128 0x37
 7740 23a1 01       		.byte	0x1
 7741 23a2 51       		.byte	0x51
 7742 23a3 02       		.byte	0x2
 7743 23a4 77       		.byte	0x77
 7744 23a5 00       		.sleb128 0
 7745 23a6 37       		.uleb128 0x37
 7746 23a7 01       		.byte	0x1
 7747 23a8 50       		.byte	0x50
 7748 23a9 02       		.byte	0x2
 7749 23aa 76       		.byte	0x76
 7750 23ab 00       		.sleb128 0
 7751 23ac 00       		.byte	0
 7752 23ad 00       		.byte	0
 7753 23ae 49       		.uleb128 0x49
 7754 23af 8C000000 		.4byte	.LBB212
 7755 23b3 92000000 		.4byte	.LBE212
 7756 23b7 CC230000 		.4byte	0x23cc
 7757 23bb 41       		.uleb128 0x41
 7758 23bc 746D7000 		.ascii	"tmp\000"
 7759 23c0 01       		.byte	0x1
 7760 23c1 4602     		.2byte	0x246
 7761 23c3 B6000000 		.4byte	0xb6
 7762 23c7 B8100000 		.4byte	.LLST116
 7763 23cb 00       		.byte	0
 7764 23cc 43       		.uleb128 0x43
 7765 23cd 97220000 		.4byte	0x2297
 7766 23d1 98000000 		.4byte	.LBB213
ARM GAS  C:\Users\Matuesz\AppData\Local\Temp\ccLA85Wr.s 			page 138


 7767 23d5 08030000 		.4byte	.Ldebug_ranges0+0x308
 7768 23d9 01       		.byte	0x1
 7769 23da 4902     		.2byte	0x249
 7770 23dc F3230000 		.4byte	0x23f3
 7771 23e0 44       		.uleb128 0x44
 7772 23e1 A4220000 		.4byte	0x22a4
 7773 23e5 CB100000 		.4byte	.LLST117
 7774 23e9 4A       		.uleb128 0x4a
 7775 23ea AC000000 		.4byte	.LVL263
 7776 23ee 8D280000 		.4byte	0x288d
 7777 23f2 00       		.byte	0
 7778 23f3 48       		.uleb128 0x48
 7779 23f4 B0000000 		.4byte	.LBB217
 7780 23f8 BA000000 		.4byte	.LBE217
 7781 23fc 41       		.uleb128 0x41
 7782 23fd 746D7000 		.ascii	"tmp\000"
 7783 2401 01       		.byte	0x1
 7784 2402 4A02     		.2byte	0x24a
 7785 2404 B6000000 		.4byte	0xb6
 7786 2408 DE100000 		.4byte	.LLST118
 7787 240c 00       		.byte	0
 7788 240d 00       		.byte	0
 7789 240e 32       		.uleb128 0x32
 7790 240f D9050000 		.4byte	.LASF322
 7791 2413 01       		.byte	0x1
 7792 2414 7002     		.2byte	0x270
 7793 2416 01       		.byte	0x1
 7794 2417 00000000 		.4byte	.LFB135
 7795 241b 32010000 		.4byte	.LFE135
 7796 241f F1100000 		.4byte	.LLST119
 7797 2423 01       		.byte	0x1
 7798 2424 21260000 		.4byte	0x2621
 7799 2428 33       		.uleb128 0x33
 7800 2429 42060000 		.4byte	.LASF285
 7801 242d 01       		.byte	0x1
 7802 242e 7002     		.2byte	0x270
 7803 2430 320A0000 		.4byte	0xa32
 7804 2434 11110000 		.4byte	.LLST120
 7805 2438 3F       		.uleb128 0x3f
 7806 2439 400E0000 		.4byte	.LASF289
 7807 243d 01       		.byte	0x1
 7808 243e 7102     		.2byte	0x271
 7809 2440 96130000 		.4byte	0x1396
 7810 2444 45110000 		.4byte	.LLST121
 7811 2448 55       		.uleb128 0x55
 7812 2449 73747300 		.ascii	"sts\000"
 7813 244d 01       		.byte	0x1
 7814 244e 7202     		.2byte	0x272
 7815 2450 B6000000 		.4byte	0xb6
 7816 2454 01       		.byte	0x1
 7817 2455 54       		.byte	0x54
 7818 2456 41       		.uleb128 0x41
 7819 2457 73726300 		.ascii	"src\000"
 7820 245b 01       		.byte	0x1
 7821 245c 7202     		.2byte	0x272
 7822 245e B6000000 		.4byte	0xb6
 7823 2462 63110000 		.4byte	.LLST122
ARM GAS  C:\Users\Matuesz\AppData\Local\Temp\ccLA85Wr.s 			page 139


 7824 2466 49       		.uleb128 0x49
 7825 2467 8A000000 		.4byte	.LBB223
 7826 246b 90000000 		.4byte	.LBE223
 7827 246f 84240000 		.4byte	0x2484
 7828 2473 41       		.uleb128 0x41
 7829 2474 746D7000 		.ascii	"tmp\000"
 7830 2478 01       		.byte	0x1
 7831 2479 8B02     		.2byte	0x28b
 7832 247b B6000000 		.4byte	0xb6
 7833 247f 81110000 		.4byte	.LLST123
 7834 2483 00       		.byte	0
 7835 2484 43       		.uleb128 0x43
 7836 2485 97220000 		.4byte	0x2297
 7837 2489 92000000 		.4byte	.LBB224
 7838 248d 20030000 		.4byte	.Ldebug_ranges0+0x320
 7839 2491 01       		.byte	0x1
 7840 2492 8D02     		.2byte	0x28d
 7841 2494 AB240000 		.4byte	0x24ab
 7842 2498 44       		.uleb128 0x44
 7843 2499 A4220000 		.4byte	0x22a4
 7844 249d 94110000 		.4byte	.LLST124
 7845 24a1 4A       		.uleb128 0x4a
 7846 24a2 A0000000 		.4byte	.LVL288
 7847 24a6 8D280000 		.4byte	0x288d
 7848 24aa 00       		.byte	0
 7849 24ab 49       		.uleb128 0x49
 7850 24ac A4000000 		.4byte	.LBB228
 7851 24b0 AC000000 		.4byte	.LBE228
 7852 24b4 C9240000 		.4byte	0x24c9
 7853 24b8 41       		.uleb128 0x41
 7854 24b9 746D7000 		.ascii	"tmp\000"
 7855 24bd 01       		.byte	0x1
 7856 24be 8E02     		.2byte	0x28e
 7857 24c0 B6000000 		.4byte	0xb6
 7858 24c4 A7110000 		.4byte	.LLST125
 7859 24c8 00       		.byte	0
 7860 24c9 36       		.uleb128 0x36
 7861 24ca 28000000 		.4byte	.LVL273
 7862 24ce D9240000 		.4byte	0x24d9
 7863 24d2 37       		.uleb128 0x37
 7864 24d3 01       		.byte	0x1
 7865 24d4 50       		.byte	0x50
 7866 24d5 02       		.byte	0x2
 7867 24d6 76       		.byte	0x76
 7868 24d7 00       		.sleb128 0
 7869 24d8 00       		.byte	0
 7870 24d9 57       		.uleb128 0x57
 7871 24da 76000000 		.4byte	.LVL281
 7872 24de 01       		.byte	0x1
 7873 24df A4150000 		.4byte	0x15a4
 7874 24e3 F3240000 		.4byte	0x24f3
 7875 24e7 37       		.uleb128 0x37
 7876 24e8 01       		.byte	0x1
 7877 24e9 51       		.byte	0x51
 7878 24ea 01       		.byte	0x1
 7879 24eb 35       		.byte	0x35
 7880 24ec 37       		.uleb128 0x37
ARM GAS  C:\Users\Matuesz\AppData\Local\Temp\ccLA85Wr.s 			page 140


 7881 24ed 01       		.byte	0x1
 7882 24ee 50       		.byte	0x50
 7883 24ef 02       		.byte	0x2
 7884 24f0 76       		.byte	0x76
 7885 24f1 00       		.sleb128 0
 7886 24f2 00       		.byte	0
 7887 24f3 4A       		.uleb128 0x4a
 7888 24f4 7A000000 		.4byte	.LVL282
 7889 24f8 1F290000 		.4byte	0x291f
 7890 24fc 36       		.uleb128 0x36
 7891 24fd 88000000 		.4byte	.LVL283
 7892 2501 11250000 		.4byte	0x2511
 7893 2505 37       		.uleb128 0x37
 7894 2506 01       		.byte	0x1
 7895 2507 51       		.byte	0x51
 7896 2508 01       		.byte	0x1
 7897 2509 30       		.byte	0x30
 7898 250a 37       		.uleb128 0x37
 7899 250b 01       		.byte	0x1
 7900 250c 50       		.byte	0x50
 7901 250d 02       		.byte	0x2
 7902 250e 76       		.byte	0x76
 7903 250f 00       		.sleb128 0
 7904 2510 00       		.byte	0
 7905 2511 50       		.uleb128 0x50
 7906 2512 B4000000 		.4byte	.LVL291
 7907 2516 A4150000 		.4byte	0x15a4
 7908 251a 2A250000 		.4byte	0x252a
 7909 251e 37       		.uleb128 0x37
 7910 251f 01       		.byte	0x1
 7911 2520 51       		.byte	0x51
 7912 2521 01       		.byte	0x1
 7913 2522 34       		.byte	0x34
 7914 2523 37       		.uleb128 0x37
 7915 2524 01       		.byte	0x1
 7916 2525 50       		.byte	0x50
 7917 2526 02       		.byte	0x2
 7918 2527 76       		.byte	0x76
 7919 2528 00       		.sleb128 0
 7920 2529 00       		.byte	0
 7921 252a 50       		.uleb128 0x50
 7922 252b C2000000 		.4byte	.LVL293
 7923 252f A4150000 		.4byte	0x15a4
 7924 2533 43250000 		.4byte	0x2543
 7925 2537 37       		.uleb128 0x37
 7926 2538 01       		.byte	0x1
 7927 2539 51       		.byte	0x51
 7928 253a 01       		.byte	0x1
 7929 253b 30       		.byte	0x30
 7930 253c 37       		.uleb128 0x37
 7931 253d 01       		.byte	0x1
 7932 253e 50       		.byte	0x50
 7933 253f 02       		.byte	0x2
 7934 2540 76       		.byte	0x76
 7935 2541 00       		.sleb128 0
 7936 2542 00       		.byte	0
 7937 2543 50       		.uleb128 0x50
ARM GAS  C:\Users\Matuesz\AppData\Local\Temp\ccLA85Wr.s 			page 141


 7938 2544 CE000000 		.4byte	.LVL294
 7939 2548 A4150000 		.4byte	0x15a4
 7940 254c 5C250000 		.4byte	0x255c
 7941 2550 37       		.uleb128 0x37
 7942 2551 01       		.byte	0x1
 7943 2552 51       		.byte	0x51
 7944 2553 01       		.byte	0x1
 7945 2554 31       		.byte	0x31
 7946 2555 37       		.uleb128 0x37
 7947 2556 01       		.byte	0x1
 7948 2557 50       		.byte	0x50
 7949 2558 02       		.byte	0x2
 7950 2559 76       		.byte	0x76
 7951 255a 00       		.sleb128 0
 7952 255b 00       		.byte	0
 7953 255c 50       		.uleb128 0x50
 7954 255d DA000000 		.4byte	.LVL295
 7955 2561 A4150000 		.4byte	0x15a4
 7956 2565 75250000 		.4byte	0x2575
 7957 2569 37       		.uleb128 0x37
 7958 256a 01       		.byte	0x1
 7959 256b 51       		.byte	0x51
 7960 256c 01       		.byte	0x1
 7961 256d 32       		.byte	0x32
 7962 256e 37       		.uleb128 0x37
 7963 256f 01       		.byte	0x1
 7964 2570 50       		.byte	0x50
 7965 2571 02       		.byte	0x2
 7966 2572 76       		.byte	0x76
 7967 2573 00       		.sleb128 0
 7968 2574 00       		.byte	0
 7969 2575 50       		.uleb128 0x50
 7970 2576 E6000000 		.4byte	.LVL296
 7971 257a A4150000 		.4byte	0x15a4
 7972 257e 8E250000 		.4byte	0x258e
 7973 2582 37       		.uleb128 0x37
 7974 2583 01       		.byte	0x1
 7975 2584 51       		.byte	0x51
 7976 2585 01       		.byte	0x1
 7977 2586 33       		.byte	0x33
 7978 2587 37       		.uleb128 0x37
 7979 2588 01       		.byte	0x1
 7980 2589 50       		.byte	0x50
 7981 258a 02       		.byte	0x2
 7982 258b 76       		.byte	0x76
 7983 258c 00       		.sleb128 0
 7984 258d 00       		.byte	0
 7985 258e 50       		.uleb128 0x50
 7986 258f F4000000 		.4byte	.LVL297
 7987 2593 B0220000 		.4byte	0x22b0
 7988 2597 A7250000 		.4byte	0x25a7
 7989 259b 37       		.uleb128 0x37
 7990 259c 01       		.byte	0x1
 7991 259d 51       		.byte	0x51
 7992 259e 01       		.byte	0x1
 7993 259f 30       		.byte	0x30
 7994 25a0 37       		.uleb128 0x37
ARM GAS  C:\Users\Matuesz\AppData\Local\Temp\ccLA85Wr.s 			page 142


 7995 25a1 01       		.byte	0x1
 7996 25a2 50       		.byte	0x50
 7997 25a3 02       		.byte	0x2
 7998 25a4 76       		.byte	0x76
 7999 25a5 00       		.sleb128 0
 8000 25a6 00       		.byte	0
 8001 25a7 50       		.uleb128 0x50
 8002 25a8 00010000 		.4byte	.LVL298
 8003 25ac B0220000 		.4byte	0x22b0
 8004 25b0 C0250000 		.4byte	0x25c0
 8005 25b4 37       		.uleb128 0x37
 8006 25b5 01       		.byte	0x1
 8007 25b6 51       		.byte	0x51
 8008 25b7 01       		.byte	0x1
 8009 25b8 31       		.byte	0x31
 8010 25b9 37       		.uleb128 0x37
 8011 25ba 01       		.byte	0x1
 8012 25bb 50       		.byte	0x50
 8013 25bc 02       		.byte	0x2
 8014 25bd 76       		.byte	0x76
 8015 25be 00       		.sleb128 0
 8016 25bf 00       		.byte	0
 8017 25c0 50       		.uleb128 0x50
 8018 25c1 0C010000 		.4byte	.LVL299
 8019 25c5 B0220000 		.4byte	0x22b0
 8020 25c9 D9250000 		.4byte	0x25d9
 8021 25cd 37       		.uleb128 0x37
 8022 25ce 01       		.byte	0x1
 8023 25cf 51       		.byte	0x51
 8024 25d0 01       		.byte	0x1
 8025 25d1 32       		.byte	0x32
 8026 25d2 37       		.uleb128 0x37
 8027 25d3 01       		.byte	0x1
 8028 25d4 50       		.byte	0x50
 8029 25d5 02       		.byte	0x2
 8030 25d6 76       		.byte	0x76
 8031 25d7 00       		.sleb128 0
 8032 25d8 00       		.byte	0
 8033 25d9 50       		.uleb128 0x50
 8034 25da 18010000 		.4byte	.LVL300
 8035 25de B0220000 		.4byte	0x22b0
 8036 25e2 F2250000 		.4byte	0x25f2
 8037 25e6 37       		.uleb128 0x37
 8038 25e7 01       		.byte	0x1
 8039 25e8 51       		.byte	0x51
 8040 25e9 01       		.byte	0x1
 8041 25ea 33       		.byte	0x33
 8042 25eb 37       		.uleb128 0x37
 8043 25ec 01       		.byte	0x1
 8044 25ed 50       		.byte	0x50
 8045 25ee 02       		.byte	0x2
 8046 25ef 76       		.byte	0x76
 8047 25f0 00       		.sleb128 0
 8048 25f1 00       		.byte	0
 8049 25f2 50       		.uleb128 0x50
 8050 25f3 24010000 		.4byte	.LVL301
 8051 25f7 B0220000 		.4byte	0x22b0
ARM GAS  C:\Users\Matuesz\AppData\Local\Temp\ccLA85Wr.s 			page 143


 8052 25fb 0B260000 		.4byte	0x260b
 8053 25ff 37       		.uleb128 0x37
 8054 2600 01       		.byte	0x1
 8055 2601 51       		.byte	0x51
 8056 2602 01       		.byte	0x1
 8057 2603 34       		.byte	0x34
 8058 2604 37       		.uleb128 0x37
 8059 2605 01       		.byte	0x1
 8060 2606 50       		.byte	0x50
 8061 2607 02       		.byte	0x2
 8062 2608 76       		.byte	0x76
 8063 2609 00       		.sleb128 0
 8064 260a 00       		.byte	0
 8065 260b 4E       		.uleb128 0x4e
 8066 260c 30010000 		.4byte	.LVL302
 8067 2610 B0220000 		.4byte	0x22b0
 8068 2614 37       		.uleb128 0x37
 8069 2615 01       		.byte	0x1
 8070 2616 51       		.byte	0x51
 8071 2617 01       		.byte	0x1
 8072 2618 35       		.byte	0x35
 8073 2619 37       		.uleb128 0x37
 8074 261a 01       		.byte	0x1
 8075 261b 50       		.byte	0x50
 8076 261c 02       		.byte	0x2
 8077 261d 76       		.byte	0x76
 8078 261e 00       		.sleb128 0
 8079 261f 00       		.byte	0
 8080 2620 00       		.byte	0
 8081 2621 4F       		.uleb128 0x4f
 8082 2622 01       		.byte	0x1
 8083 2623 430D0000 		.4byte	.LASF323
 8084 2627 01       		.byte	0x1
 8085 2628 0F03     		.2byte	0x30f
 8086 262a 01       		.byte	0x1
 8087 262b 00000000 		.4byte	.LFB138
 8088 262f 16000000 		.4byte	.LFE138
 8089 2633 E6110000 		.4byte	.LLST126
 8090 2637 01       		.byte	0x1
 8091 2638 5E260000 		.4byte	0x265e
 8092 263c 50       		.uleb128 0x50
 8093 263d 0E000000 		.4byte	.LVL303
 8094 2641 0E240000 		.4byte	0x240e
 8095 2645 53260000 		.4byte	0x2653
 8096 2649 37       		.uleb128 0x37
 8097 264a 01       		.byte	0x1
 8098 264b 50       		.byte	0x50
 8099 264c 05       		.byte	0x5
 8100 264d 03       		.byte	0x3
 8101 264e 00000000 		.4byte	.LANCHOR2
 8102 2652 00       		.byte	0
 8103 2653 58       		.uleb128 0x58
 8104 2654 16000000 		.4byte	.LVL304
 8105 2658 01       		.byte	0x1
 8106 2659 34290000 		.4byte	0x2934
 8107 265d 00       		.byte	0
 8108 265e 4F       		.uleb128 0x4f
ARM GAS  C:\Users\Matuesz\AppData\Local\Temp\ccLA85Wr.s 			page 144


 8109 265f 01       		.byte	0x1
 8110 2660 14080000 		.4byte	.LASF324
 8111 2664 01       		.byte	0x1
 8112 2665 FC02     		.2byte	0x2fc
 8113 2667 01       		.byte	0x1
 8114 2668 00000000 		.4byte	.LFB137
 8115 266c 16000000 		.4byte	.LFE137
 8116 2670 06120000 		.4byte	.LLST127
 8117 2674 01       		.byte	0x1
 8118 2675 9B260000 		.4byte	0x269b
 8119 2679 50       		.uleb128 0x50
 8120 267a 0E000000 		.4byte	.LVL305
 8121 267e 0E240000 		.4byte	0x240e
 8122 2682 90260000 		.4byte	0x2690
 8123 2686 37       		.uleb128 0x37
 8124 2687 01       		.byte	0x1
 8125 2688 50       		.byte	0x50
 8126 2689 05       		.byte	0x5
 8127 268a 03       		.byte	0x3
 8128 268b 00000000 		.4byte	.LANCHOR0
 8129 268f 00       		.byte	0
 8130 2690 58       		.uleb128 0x58
 8131 2691 16000000 		.4byte	.LVL306
 8132 2695 01       		.byte	0x1
 8133 2696 34290000 		.4byte	0x2934
 8134 269a 00       		.byte	0
 8135 269b 53       		.uleb128 0x53
 8136 269c 01       		.byte	0x1
 8137 269d 54080000 		.4byte	.LASF325
 8138 26a1 01       		.byte	0x1
 8139 26a2 ED04     		.2byte	0x4ed
 8140 26a4 01       		.byte	0x1
 8141 26a5 00000000 		.4byte	.LFB151
 8142 26a9 10000000 		.4byte	.LFE151
 8143 26ad 02       		.byte	0x2
 8144 26ae 7D       		.byte	0x7d
 8145 26af 00       		.sleb128 0
 8146 26b0 01       		.byte	0x1
 8147 26b1 D5260000 		.4byte	0x26d5
 8148 26b5 33       		.uleb128 0x33
 8149 26b6 42060000 		.4byte	.LASF285
 8150 26ba 01       		.byte	0x1
 8151 26bb ED04     		.2byte	0x4ed
 8152 26bd 320A0000 		.4byte	0xa32
 8153 26c1 26120000 		.4byte	.LLST128
 8154 26c5 34       		.uleb128 0x34
 8155 26c6 657000   		.ascii	"ep\000"
 8156 26c9 01       		.byte	0x1
 8157 26ca ED04     		.2byte	0x4ed
 8158 26cc 02090000 		.4byte	0x902
 8159 26d0 47120000 		.4byte	.LLST129
 8160 26d4 00       		.byte	0
 8161 26d5 59       		.uleb128 0x59
 8162 26d6 3A150000 		.4byte	0x153a
 8163 26da 00000000 		.4byte	.LFB152
 8164 26de 22000000 		.4byte	.LFE152
 8165 26e2 02       		.byte	0x2
ARM GAS  C:\Users\Matuesz\AppData\Local\Temp\ccLA85Wr.s 			page 145


 8166 26e3 7D       		.byte	0x7d
 8167 26e4 00       		.sleb128 0
 8168 26e5 01       		.byte	0x1
 8169 26e6 FD260000 		.4byte	0x26fd
 8170 26ea 44       		.uleb128 0x44
 8171 26eb 49150000 		.4byte	0x1549
 8172 26ef 68120000 		.4byte	.LLST130
 8173 26f3 44       		.uleb128 0x44
 8174 26f4 55150000 		.4byte	0x1555
 8175 26f8 89120000 		.4byte	.LLST131
 8176 26fc 00       		.byte	0
 8177 26fd 53       		.uleb128 0x53
 8178 26fe 01       		.byte	0x1
 8179 26ff 07000000 		.4byte	.LASF326
 8180 2703 01       		.byte	0x1
 8181 2704 0805     		.2byte	0x508
 8182 2706 01       		.byte	0x1
 8183 2707 00000000 		.4byte	.LFB153
 8184 270b 10000000 		.4byte	.LFE153
 8185 270f 02       		.byte	0x2
 8186 2710 7D       		.byte	0x7d
 8187 2711 00       		.sleb128 0
 8188 2712 01       		.byte	0x1
 8189 2713 37270000 		.4byte	0x2737
 8190 2717 33       		.uleb128 0x33
 8191 2718 42060000 		.4byte	.LASF285
 8192 271c 01       		.byte	0x1
 8193 271d 0805     		.2byte	0x508
 8194 271f 320A0000 		.4byte	0xa32
 8195 2723 AA120000 		.4byte	.LLST132
 8196 2727 34       		.uleb128 0x34
 8197 2728 657000   		.ascii	"ep\000"
 8198 272b 01       		.byte	0x1
 8199 272c 0805     		.2byte	0x508
 8200 272e 02090000 		.4byte	0x902
 8201 2732 CB120000 		.4byte	.LLST133
 8202 2736 00       		.byte	0
 8203 2737 53       		.uleb128 0x53
 8204 2738 01       		.byte	0x1
 8205 2739 30080000 		.4byte	.LASF327
 8206 273d 01       		.byte	0x1
 8207 273e 1505     		.2byte	0x515
 8208 2740 01       		.byte	0x1
 8209 2741 00000000 		.4byte	.LFB154
 8210 2745 10000000 		.4byte	.LFE154
 8211 2749 02       		.byte	0x2
 8212 274a 7D       		.byte	0x7d
 8213 274b 00       		.sleb128 0
 8214 274c 01       		.byte	0x1
 8215 274d 71270000 		.4byte	0x2771
 8216 2751 33       		.uleb128 0x33
 8217 2752 42060000 		.4byte	.LASF285
 8218 2756 01       		.byte	0x1
 8219 2757 1505     		.2byte	0x515
 8220 2759 320A0000 		.4byte	0xa32
 8221 275d EC120000 		.4byte	.LLST134
 8222 2761 34       		.uleb128 0x34
ARM GAS  C:\Users\Matuesz\AppData\Local\Temp\ccLA85Wr.s 			page 146


 8223 2762 657000   		.ascii	"ep\000"
 8224 2765 01       		.byte	0x1
 8225 2766 1505     		.2byte	0x515
 8226 2768 02090000 		.4byte	0x902
 8227 276c 0D130000 		.4byte	.LLST135
 8228 2770 00       		.byte	0
 8229 2771 53       		.uleb128 0x53
 8230 2772 01       		.byte	0x1
 8231 2773 B0000000 		.4byte	.LASF328
 8232 2777 01       		.byte	0x1
 8233 2778 2205     		.2byte	0x522
 8234 277a 01       		.byte	0x1
 8235 277b 00000000 		.4byte	.LFB155
 8236 277f 10000000 		.4byte	.LFE155
 8237 2783 02       		.byte	0x2
 8238 2784 7D       		.byte	0x7d
 8239 2785 00       		.sleb128 0
 8240 2786 01       		.byte	0x1
 8241 2787 AB270000 		.4byte	0x27ab
 8242 278b 33       		.uleb128 0x33
 8243 278c 42060000 		.4byte	.LASF285
 8244 2790 01       		.byte	0x1
 8245 2791 2205     		.2byte	0x522
 8246 2793 320A0000 		.4byte	0xa32
 8247 2797 2E130000 		.4byte	.LLST136
 8248 279b 34       		.uleb128 0x34
 8249 279c 657000   		.ascii	"ep\000"
 8250 279f 01       		.byte	0x1
 8251 27a0 2205     		.2byte	0x522
 8252 27a2 02090000 		.4byte	0x902
 8253 27a6 4F130000 		.4byte	.LLST137
 8254 27aa 00       		.byte	0
 8255 27ab 53       		.uleb128 0x53
 8256 27ac 01       		.byte	0x1
 8257 27ad 210D0000 		.4byte	.LASF329
 8258 27b1 01       		.byte	0x1
 8259 27b2 2F05     		.2byte	0x52f
 8260 27b4 01       		.byte	0x1
 8261 27b5 00000000 		.4byte	.LFB156
 8262 27b9 10000000 		.4byte	.LFE156
 8263 27bd 02       		.byte	0x2
 8264 27be 7D       		.byte	0x7d
 8265 27bf 00       		.sleb128 0
 8266 27c0 01       		.byte	0x1
 8267 27c1 E5270000 		.4byte	0x27e5
 8268 27c5 33       		.uleb128 0x33
 8269 27c6 42060000 		.4byte	.LASF285
 8270 27ca 01       		.byte	0x1
 8271 27cb 2F05     		.2byte	0x52f
 8272 27cd 320A0000 		.4byte	0xa32
 8273 27d1 70130000 		.4byte	.LLST138
 8274 27d5 34       		.uleb128 0x34
 8275 27d6 657000   		.ascii	"ep\000"
 8276 27d9 01       		.byte	0x1
 8277 27da 2F05     		.2byte	0x52f
 8278 27dc 02090000 		.4byte	0x902
 8279 27e0 91130000 		.4byte	.LLST139
ARM GAS  C:\Users\Matuesz\AppData\Local\Temp\ccLA85Wr.s 			page 147


 8280 27e4 00       		.byte	0
 8281 27e5 30       		.uleb128 0x30
 8282 27e6 0C030000 		.4byte	.LASF330
 8283 27ea 01       		.byte	0x1
 8284 27eb 48       		.byte	0x48
 8285 27ec B7130000 		.4byte	0x13b7
 8286 27f0 05       		.byte	0x5
 8287 27f1 03       		.byte	0x3
 8288 27f2 00000000 		.4byte	ep0_state
 8289 27f6 30       		.uleb128 0x30
 8290 27f7 E9000000 		.4byte	.LASF331
 8291 27fb 01       		.byte	0x1
 8292 27fc 4D       		.byte	0x4d
 8293 27fd 86130000 		.4byte	0x1386
 8294 2801 05       		.byte	0x5
 8295 2802 03       		.byte	0x3
 8296 2803 00000000 		.4byte	ep0setup_buffer
 8297 2807 30       		.uleb128 0x30
 8298 2808 A7080000 		.4byte	.LASF332
 8299 280c 01       		.byte	0x1
 8300 280d 52       		.byte	0x52
 8301 280e 71130000 		.4byte	0x1371
 8302 2812 05       		.byte	0x5
 8303 2813 03       		.byte	0x3
 8304 2814 00000000 		.4byte	ep0config
 8305 2818 30       		.uleb128 0x30
 8306 2819 7D060000 		.4byte	.LASF333
 8307 281d 01       		.byte	0x1
 8308 281e 60       		.byte	0x60
 8309 281f A2130000 		.4byte	0x13a2
 8310 2823 05       		.byte	0x5
 8311 2824 03       		.byte	0x3
 8312 2825 00000000 		.4byte	fsparams
 8313 2829 30       		.uleb128 0x30
 8314 282a C20A0000 		.4byte	.LASF334
 8315 282e 01       		.byte	0x1
 8316 282f 68       		.byte	0x68
 8317 2830 A2130000 		.4byte	0x13a2
 8318 2834 05       		.byte	0x5
 8319 2835 03       		.byte	0x3
 8320 2836 00000000 		.4byte	hsparams
 8321 283a 5A       		.uleb128 0x5a
 8322 283b 5F0B0000 		.4byte	.LASF335
 8323 283f 09       		.byte	0x9
 8324 2840 6F       		.byte	0x6f
 8325 2841 EC030000 		.4byte	0x3ec
 8326 2845 01       		.byte	0x1
 8327 2846 01       		.byte	0x1
 8328 2847 5B       		.uleb128 0x5b
 8329 2848 82070000 		.4byte	.LASF336
 8330 284c 11       		.byte	0x11
 8331 284d 9806     		.2byte	0x698
 8332 284f 8D050000 		.4byte	0x58d
 8333 2853 01       		.byte	0x1
 8334 2854 01       		.byte	0x1
 8335 2855 5C       		.uleb128 0x5c
 8336 2856 4D0D0000 		.4byte	.LASF337
ARM GAS  C:\Users\Matuesz\AppData\Local\Temp\ccLA85Wr.s 			page 148


 8337 285a 01       		.byte	0x1
 8338 285b 2E       		.byte	0x2e
 8339 285c 9D070000 		.4byte	0x79d
 8340 2860 01       		.byte	0x1
 8341 2861 05       		.byte	0x5
 8342 2862 03       		.byte	0x3
 8343 2863 00000000 		.4byte	USBD1
 8344 2867 5C       		.uleb128 0x5c
 8345 2868 530D0000 		.4byte	.LASF338
 8346 286c 01       		.byte	0x1
 8347 286d 33       		.byte	0x33
 8348 286e 9D070000 		.4byte	0x79d
 8349 2872 01       		.byte	0x1
 8350 2873 05       		.byte	0x5
 8351 2874 03       		.byte	0x3
 8352 2875 00000000 		.4byte	USBD2
 8353 2879 5D       		.uleb128 0x5d
 8354 287a 01       		.byte	0x1
 8355 287b 66080000 		.4byte	.LASF340
 8356 287f 12       		.byte	0x12
 8357 2880 D3       		.byte	0xd3
 8358 2881 01       		.byte	0x1
 8359 2882 01       		.byte	0x1
 8360 2883 8D280000 		.4byte	0x288d
 8361 2887 12       		.uleb128 0x12
 8362 2888 8B070000 		.4byte	0x78b
 8363 288c 00       		.byte	0
 8364 288d 5E       		.uleb128 0x5e
 8365 288e 01       		.byte	0x1
 8366 288f A4000000 		.4byte	.LASF343
 8367 2893 09       		.byte	0x9
 8368 2894 90       		.byte	0x90
 8369 2895 01       		.byte	0x1
 8370 2896 8B020000 		.4byte	0x28b
 8371 289a 01       		.byte	0x1
 8372 289b A5280000 		.4byte	0x28a5
 8373 289f 12       		.uleb128 0x12
 8374 28a0 8B020000 		.4byte	0x28b
 8375 28a4 00       		.byte	0
 8376 28a5 5F       		.uleb128 0x5f
 8377 28a6 01       		.byte	0x1
 8378 28a7 110C0000 		.4byte	.LASF347
 8379 28ab 09       		.byte	0x9
 8380 28ac 9C       		.byte	0x9c
 8381 28ad 01       		.byte	0x1
 8382 28ae 01       		.byte	0x1
 8383 28af 5D       		.uleb128 0x5d
 8384 28b0 01       		.byte	0x1
 8385 28b1 86050000 		.4byte	.LASF341
 8386 28b5 09       		.byte	0x9
 8387 28b6 93       		.byte	0x93
 8388 28b7 01       		.byte	0x1
 8389 28b8 01       		.byte	0x1
 8390 28b9 C3280000 		.4byte	0x28c3
 8391 28bd 12       		.uleb128 0x12
 8392 28be E9000000 		.4byte	0xe9
 8393 28c2 00       		.byte	0
ARM GAS  C:\Users\Matuesz\AppData\Local\Temp\ccLA85Wr.s 			page 149


 8394 28c3 60       		.uleb128 0x60
 8395 28c4 01       		.byte	0x1
 8396 28c5 80020000 		.4byte	.LASF342
 8397 28c9 0E       		.byte	0xe
 8398 28ca 2A02     		.2byte	0x22a
 8399 28cc 01       		.byte	0x1
 8400 28cd 01       		.byte	0x1
 8401 28ce D8280000 		.4byte	0x28d8
 8402 28d2 12       		.uleb128 0x12
 8403 28d3 320A0000 		.4byte	0xa32
 8404 28d7 00       		.byte	0
 8405 28d8 61       		.uleb128 0x61
 8406 28d9 01       		.byte	0x1
 8407 28da CB0A0000 		.4byte	.LASF344
 8408 28de 07       		.byte	0x7
 8409 28df 6E01     		.2byte	0x16e
 8410 28e1 01       		.byte	0x1
 8411 28e2 8B020000 		.4byte	0x28b
 8412 28e6 01       		.byte	0x1
 8413 28e7 05290000 		.4byte	0x2905
 8414 28eb 12       		.uleb128 0x12
 8415 28ec 6F000000 		.4byte	0x6f
 8416 28f0 12       		.uleb128 0x12
 8417 28f1 8A000000 		.4byte	0x8a
 8418 28f5 12       		.uleb128 0x12
 8419 28f6 0A010000 		.4byte	0x10a
 8420 28fa 12       		.uleb128 0x12
 8421 28fb 7A040000 		.4byte	0x47a
 8422 28ff 12       		.uleb128 0x12
 8423 2900 6F000000 		.4byte	0x6f
 8424 2904 00       		.byte	0
 8425 2905 60       		.uleb128 0x60
 8426 2906 01       		.byte	0x1
 8427 2907 A2060000 		.4byte	.LASF345
 8428 290b 13       		.byte	0x13
 8429 290c 2301     		.2byte	0x123
 8430 290e 01       		.byte	0x1
 8431 290f 01       		.byte	0x1
 8432 2910 1F290000 		.4byte	0x291f
 8433 2914 12       		.uleb128 0x12
 8434 2915 B6000000 		.4byte	0xb6
 8435 2919 12       		.uleb128 0x12
 8436 291a B6000000 		.4byte	0xb6
 8437 291e 00       		.byte	0
 8438 291f 60       		.uleb128 0x60
 8439 2920 01       		.byte	0x1
 8440 2921 16030000 		.4byte	.LASF346
 8441 2925 0E       		.byte	0xe
 8442 2926 3D02     		.2byte	0x23d
 8443 2928 01       		.byte	0x1
 8444 2929 01       		.byte	0x1
 8445 292a 34290000 		.4byte	0x2934
 8446 292e 12       		.uleb128 0x12
 8447 292f 320A0000 		.4byte	0xa32
 8448 2933 00       		.byte	0
 8449 2934 62       		.uleb128 0x62
 8450 2935 01       		.byte	0x1
ARM GAS  C:\Users\Matuesz\AppData\Local\Temp\ccLA85Wr.s 			page 150


 8451 2936 7F080000 		.4byte	.LASF348
 8452 293a 08       		.byte	0x8
 8453 293b 0302     		.2byte	0x203
 8454 293d 01       		.byte	0x1
 8455 293e 01       		.byte	0x1
 8456 293f 00       		.byte	0
 8457              		.section	.debug_abbrev,"",%progbits
 8458              	.Ldebug_abbrev0:
 8459 0000 01       		.uleb128 0x1
 8460 0001 11       		.uleb128 0x11
 8461 0002 01       		.byte	0x1
 8462 0003 25       		.uleb128 0x25
 8463 0004 0E       		.uleb128 0xe
 8464 0005 13       		.uleb128 0x13
 8465 0006 0B       		.uleb128 0xb
 8466 0007 03       		.uleb128 0x3
 8467 0008 0E       		.uleb128 0xe
 8468 0009 1B       		.uleb128 0x1b
 8469 000a 0E       		.uleb128 0xe
 8470 000b 55       		.uleb128 0x55
 8471 000c 06       		.uleb128 0x6
 8472 000d 11       		.uleb128 0x11
 8473 000e 01       		.uleb128 0x1
 8474 000f 52       		.uleb128 0x52
 8475 0010 01       		.uleb128 0x1
 8476 0011 10       		.uleb128 0x10
 8477 0012 06       		.uleb128 0x6
 8478 0013 00       		.byte	0
 8479 0014 00       		.byte	0
 8480 0015 02       		.uleb128 0x2
 8481 0016 24       		.uleb128 0x24
 8482 0017 00       		.byte	0
 8483 0018 0B       		.uleb128 0xb
 8484 0019 0B       		.uleb128 0xb
 8485 001a 3E       		.uleb128 0x3e
 8486 001b 0B       		.uleb128 0xb
 8487 001c 03       		.uleb128 0x3
 8488 001d 0E       		.uleb128 0xe
 8489 001e 00       		.byte	0
 8490 001f 00       		.byte	0
 8491 0020 03       		.uleb128 0x3
 8492 0021 24       		.uleb128 0x24
 8493 0022 00       		.byte	0
 8494 0023 0B       		.uleb128 0xb
 8495 0024 0B       		.uleb128 0xb
 8496 0025 3E       		.uleb128 0x3e
 8497 0026 0B       		.uleb128 0xb
 8498 0027 03       		.uleb128 0x3
 8499 0028 08       		.uleb128 0x8
 8500 0029 00       		.byte	0
 8501 002a 00       		.byte	0
 8502 002b 04       		.uleb128 0x4
 8503 002c 0F       		.uleb128 0xf
 8504 002d 00       		.byte	0
 8505 002e 0B       		.uleb128 0xb
 8506 002f 0B       		.uleb128 0xb
 8507 0030 00       		.byte	0
ARM GAS  C:\Users\Matuesz\AppData\Local\Temp\ccLA85Wr.s 			page 151


 8508 0031 00       		.byte	0
 8509 0032 05       		.uleb128 0x5
 8510 0033 0F       		.uleb128 0xf
 8511 0034 00       		.byte	0
 8512 0035 0B       		.uleb128 0xb
 8513 0036 0B       		.uleb128 0xb
 8514 0037 49       		.uleb128 0x49
 8515 0038 13       		.uleb128 0x13
 8516 0039 00       		.byte	0
 8517 003a 00       		.byte	0
 8518 003b 06       		.uleb128 0x6
 8519 003c 26       		.uleb128 0x26
 8520 003d 00       		.byte	0
 8521 003e 49       		.uleb128 0x49
 8522 003f 13       		.uleb128 0x13
 8523 0040 00       		.byte	0
 8524 0041 00       		.byte	0
 8525 0042 07       		.uleb128 0x7
 8526 0043 16       		.uleb128 0x16
 8527 0044 00       		.byte	0
 8528 0045 03       		.uleb128 0x3
 8529 0046 0E       		.uleb128 0xe
 8530 0047 3A       		.uleb128 0x3a
 8531 0048 0B       		.uleb128 0xb
 8532 0049 3B       		.uleb128 0x3b
 8533 004a 0B       		.uleb128 0xb
 8534 004b 49       		.uleb128 0x49
 8535 004c 13       		.uleb128 0x13
 8536 004d 00       		.byte	0
 8537 004e 00       		.byte	0
 8538 004f 08       		.uleb128 0x8
 8539 0050 13       		.uleb128 0x13
 8540 0051 01       		.byte	0x1
 8541 0052 03       		.uleb128 0x3
 8542 0053 0E       		.uleb128 0xe
 8543 0054 0B       		.uleb128 0xb
 8544 0055 0B       		.uleb128 0xb
 8545 0056 3A       		.uleb128 0x3a
 8546 0057 0B       		.uleb128 0xb
 8547 0058 3B       		.uleb128 0x3b
 8548 0059 0B       		.uleb128 0xb
 8549 005a 01       		.uleb128 0x1
 8550 005b 13       		.uleb128 0x13
 8551 005c 00       		.byte	0
 8552 005d 00       		.byte	0
 8553 005e 09       		.uleb128 0x9
 8554 005f 0D       		.uleb128 0xd
 8555 0060 00       		.byte	0
 8556 0061 03       		.uleb128 0x3
 8557 0062 0E       		.uleb128 0xe
 8558 0063 3A       		.uleb128 0x3a
 8559 0064 0B       		.uleb128 0xb
 8560 0065 3B       		.uleb128 0x3b
 8561 0066 0B       		.uleb128 0xb
 8562 0067 49       		.uleb128 0x49
 8563 0068 13       		.uleb128 0x13
 8564 0069 38       		.uleb128 0x38
ARM GAS  C:\Users\Matuesz\AppData\Local\Temp\ccLA85Wr.s 			page 152


 8565 006a 0A       		.uleb128 0xa
 8566 006b 00       		.byte	0
 8567 006c 00       		.byte	0
 8568 006d 0A       		.uleb128 0xa
 8569 006e 0D       		.uleb128 0xd
 8570 006f 00       		.byte	0
 8571 0070 03       		.uleb128 0x3
 8572 0071 08       		.uleb128 0x8
 8573 0072 3A       		.uleb128 0x3a
 8574 0073 0B       		.uleb128 0xb
 8575 0074 3B       		.uleb128 0x3b
 8576 0075 0B       		.uleb128 0xb
 8577 0076 49       		.uleb128 0x49
 8578 0077 13       		.uleb128 0x13
 8579 0078 38       		.uleb128 0x38
 8580 0079 0A       		.uleb128 0xa
 8581 007a 00       		.byte	0
 8582 007b 00       		.byte	0
 8583 007c 0B       		.uleb128 0xb
 8584 007d 13       		.uleb128 0x13
 8585 007e 01       		.byte	0x1
 8586 007f 0B       		.uleb128 0xb
 8587 0080 0B       		.uleb128 0xb
 8588 0081 3A       		.uleb128 0x3a
 8589 0082 0B       		.uleb128 0xb
 8590 0083 3B       		.uleb128 0x3b
 8591 0084 0B       		.uleb128 0xb
 8592 0085 01       		.uleb128 0x1
 8593 0086 13       		.uleb128 0x13
 8594 0087 00       		.byte	0
 8595 0088 00       		.byte	0
 8596 0089 0C       		.uleb128 0xc
 8597 008a 13       		.uleb128 0x13
 8598 008b 01       		.byte	0x1
 8599 008c 03       		.uleb128 0x3
 8600 008d 0E       		.uleb128 0xe
 8601 008e 0B       		.uleb128 0xb
 8602 008f 0B       		.uleb128 0xb
 8603 0090 3A       		.uleb128 0x3a
 8604 0091 0B       		.uleb128 0xb
 8605 0092 3B       		.uleb128 0x3b
 8606 0093 05       		.uleb128 0x5
 8607 0094 01       		.uleb128 0x1
 8608 0095 13       		.uleb128 0x13
 8609 0096 00       		.byte	0
 8610 0097 00       		.byte	0
 8611 0098 0D       		.uleb128 0xd
 8612 0099 0D       		.uleb128 0xd
 8613 009a 00       		.byte	0
 8614 009b 03       		.uleb128 0x3
 8615 009c 08       		.uleb128 0x8
 8616 009d 3A       		.uleb128 0x3a
 8617 009e 0B       		.uleb128 0xb
 8618 009f 3B       		.uleb128 0x3b
 8619 00a0 05       		.uleb128 0x5
 8620 00a1 49       		.uleb128 0x49
 8621 00a2 13       		.uleb128 0x13
ARM GAS  C:\Users\Matuesz\AppData\Local\Temp\ccLA85Wr.s 			page 153


 8622 00a3 38       		.uleb128 0x38
 8623 00a4 0A       		.uleb128 0xa
 8624 00a5 00       		.byte	0
 8625 00a6 00       		.byte	0
 8626 00a7 0E       		.uleb128 0xe
 8627 00a8 35       		.uleb128 0x35
 8628 00a9 00       		.byte	0
 8629 00aa 49       		.uleb128 0x49
 8630 00ab 13       		.uleb128 0x13
 8631 00ac 00       		.byte	0
 8632 00ad 00       		.byte	0
 8633 00ae 0F       		.uleb128 0xf
 8634 00af 17       		.uleb128 0x17
 8635 00b0 01       		.byte	0x1
 8636 00b1 0B       		.uleb128 0xb
 8637 00b2 0B       		.uleb128 0xb
 8638 00b3 3A       		.uleb128 0x3a
 8639 00b4 0B       		.uleb128 0xb
 8640 00b5 3B       		.uleb128 0x3b
 8641 00b6 0B       		.uleb128 0xb
 8642 00b7 01       		.uleb128 0x1
 8643 00b8 13       		.uleb128 0x13
 8644 00b9 00       		.byte	0
 8645 00ba 00       		.byte	0
 8646 00bb 10       		.uleb128 0x10
 8647 00bc 0D       		.uleb128 0xd
 8648 00bd 00       		.byte	0
 8649 00be 03       		.uleb128 0x3
 8650 00bf 0E       		.uleb128 0xe
 8651 00c0 3A       		.uleb128 0x3a
 8652 00c1 0B       		.uleb128 0xb
 8653 00c2 3B       		.uleb128 0x3b
 8654 00c3 0B       		.uleb128 0xb
 8655 00c4 49       		.uleb128 0x49
 8656 00c5 13       		.uleb128 0x13
 8657 00c6 00       		.byte	0
 8658 00c7 00       		.byte	0
 8659 00c8 11       		.uleb128 0x11
 8660 00c9 15       		.uleb128 0x15
 8661 00ca 01       		.byte	0x1
 8662 00cb 27       		.uleb128 0x27
 8663 00cc 0C       		.uleb128 0xc
 8664 00cd 49       		.uleb128 0x49
 8665 00ce 13       		.uleb128 0x13
 8666 00cf 01       		.uleb128 0x1
 8667 00d0 13       		.uleb128 0x13
 8668 00d1 00       		.byte	0
 8669 00d2 00       		.byte	0
 8670 00d3 12       		.uleb128 0x12
 8671 00d4 05       		.uleb128 0x5
 8672 00d5 00       		.byte	0
 8673 00d6 49       		.uleb128 0x49
 8674 00d7 13       		.uleb128 0x13
 8675 00d8 00       		.byte	0
 8676 00d9 00       		.byte	0
 8677 00da 13       		.uleb128 0x13
 8678 00db 15       		.uleb128 0x15
ARM GAS  C:\Users\Matuesz\AppData\Local\Temp\ccLA85Wr.s 			page 154


 8679 00dc 01       		.byte	0x1
 8680 00dd 27       		.uleb128 0x27
 8681 00de 0C       		.uleb128 0xc
 8682 00df 01       		.uleb128 0x1
 8683 00e0 13       		.uleb128 0x13
 8684 00e1 00       		.byte	0
 8685 00e2 00       		.byte	0
 8686 00e3 14       		.uleb128 0x14
 8687 00e4 01       		.uleb128 0x1
 8688 00e5 01       		.byte	0x1
 8689 00e6 49       		.uleb128 0x49
 8690 00e7 13       		.uleb128 0x13
 8691 00e8 01       		.uleb128 0x1
 8692 00e9 13       		.uleb128 0x13
 8693 00ea 00       		.byte	0
 8694 00eb 00       		.byte	0
 8695 00ec 15       		.uleb128 0x15
 8696 00ed 21       		.uleb128 0x21
 8697 00ee 00       		.byte	0
 8698 00ef 49       		.uleb128 0x49
 8699 00f0 13       		.uleb128 0x13
 8700 00f1 2F       		.uleb128 0x2f
 8701 00f2 0B       		.uleb128 0xb
 8702 00f3 00       		.byte	0
 8703 00f4 00       		.byte	0
 8704 00f5 16       		.uleb128 0x16
 8705 00f6 13       		.uleb128 0x13
 8706 00f7 01       		.byte	0x1
 8707 00f8 0B       		.uleb128 0xb
 8708 00f9 0B       		.uleb128 0xb
 8709 00fa 3A       		.uleb128 0x3a
 8710 00fb 0B       		.uleb128 0xb
 8711 00fc 3B       		.uleb128 0x3b
 8712 00fd 05       		.uleb128 0x5
 8713 00fe 01       		.uleb128 0x1
 8714 00ff 13       		.uleb128 0x13
 8715 0100 00       		.byte	0
 8716 0101 00       		.byte	0
 8717 0102 17       		.uleb128 0x17
 8718 0103 0D       		.uleb128 0xd
 8719 0104 00       		.byte	0
 8720 0105 03       		.uleb128 0x3
 8721 0106 0E       		.uleb128 0xe
 8722 0107 3A       		.uleb128 0x3a
 8723 0108 0B       		.uleb128 0xb
 8724 0109 3B       		.uleb128 0x3b
 8725 010a 05       		.uleb128 0x5
 8726 010b 49       		.uleb128 0x49
 8727 010c 13       		.uleb128 0x13
 8728 010d 38       		.uleb128 0x38
 8729 010e 0A       		.uleb128 0xa
 8730 010f 00       		.byte	0
 8731 0110 00       		.byte	0
 8732 0111 18       		.uleb128 0x18
 8733 0112 16       		.uleb128 0x16
 8734 0113 00       		.byte	0
 8735 0114 03       		.uleb128 0x3
ARM GAS  C:\Users\Matuesz\AppData\Local\Temp\ccLA85Wr.s 			page 155


 8736 0115 0E       		.uleb128 0xe
 8737 0116 3A       		.uleb128 0x3a
 8738 0117 0B       		.uleb128 0xb
 8739 0118 3B       		.uleb128 0x3b
 8740 0119 05       		.uleb128 0x5
 8741 011a 49       		.uleb128 0x49
 8742 011b 13       		.uleb128 0x13
 8743 011c 00       		.byte	0
 8744 011d 00       		.byte	0
 8745 011e 19       		.uleb128 0x19
 8746 011f 13       		.uleb128 0x13
 8747 0120 01       		.byte	0x1
 8748 0121 03       		.uleb128 0x3
 8749 0122 0E       		.uleb128 0xe
 8750 0123 0B       		.uleb128 0xb
 8751 0124 05       		.uleb128 0x5
 8752 0125 3A       		.uleb128 0x3a
 8753 0126 0B       		.uleb128 0xb
 8754 0127 3B       		.uleb128 0x3b
 8755 0128 05       		.uleb128 0x5
 8756 0129 01       		.uleb128 0x1
 8757 012a 13       		.uleb128 0x13
 8758 012b 00       		.byte	0
 8759 012c 00       		.byte	0
 8760 012d 1A       		.uleb128 0x1a
 8761 012e 04       		.uleb128 0x4
 8762 012f 01       		.byte	0x1
 8763 0130 0B       		.uleb128 0xb
 8764 0131 0B       		.uleb128 0xb
 8765 0132 3A       		.uleb128 0x3a
 8766 0133 0B       		.uleb128 0xb
 8767 0134 3B       		.uleb128 0x3b
 8768 0135 0B       		.uleb128 0xb
 8769 0136 01       		.uleb128 0x1
 8770 0137 13       		.uleb128 0x13
 8771 0138 00       		.byte	0
 8772 0139 00       		.byte	0
 8773 013a 1B       		.uleb128 0x1b
 8774 013b 28       		.uleb128 0x28
 8775 013c 00       		.byte	0
 8776 013d 03       		.uleb128 0x3
 8777 013e 0E       		.uleb128 0xe
 8778 013f 1C       		.uleb128 0x1c
 8779 0140 0D       		.uleb128 0xd
 8780 0141 00       		.byte	0
 8781 0142 00       		.byte	0
 8782 0143 1C       		.uleb128 0x1c
 8783 0144 04       		.uleb128 0x4
 8784 0145 01       		.byte	0x1
 8785 0146 0B       		.uleb128 0xb
 8786 0147 0B       		.uleb128 0xb
 8787 0148 3A       		.uleb128 0x3a
 8788 0149 0B       		.uleb128 0xb
 8789 014a 3B       		.uleb128 0x3b
 8790 014b 05       		.uleb128 0x5
 8791 014c 01       		.uleb128 0x1
 8792 014d 13       		.uleb128 0x13
ARM GAS  C:\Users\Matuesz\AppData\Local\Temp\ccLA85Wr.s 			page 156


 8793 014e 00       		.byte	0
 8794 014f 00       		.byte	0
 8795 0150 1D       		.uleb128 0x1d
 8796 0151 13       		.uleb128 0x13
 8797 0152 01       		.byte	0x1
 8798 0153 0B       		.uleb128 0xb
 8799 0154 06       		.uleb128 0x6
 8800 0155 3A       		.uleb128 0x3a
 8801 0156 0B       		.uleb128 0xb
 8802 0157 3B       		.uleb128 0x3b
 8803 0158 0B       		.uleb128 0xb
 8804 0159 01       		.uleb128 0x1
 8805 015a 13       		.uleb128 0x13
 8806 015b 00       		.byte	0
 8807 015c 00       		.byte	0
 8808 015d 1E       		.uleb128 0x1e
 8809 015e 21       		.uleb128 0x21
 8810 015f 00       		.byte	0
 8811 0160 49       		.uleb128 0x49
 8812 0161 13       		.uleb128 0x13
 8813 0162 2F       		.uleb128 0x2f
 8814 0163 05       		.uleb128 0x5
 8815 0164 00       		.byte	0
 8816 0165 00       		.byte	0
 8817 0166 1F       		.uleb128 0x1f
 8818 0167 0D       		.uleb128 0xd
 8819 0168 00       		.byte	0
 8820 0169 03       		.uleb128 0x3
 8821 016a 0E       		.uleb128 0xe
 8822 016b 3A       		.uleb128 0x3a
 8823 016c 0B       		.uleb128 0xb
 8824 016d 3B       		.uleb128 0x3b
 8825 016e 05       		.uleb128 0x5
 8826 016f 49       		.uleb128 0x49
 8827 0170 13       		.uleb128 0x13
 8828 0171 00       		.byte	0
 8829 0172 00       		.byte	0
 8830 0173 20       		.uleb128 0x20
 8831 0174 0D       		.uleb128 0xd
 8832 0175 00       		.byte	0
 8833 0176 03       		.uleb128 0x3
 8834 0177 08       		.uleb128 0x8
 8835 0178 3A       		.uleb128 0x3a
 8836 0179 0B       		.uleb128 0xb
 8837 017a 3B       		.uleb128 0x3b
 8838 017b 0B       		.uleb128 0xb
 8839 017c 49       		.uleb128 0x49
 8840 017d 13       		.uleb128 0x13
 8841 017e 00       		.byte	0
 8842 017f 00       		.byte	0
 8843 0180 21       		.uleb128 0x21
 8844 0181 2E       		.uleb128 0x2e
 8845 0182 01       		.byte	0x1
 8846 0183 03       		.uleb128 0x3
 8847 0184 0E       		.uleb128 0xe
 8848 0185 3A       		.uleb128 0x3a
 8849 0186 0B       		.uleb128 0xb
ARM GAS  C:\Users\Matuesz\AppData\Local\Temp\ccLA85Wr.s 			page 157


 8850 0187 3B       		.uleb128 0x3b
 8851 0188 0B       		.uleb128 0xb
 8852 0189 27       		.uleb128 0x27
 8853 018a 0C       		.uleb128 0xc
 8854 018b 49       		.uleb128 0x49
 8855 018c 13       		.uleb128 0x13
 8856 018d 20       		.uleb128 0x20
 8857 018e 0B       		.uleb128 0xb
 8858 018f 01       		.uleb128 0x1
 8859 0190 13       		.uleb128 0x13
 8860 0191 00       		.byte	0
 8861 0192 00       		.byte	0
 8862 0193 22       		.uleb128 0x22
 8863 0194 05       		.uleb128 0x5
 8864 0195 00       		.byte	0
 8865 0196 03       		.uleb128 0x3
 8866 0197 0E       		.uleb128 0xe
 8867 0198 3A       		.uleb128 0x3a
 8868 0199 0B       		.uleb128 0xb
 8869 019a 3B       		.uleb128 0x3b
 8870 019b 0B       		.uleb128 0xb
 8871 019c 49       		.uleb128 0x49
 8872 019d 13       		.uleb128 0x13
 8873 019e 00       		.byte	0
 8874 019f 00       		.byte	0
 8875 01a0 23       		.uleb128 0x23
 8876 01a1 05       		.uleb128 0x5
 8877 01a2 00       		.byte	0
 8878 01a3 03       		.uleb128 0x3
 8879 01a4 08       		.uleb128 0x8
 8880 01a5 3A       		.uleb128 0x3a
 8881 01a6 0B       		.uleb128 0xb
 8882 01a7 3B       		.uleb128 0x3b
 8883 01a8 0B       		.uleb128 0xb
 8884 01a9 49       		.uleb128 0x49
 8885 01aa 13       		.uleb128 0x13
 8886 01ab 00       		.byte	0
 8887 01ac 00       		.byte	0
 8888 01ad 24       		.uleb128 0x24
 8889 01ae 2E       		.uleb128 0x2e
 8890 01af 01       		.byte	0x1
 8891 01b0 03       		.uleb128 0x3
 8892 01b1 0E       		.uleb128 0xe
 8893 01b2 3A       		.uleb128 0x3a
 8894 01b3 0B       		.uleb128 0xb
 8895 01b4 3B       		.uleb128 0x3b
 8896 01b5 05       		.uleb128 0x5
 8897 01b6 27       		.uleb128 0x27
 8898 01b7 0C       		.uleb128 0xc
 8899 01b8 49       		.uleb128 0x49
 8900 01b9 13       		.uleb128 0x13
 8901 01ba 20       		.uleb128 0x20
 8902 01bb 0B       		.uleb128 0xb
 8903 01bc 01       		.uleb128 0x1
 8904 01bd 13       		.uleb128 0x13
 8905 01be 00       		.byte	0
 8906 01bf 00       		.byte	0
ARM GAS  C:\Users\Matuesz\AppData\Local\Temp\ccLA85Wr.s 			page 158


 8907 01c0 25       		.uleb128 0x25
 8908 01c1 05       		.uleb128 0x5
 8909 01c2 00       		.byte	0
 8910 01c3 03       		.uleb128 0x3
 8911 01c4 0E       		.uleb128 0xe
 8912 01c5 3A       		.uleb128 0x3a
 8913 01c6 0B       		.uleb128 0xb
 8914 01c7 3B       		.uleb128 0x3b
 8915 01c8 05       		.uleb128 0x5
 8916 01c9 49       		.uleb128 0x49
 8917 01ca 13       		.uleb128 0x13
 8918 01cb 00       		.byte	0
 8919 01cc 00       		.byte	0
 8920 01cd 26       		.uleb128 0x26
 8921 01ce 05       		.uleb128 0x5
 8922 01cf 00       		.byte	0
 8923 01d0 03       		.uleb128 0x3
 8924 01d1 08       		.uleb128 0x8
 8925 01d2 3A       		.uleb128 0x3a
 8926 01d3 0B       		.uleb128 0xb
 8927 01d4 3B       		.uleb128 0x3b
 8928 01d5 05       		.uleb128 0x5
 8929 01d6 49       		.uleb128 0x49
 8930 01d7 13       		.uleb128 0x13
 8931 01d8 00       		.byte	0
 8932 01d9 00       		.byte	0
 8933 01da 27       		.uleb128 0x27
 8934 01db 0B       		.uleb128 0xb
 8935 01dc 01       		.byte	0x1
 8936 01dd 00       		.byte	0
 8937 01de 00       		.byte	0
 8938 01df 28       		.uleb128 0x28
 8939 01e0 34       		.uleb128 0x34
 8940 01e1 00       		.byte	0
 8941 01e2 03       		.uleb128 0x3
 8942 01e3 08       		.uleb128 0x8
 8943 01e4 3A       		.uleb128 0x3a
 8944 01e5 0B       		.uleb128 0xb
 8945 01e6 3B       		.uleb128 0x3b
 8946 01e7 05       		.uleb128 0x5
 8947 01e8 49       		.uleb128 0x49
 8948 01e9 13       		.uleb128 0x13
 8949 01ea 00       		.byte	0
 8950 01eb 00       		.byte	0
 8951 01ec 29       		.uleb128 0x29
 8952 01ed 34       		.uleb128 0x34
 8953 01ee 00       		.byte	0
 8954 01ef 03       		.uleb128 0x3
 8955 01f0 08       		.uleb128 0x8
 8956 01f1 3A       		.uleb128 0x3a
 8957 01f2 0B       		.uleb128 0xb
 8958 01f3 3B       		.uleb128 0x3b
 8959 01f4 0B       		.uleb128 0xb
 8960 01f5 49       		.uleb128 0x49
 8961 01f6 13       		.uleb128 0x13
 8962 01f7 00       		.byte	0
 8963 01f8 00       		.byte	0
ARM GAS  C:\Users\Matuesz\AppData\Local\Temp\ccLA85Wr.s 			page 159


 8964 01f9 2A       		.uleb128 0x2a
 8965 01fa 2E       		.uleb128 0x2e
 8966 01fb 01       		.byte	0x1
 8967 01fc 03       		.uleb128 0x3
 8968 01fd 0E       		.uleb128 0xe
 8969 01fe 3A       		.uleb128 0x3a
 8970 01ff 0B       		.uleb128 0xb
 8971 0200 3B       		.uleb128 0x3b
 8972 0201 05       		.uleb128 0x5
 8973 0202 27       		.uleb128 0x27
 8974 0203 0C       		.uleb128 0xc
 8975 0204 20       		.uleb128 0x20
 8976 0205 0B       		.uleb128 0xb
 8977 0206 01       		.uleb128 0x1
 8978 0207 13       		.uleb128 0x13
 8979 0208 00       		.byte	0
 8980 0209 00       		.byte	0
 8981 020a 2B       		.uleb128 0x2b
 8982 020b 2E       		.uleb128 0x2e
 8983 020c 01       		.byte	0x1
 8984 020d 03       		.uleb128 0x3
 8985 020e 0E       		.uleb128 0xe
 8986 020f 3A       		.uleb128 0x3a
 8987 0210 0B       		.uleb128 0xb
 8988 0211 3B       		.uleb128 0x3b
 8989 0212 0B       		.uleb128 0xb
 8990 0213 27       		.uleb128 0x27
 8991 0214 0C       		.uleb128 0xc
 8992 0215 20       		.uleb128 0x20
 8993 0216 0B       		.uleb128 0xb
 8994 0217 01       		.uleb128 0x1
 8995 0218 13       		.uleb128 0x13
 8996 0219 00       		.byte	0
 8997 021a 00       		.byte	0
 8998 021b 2C       		.uleb128 0x2c
 8999 021c 34       		.uleb128 0x34
 9000 021d 00       		.byte	0
 9001 021e 03       		.uleb128 0x3
 9002 021f 0E       		.uleb128 0xe
 9003 0220 3A       		.uleb128 0x3a
 9004 0221 0B       		.uleb128 0xb
 9005 0222 3B       		.uleb128 0x3b
 9006 0223 0B       		.uleb128 0xb
 9007 0224 49       		.uleb128 0x49
 9008 0225 13       		.uleb128 0x13
 9009 0226 00       		.byte	0
 9010 0227 00       		.byte	0
 9011 0228 2D       		.uleb128 0x2d
 9012 0229 2E       		.uleb128 0x2e
 9013 022a 01       		.byte	0x1
 9014 022b 3F       		.uleb128 0x3f
 9015 022c 0C       		.uleb128 0xc
 9016 022d 03       		.uleb128 0x3
 9017 022e 0E       		.uleb128 0xe
 9018 022f 3A       		.uleb128 0x3a
 9019 0230 0B       		.uleb128 0xb
 9020 0231 3B       		.uleb128 0x3b
ARM GAS  C:\Users\Matuesz\AppData\Local\Temp\ccLA85Wr.s 			page 160


 9021 0232 05       		.uleb128 0x5
 9022 0233 27       		.uleb128 0x27
 9023 0234 0C       		.uleb128 0xc
 9024 0235 20       		.uleb128 0x20
 9025 0236 0B       		.uleb128 0xb
 9026 0237 01       		.uleb128 0x1
 9027 0238 13       		.uleb128 0x13
 9028 0239 00       		.byte	0
 9029 023a 00       		.byte	0
 9030 023b 2E       		.uleb128 0x2e
 9031 023c 2E       		.uleb128 0x2e
 9032 023d 01       		.byte	0x1
 9033 023e 03       		.uleb128 0x3
 9034 023f 0E       		.uleb128 0xe
 9035 0240 3A       		.uleb128 0x3a
 9036 0241 0B       		.uleb128 0xb
 9037 0242 3B       		.uleb128 0x3b
 9038 0243 0B       		.uleb128 0xb
 9039 0244 27       		.uleb128 0x27
 9040 0245 0C       		.uleb128 0xc
 9041 0246 11       		.uleb128 0x11
 9042 0247 01       		.uleb128 0x1
 9043 0248 12       		.uleb128 0x12
 9044 0249 01       		.uleb128 0x1
 9045 024a 40       		.uleb128 0x40
 9046 024b 06       		.uleb128 0x6
 9047 024c 9742     		.uleb128 0x2117
 9048 024e 0C       		.uleb128 0xc
 9049 024f 01       		.uleb128 0x1
 9050 0250 13       		.uleb128 0x13
 9051 0251 00       		.byte	0
 9052 0252 00       		.byte	0
 9053 0253 2F       		.uleb128 0x2f
 9054 0254 05       		.uleb128 0x5
 9055 0255 00       		.byte	0
 9056 0256 03       		.uleb128 0x3
 9057 0257 0E       		.uleb128 0xe
 9058 0258 3A       		.uleb128 0x3a
 9059 0259 0B       		.uleb128 0xb
 9060 025a 3B       		.uleb128 0x3b
 9061 025b 0B       		.uleb128 0xb
 9062 025c 49       		.uleb128 0x49
 9063 025d 13       		.uleb128 0x13
 9064 025e 02       		.uleb128 0x2
 9065 025f 06       		.uleb128 0x6
 9066 0260 00       		.byte	0
 9067 0261 00       		.byte	0
 9068 0262 30       		.uleb128 0x30
 9069 0263 34       		.uleb128 0x34
 9070 0264 00       		.byte	0
 9071 0265 03       		.uleb128 0x3
 9072 0266 0E       		.uleb128 0xe
 9073 0267 3A       		.uleb128 0x3a
 9074 0268 0B       		.uleb128 0xb
 9075 0269 3B       		.uleb128 0x3b
 9076 026a 0B       		.uleb128 0xb
 9077 026b 49       		.uleb128 0x49
ARM GAS  C:\Users\Matuesz\AppData\Local\Temp\ccLA85Wr.s 			page 161


 9078 026c 13       		.uleb128 0x13
 9079 026d 02       		.uleb128 0x2
 9080 026e 0A       		.uleb128 0xa
 9081 026f 00       		.byte	0
 9082 0270 00       		.byte	0
 9083 0271 31       		.uleb128 0x31
 9084 0272 34       		.uleb128 0x34
 9085 0273 00       		.byte	0
 9086 0274 03       		.uleb128 0x3
 9087 0275 08       		.uleb128 0x8
 9088 0276 3A       		.uleb128 0x3a
 9089 0277 0B       		.uleb128 0xb
 9090 0278 3B       		.uleb128 0x3b
 9091 0279 0B       		.uleb128 0xb
 9092 027a 49       		.uleb128 0x49
 9093 027b 13       		.uleb128 0x13
 9094 027c 02       		.uleb128 0x2
 9095 027d 06       		.uleb128 0x6
 9096 027e 00       		.byte	0
 9097 027f 00       		.byte	0
 9098 0280 32       		.uleb128 0x32
 9099 0281 2E       		.uleb128 0x2e
 9100 0282 01       		.byte	0x1
 9101 0283 03       		.uleb128 0x3
 9102 0284 0E       		.uleb128 0xe
 9103 0285 3A       		.uleb128 0x3a
 9104 0286 0B       		.uleb128 0xb
 9105 0287 3B       		.uleb128 0x3b
 9106 0288 05       		.uleb128 0x5
 9107 0289 27       		.uleb128 0x27
 9108 028a 0C       		.uleb128 0xc
 9109 028b 11       		.uleb128 0x11
 9110 028c 01       		.uleb128 0x1
 9111 028d 12       		.uleb128 0x12
 9112 028e 01       		.uleb128 0x1
 9113 028f 40       		.uleb128 0x40
 9114 0290 06       		.uleb128 0x6
 9115 0291 9742     		.uleb128 0x2117
 9116 0293 0C       		.uleb128 0xc
 9117 0294 01       		.uleb128 0x1
 9118 0295 13       		.uleb128 0x13
 9119 0296 00       		.byte	0
 9120 0297 00       		.byte	0
 9121 0298 33       		.uleb128 0x33
 9122 0299 05       		.uleb128 0x5
 9123 029a 00       		.byte	0
 9124 029b 03       		.uleb128 0x3
 9125 029c 0E       		.uleb128 0xe
 9126 029d 3A       		.uleb128 0x3a
 9127 029e 0B       		.uleb128 0xb
 9128 029f 3B       		.uleb128 0x3b
 9129 02a0 05       		.uleb128 0x5
 9130 02a1 49       		.uleb128 0x49
 9131 02a2 13       		.uleb128 0x13
 9132 02a3 02       		.uleb128 0x2
 9133 02a4 06       		.uleb128 0x6
 9134 02a5 00       		.byte	0
ARM GAS  C:\Users\Matuesz\AppData\Local\Temp\ccLA85Wr.s 			page 162


 9135 02a6 00       		.byte	0
 9136 02a7 34       		.uleb128 0x34
 9137 02a8 05       		.uleb128 0x5
 9138 02a9 00       		.byte	0
 9139 02aa 03       		.uleb128 0x3
 9140 02ab 08       		.uleb128 0x8
 9141 02ac 3A       		.uleb128 0x3a
 9142 02ad 0B       		.uleb128 0xb
 9143 02ae 3B       		.uleb128 0x3b
 9144 02af 05       		.uleb128 0x5
 9145 02b0 49       		.uleb128 0x49
 9146 02b1 13       		.uleb128 0x13
 9147 02b2 02       		.uleb128 0x2
 9148 02b3 06       		.uleb128 0x6
 9149 02b4 00       		.byte	0
 9150 02b5 00       		.byte	0
 9151 02b6 35       		.uleb128 0x35
 9152 02b7 34       		.uleb128 0x34
 9153 02b8 00       		.byte	0
 9154 02b9 03       		.uleb128 0x3
 9155 02ba 0E       		.uleb128 0xe
 9156 02bb 3A       		.uleb128 0x3a
 9157 02bc 0B       		.uleb128 0xb
 9158 02bd 3B       		.uleb128 0x3b
 9159 02be 05       		.uleb128 0x5
 9160 02bf 49       		.uleb128 0x49
 9161 02c0 13       		.uleb128 0x13
 9162 02c1 02       		.uleb128 0x2
 9163 02c2 0A       		.uleb128 0xa
 9164 02c3 00       		.byte	0
 9165 02c4 00       		.byte	0
 9166 02c5 36       		.uleb128 0x36
 9167 02c6 898201   		.uleb128 0x4109
 9168 02c9 01       		.byte	0x1
 9169 02ca 11       		.uleb128 0x11
 9170 02cb 01       		.uleb128 0x1
 9171 02cc 01       		.uleb128 0x1
 9172 02cd 13       		.uleb128 0x13
 9173 02ce 00       		.byte	0
 9174 02cf 00       		.byte	0
 9175 02d0 37       		.uleb128 0x37
 9176 02d1 8A8201   		.uleb128 0x410a
 9177 02d4 00       		.byte	0
 9178 02d5 02       		.uleb128 0x2
 9179 02d6 0A       		.uleb128 0xa
 9180 02d7 9142     		.uleb128 0x2111
 9181 02d9 0A       		.uleb128 0xa
 9182 02da 00       		.byte	0
 9183 02db 00       		.byte	0
 9184 02dc 38       		.uleb128 0x38
 9185 02dd 898201   		.uleb128 0x4109
 9186 02e0 01       		.byte	0x1
 9187 02e1 11       		.uleb128 0x11
 9188 02e2 01       		.uleb128 0x1
 9189 02e3 00       		.byte	0
 9190 02e4 00       		.byte	0
 9191 02e5 39       		.uleb128 0x39
ARM GAS  C:\Users\Matuesz\AppData\Local\Temp\ccLA85Wr.s 			page 163


 9192 02e6 2E       		.uleb128 0x2e
 9193 02e7 01       		.byte	0x1
 9194 02e8 03       		.uleb128 0x3
 9195 02e9 0E       		.uleb128 0xe
 9196 02ea 3A       		.uleb128 0x3a
 9197 02eb 0B       		.uleb128 0xb
 9198 02ec 3B       		.uleb128 0x3b
 9199 02ed 0B       		.uleb128 0xb
 9200 02ee 27       		.uleb128 0x27
 9201 02ef 0C       		.uleb128 0xc
 9202 02f0 11       		.uleb128 0x11
 9203 02f1 01       		.uleb128 0x1
 9204 02f2 12       		.uleb128 0x12
 9205 02f3 01       		.uleb128 0x1
 9206 02f4 40       		.uleb128 0x40
 9207 02f5 0A       		.uleb128 0xa
 9208 02f6 9742     		.uleb128 0x2117
 9209 02f8 0C       		.uleb128 0xc
 9210 02f9 01       		.uleb128 0x1
 9211 02fa 13       		.uleb128 0x13
 9212 02fb 00       		.byte	0
 9213 02fc 00       		.byte	0
 9214 02fd 3A       		.uleb128 0x3a
 9215 02fe 34       		.uleb128 0x34
 9216 02ff 00       		.byte	0
 9217 0300 03       		.uleb128 0x3
 9218 0301 0E       		.uleb128 0xe
 9219 0302 3A       		.uleb128 0x3a
 9220 0303 0B       		.uleb128 0xb
 9221 0304 3B       		.uleb128 0x3b
 9222 0305 0B       		.uleb128 0xb
 9223 0306 49       		.uleb128 0x49
 9224 0307 13       		.uleb128 0x13
 9225 0308 02       		.uleb128 0x2
 9226 0309 06       		.uleb128 0x6
 9227 030a 00       		.byte	0
 9228 030b 00       		.byte	0
 9229 030c 3B       		.uleb128 0x3b
 9230 030d 898201   		.uleb128 0x4109
 9231 0310 01       		.byte	0x1
 9232 0311 11       		.uleb128 0x11
 9233 0312 01       		.uleb128 0x1
 9234 0313 9542     		.uleb128 0x2115
 9235 0315 0C       		.uleb128 0xc
 9236 0316 31       		.uleb128 0x31
 9237 0317 13       		.uleb128 0x13
 9238 0318 00       		.byte	0
 9239 0319 00       		.byte	0
 9240 031a 3C       		.uleb128 0x3c
 9241 031b 34       		.uleb128 0x34
 9242 031c 00       		.byte	0
 9243 031d 03       		.uleb128 0x3
 9244 031e 0E       		.uleb128 0xe
 9245 031f 3A       		.uleb128 0x3a
 9246 0320 0B       		.uleb128 0xb
 9247 0321 3B       		.uleb128 0x3b
 9248 0322 05       		.uleb128 0x5
ARM GAS  C:\Users\Matuesz\AppData\Local\Temp\ccLA85Wr.s 			page 164


 9249 0323 49       		.uleb128 0x49
 9250 0324 13       		.uleb128 0x13
 9251 0325 00       		.byte	0
 9252 0326 00       		.byte	0
 9253 0327 3D       		.uleb128 0x3d
 9254 0328 0B       		.uleb128 0xb
 9255 0329 01       		.byte	0x1
 9256 032a 01       		.uleb128 0x1
 9257 032b 13       		.uleb128 0x13
 9258 032c 00       		.byte	0
 9259 032d 00       		.byte	0
 9260 032e 3E       		.uleb128 0x3e
 9261 032f 2E       		.uleb128 0x2e
 9262 0330 01       		.byte	0x1
 9263 0331 03       		.uleb128 0x3
 9264 0332 0E       		.uleb128 0xe
 9265 0333 3A       		.uleb128 0x3a
 9266 0334 0B       		.uleb128 0xb
 9267 0335 3B       		.uleb128 0x3b
 9268 0336 05       		.uleb128 0x5
 9269 0337 27       		.uleb128 0x27
 9270 0338 0C       		.uleb128 0xc
 9271 0339 49       		.uleb128 0x49
 9272 033a 13       		.uleb128 0x13
 9273 033b 11       		.uleb128 0x11
 9274 033c 01       		.uleb128 0x1
 9275 033d 12       		.uleb128 0x12
 9276 033e 01       		.uleb128 0x1
 9277 033f 40       		.uleb128 0x40
 9278 0340 06       		.uleb128 0x6
 9279 0341 9742     		.uleb128 0x2117
 9280 0343 0C       		.uleb128 0xc
 9281 0344 01       		.uleb128 0x1
 9282 0345 13       		.uleb128 0x13
 9283 0346 00       		.byte	0
 9284 0347 00       		.byte	0
 9285 0348 3F       		.uleb128 0x3f
 9286 0349 34       		.uleb128 0x34
 9287 034a 00       		.byte	0
 9288 034b 03       		.uleb128 0x3
 9289 034c 0E       		.uleb128 0xe
 9290 034d 3A       		.uleb128 0x3a
 9291 034e 0B       		.uleb128 0xb
 9292 034f 3B       		.uleb128 0x3b
 9293 0350 05       		.uleb128 0x5
 9294 0351 49       		.uleb128 0x49
 9295 0352 13       		.uleb128 0x13
 9296 0353 02       		.uleb128 0x2
 9297 0354 06       		.uleb128 0x6
 9298 0355 00       		.byte	0
 9299 0356 00       		.byte	0
 9300 0357 40       		.uleb128 0x40
 9301 0358 0B       		.uleb128 0xb
 9302 0359 01       		.byte	0x1
 9303 035a 55       		.uleb128 0x55
 9304 035b 06       		.uleb128 0x6
 9305 035c 01       		.uleb128 0x1
ARM GAS  C:\Users\Matuesz\AppData\Local\Temp\ccLA85Wr.s 			page 165


 9306 035d 13       		.uleb128 0x13
 9307 035e 00       		.byte	0
 9308 035f 00       		.byte	0
 9309 0360 41       		.uleb128 0x41
 9310 0361 34       		.uleb128 0x34
 9311 0362 00       		.byte	0
 9312 0363 03       		.uleb128 0x3
 9313 0364 08       		.uleb128 0x8
 9314 0365 3A       		.uleb128 0x3a
 9315 0366 0B       		.uleb128 0xb
 9316 0367 3B       		.uleb128 0x3b
 9317 0368 05       		.uleb128 0x5
 9318 0369 49       		.uleb128 0x49
 9319 036a 13       		.uleb128 0x13
 9320 036b 02       		.uleb128 0x2
 9321 036c 06       		.uleb128 0x6
 9322 036d 00       		.byte	0
 9323 036e 00       		.byte	0
 9324 036f 42       		.uleb128 0x42
 9325 0370 0B       		.uleb128 0xb
 9326 0371 01       		.byte	0x1
 9327 0372 55       		.uleb128 0x55
 9328 0373 06       		.uleb128 0x6
 9329 0374 00       		.byte	0
 9330 0375 00       		.byte	0
 9331 0376 43       		.uleb128 0x43
 9332 0377 1D       		.uleb128 0x1d
 9333 0378 01       		.byte	0x1
 9334 0379 31       		.uleb128 0x31
 9335 037a 13       		.uleb128 0x13
 9336 037b 52       		.uleb128 0x52
 9337 037c 01       		.uleb128 0x1
 9338 037d 55       		.uleb128 0x55
 9339 037e 06       		.uleb128 0x6
 9340 037f 58       		.uleb128 0x58
 9341 0380 0B       		.uleb128 0xb
 9342 0381 59       		.uleb128 0x59
 9343 0382 05       		.uleb128 0x5
 9344 0383 01       		.uleb128 0x1
 9345 0384 13       		.uleb128 0x13
 9346 0385 00       		.byte	0
 9347 0386 00       		.byte	0
 9348 0387 44       		.uleb128 0x44
 9349 0388 05       		.uleb128 0x5
 9350 0389 00       		.byte	0
 9351 038a 31       		.uleb128 0x31
 9352 038b 13       		.uleb128 0x13
 9353 038c 02       		.uleb128 0x2
 9354 038d 06       		.uleb128 0x6
 9355 038e 00       		.byte	0
 9356 038f 00       		.byte	0
 9357 0390 45       		.uleb128 0x45
 9358 0391 34       		.uleb128 0x34
 9359 0392 00       		.byte	0
 9360 0393 31       		.uleb128 0x31
 9361 0394 13       		.uleb128 0x13
 9362 0395 02       		.uleb128 0x2
ARM GAS  C:\Users\Matuesz\AppData\Local\Temp\ccLA85Wr.s 			page 166


 9363 0396 06       		.uleb128 0x6
 9364 0397 00       		.byte	0
 9365 0398 00       		.byte	0
 9366 0399 46       		.uleb128 0x46
 9367 039a 1D       		.uleb128 0x1d
 9368 039b 01       		.byte	0x1
 9369 039c 31       		.uleb128 0x31
 9370 039d 13       		.uleb128 0x13
 9371 039e 11       		.uleb128 0x11
 9372 039f 01       		.uleb128 0x1
 9373 03a0 12       		.uleb128 0x12
 9374 03a1 01       		.uleb128 0x1
 9375 03a2 58       		.uleb128 0x58
 9376 03a3 0B       		.uleb128 0xb
 9377 03a4 59       		.uleb128 0x59
 9378 03a5 05       		.uleb128 0x5
 9379 03a6 01       		.uleb128 0x1
 9380 03a7 13       		.uleb128 0x13
 9381 03a8 00       		.byte	0
 9382 03a9 00       		.byte	0
 9383 03aa 47       		.uleb128 0x47
 9384 03ab 1D       		.uleb128 0x1d
 9385 03ac 01       		.byte	0x1
 9386 03ad 31       		.uleb128 0x31
 9387 03ae 13       		.uleb128 0x13
 9388 03af 11       		.uleb128 0x11
 9389 03b0 01       		.uleb128 0x1
 9390 03b1 12       		.uleb128 0x12
 9391 03b2 01       		.uleb128 0x1
 9392 03b3 58       		.uleb128 0x58
 9393 03b4 0B       		.uleb128 0xb
 9394 03b5 59       		.uleb128 0x59
 9395 03b6 05       		.uleb128 0x5
 9396 03b7 00       		.byte	0
 9397 03b8 00       		.byte	0
 9398 03b9 48       		.uleb128 0x48
 9399 03ba 0B       		.uleb128 0xb
 9400 03bb 01       		.byte	0x1
 9401 03bc 11       		.uleb128 0x11
 9402 03bd 01       		.uleb128 0x1
 9403 03be 12       		.uleb128 0x12
 9404 03bf 01       		.uleb128 0x1
 9405 03c0 00       		.byte	0
 9406 03c1 00       		.byte	0
 9407 03c2 49       		.uleb128 0x49
 9408 03c3 0B       		.uleb128 0xb
 9409 03c4 01       		.byte	0x1
 9410 03c5 11       		.uleb128 0x11
 9411 03c6 01       		.uleb128 0x1
 9412 03c7 12       		.uleb128 0x12
 9413 03c8 01       		.uleb128 0x1
 9414 03c9 01       		.uleb128 0x1
 9415 03ca 13       		.uleb128 0x13
 9416 03cb 00       		.byte	0
 9417 03cc 00       		.byte	0
 9418 03cd 4A       		.uleb128 0x4a
 9419 03ce 898201   		.uleb128 0x4109
ARM GAS  C:\Users\Matuesz\AppData\Local\Temp\ccLA85Wr.s 			page 167


 9420 03d1 00       		.byte	0
 9421 03d2 11       		.uleb128 0x11
 9422 03d3 01       		.uleb128 0x1
 9423 03d4 31       		.uleb128 0x31
 9424 03d5 13       		.uleb128 0x13
 9425 03d6 00       		.byte	0
 9426 03d7 00       		.byte	0
 9427 03d8 4B       		.uleb128 0x4b
 9428 03d9 05       		.uleb128 0x5
 9429 03da 00       		.byte	0
 9430 03db 31       		.uleb128 0x31
 9431 03dc 13       		.uleb128 0x13
 9432 03dd 02       		.uleb128 0x2
 9433 03de 0A       		.uleb128 0xa
 9434 03df 00       		.byte	0
 9435 03e0 00       		.byte	0
 9436 03e1 4C       		.uleb128 0x4c
 9437 03e2 1D       		.uleb128 0x1d
 9438 03e3 01       		.byte	0x1
 9439 03e4 31       		.uleb128 0x31
 9440 03e5 13       		.uleb128 0x13
 9441 03e6 52       		.uleb128 0x52
 9442 03e7 01       		.uleb128 0x1
 9443 03e8 55       		.uleb128 0x55
 9444 03e9 06       		.uleb128 0x6
 9445 03ea 58       		.uleb128 0x58
 9446 03eb 0B       		.uleb128 0xb
 9447 03ec 59       		.uleb128 0x59
 9448 03ed 05       		.uleb128 0x5
 9449 03ee 00       		.byte	0
 9450 03ef 00       		.byte	0
 9451 03f0 4D       		.uleb128 0x4d
 9452 03f1 05       		.uleb128 0x5
 9453 03f2 00       		.byte	0
 9454 03f3 31       		.uleb128 0x31
 9455 03f4 13       		.uleb128 0x13
 9456 03f5 00       		.byte	0
 9457 03f6 00       		.byte	0
 9458 03f7 4E       		.uleb128 0x4e
 9459 03f8 898201   		.uleb128 0x4109
 9460 03fb 01       		.byte	0x1
 9461 03fc 11       		.uleb128 0x11
 9462 03fd 01       		.uleb128 0x1
 9463 03fe 31       		.uleb128 0x31
 9464 03ff 13       		.uleb128 0x13
 9465 0400 00       		.byte	0
 9466 0401 00       		.byte	0
 9467 0402 4F       		.uleb128 0x4f
 9468 0403 2E       		.uleb128 0x2e
 9469 0404 01       		.byte	0x1
 9470 0405 3F       		.uleb128 0x3f
 9471 0406 0C       		.uleb128 0xc
 9472 0407 03       		.uleb128 0x3
 9473 0408 0E       		.uleb128 0xe
 9474 0409 3A       		.uleb128 0x3a
 9475 040a 0B       		.uleb128 0xb
 9476 040b 3B       		.uleb128 0x3b
ARM GAS  C:\Users\Matuesz\AppData\Local\Temp\ccLA85Wr.s 			page 168


 9477 040c 05       		.uleb128 0x5
 9478 040d 27       		.uleb128 0x27
 9479 040e 0C       		.uleb128 0xc
 9480 040f 11       		.uleb128 0x11
 9481 0410 01       		.uleb128 0x1
 9482 0411 12       		.uleb128 0x12
 9483 0412 01       		.uleb128 0x1
 9484 0413 40       		.uleb128 0x40
 9485 0414 06       		.uleb128 0x6
 9486 0415 9742     		.uleb128 0x2117
 9487 0417 0C       		.uleb128 0xc
 9488 0418 01       		.uleb128 0x1
 9489 0419 13       		.uleb128 0x13
 9490 041a 00       		.byte	0
 9491 041b 00       		.byte	0
 9492 041c 50       		.uleb128 0x50
 9493 041d 898201   		.uleb128 0x4109
 9494 0420 01       		.byte	0x1
 9495 0421 11       		.uleb128 0x11
 9496 0422 01       		.uleb128 0x1
 9497 0423 31       		.uleb128 0x31
 9498 0424 13       		.uleb128 0x13
 9499 0425 01       		.uleb128 0x1
 9500 0426 13       		.uleb128 0x13
 9501 0427 00       		.byte	0
 9502 0428 00       		.byte	0
 9503 0429 51       		.uleb128 0x51
 9504 042a 05       		.uleb128 0x5
 9505 042b 00       		.byte	0
 9506 042c 31       		.uleb128 0x31
 9507 042d 13       		.uleb128 0x13
 9508 042e 1C       		.uleb128 0x1c
 9509 042f 0B       		.uleb128 0xb
 9510 0430 00       		.byte	0
 9511 0431 00       		.byte	0
 9512 0432 52       		.uleb128 0x52
 9513 0433 34       		.uleb128 0x34
 9514 0434 00       		.byte	0
 9515 0435 31       		.uleb128 0x31
 9516 0436 13       		.uleb128 0x13
 9517 0437 02       		.uleb128 0x2
 9518 0438 0A       		.uleb128 0xa
 9519 0439 00       		.byte	0
 9520 043a 00       		.byte	0
 9521 043b 53       		.uleb128 0x53
 9522 043c 2E       		.uleb128 0x2e
 9523 043d 01       		.byte	0x1
 9524 043e 3F       		.uleb128 0x3f
 9525 043f 0C       		.uleb128 0xc
 9526 0440 03       		.uleb128 0x3
 9527 0441 0E       		.uleb128 0xe
 9528 0442 3A       		.uleb128 0x3a
 9529 0443 0B       		.uleb128 0xb
 9530 0444 3B       		.uleb128 0x3b
 9531 0445 05       		.uleb128 0x5
 9532 0446 27       		.uleb128 0x27
 9533 0447 0C       		.uleb128 0xc
ARM GAS  C:\Users\Matuesz\AppData\Local\Temp\ccLA85Wr.s 			page 169


 9534 0448 11       		.uleb128 0x11
 9535 0449 01       		.uleb128 0x1
 9536 044a 12       		.uleb128 0x12
 9537 044b 01       		.uleb128 0x1
 9538 044c 40       		.uleb128 0x40
 9539 044d 0A       		.uleb128 0xa
 9540 044e 9742     		.uleb128 0x2117
 9541 0450 0C       		.uleb128 0xc
 9542 0451 01       		.uleb128 0x1
 9543 0452 13       		.uleb128 0x13
 9544 0453 00       		.byte	0
 9545 0454 00       		.byte	0
 9546 0455 54       		.uleb128 0x54
 9547 0456 2E       		.uleb128 0x2e
 9548 0457 01       		.byte	0x1
 9549 0458 3F       		.uleb128 0x3f
 9550 0459 0C       		.uleb128 0xc
 9551 045a 03       		.uleb128 0x3
 9552 045b 0E       		.uleb128 0xe
 9553 045c 3A       		.uleb128 0x3a
 9554 045d 0B       		.uleb128 0xb
 9555 045e 3B       		.uleb128 0x3b
 9556 045f 05       		.uleb128 0x5
 9557 0460 27       		.uleb128 0x27
 9558 0461 0C       		.uleb128 0xc
 9559 0462 49       		.uleb128 0x49
 9560 0463 13       		.uleb128 0x13
 9561 0464 11       		.uleb128 0x11
 9562 0465 01       		.uleb128 0x1
 9563 0466 12       		.uleb128 0x12
 9564 0467 01       		.uleb128 0x1
 9565 0468 40       		.uleb128 0x40
 9566 0469 0A       		.uleb128 0xa
 9567 046a 9742     		.uleb128 0x2117
 9568 046c 0C       		.uleb128 0xc
 9569 046d 01       		.uleb128 0x1
 9570 046e 13       		.uleb128 0x13
 9571 046f 00       		.byte	0
 9572 0470 00       		.byte	0
 9573 0471 55       		.uleb128 0x55
 9574 0472 34       		.uleb128 0x34
 9575 0473 00       		.byte	0
 9576 0474 03       		.uleb128 0x3
 9577 0475 08       		.uleb128 0x8
 9578 0476 3A       		.uleb128 0x3a
 9579 0477 0B       		.uleb128 0xb
 9580 0478 3B       		.uleb128 0x3b
 9581 0479 05       		.uleb128 0x5
 9582 047a 49       		.uleb128 0x49
 9583 047b 13       		.uleb128 0x13
 9584 047c 02       		.uleb128 0x2
 9585 047d 0A       		.uleb128 0xa
 9586 047e 00       		.byte	0
 9587 047f 00       		.byte	0
 9588 0480 56       		.uleb128 0x56
 9589 0481 05       		.uleb128 0x5
 9590 0482 00       		.byte	0
ARM GAS  C:\Users\Matuesz\AppData\Local\Temp\ccLA85Wr.s 			page 170


 9591 0483 03       		.uleb128 0x3
 9592 0484 08       		.uleb128 0x8
 9593 0485 3A       		.uleb128 0x3a
 9594 0486 0B       		.uleb128 0xb
 9595 0487 3B       		.uleb128 0x3b
 9596 0488 05       		.uleb128 0x5
 9597 0489 49       		.uleb128 0x49
 9598 048a 13       		.uleb128 0x13
 9599 048b 02       		.uleb128 0x2
 9600 048c 0A       		.uleb128 0xa
 9601 048d 00       		.byte	0
 9602 048e 00       		.byte	0
 9603 048f 57       		.uleb128 0x57
 9604 0490 898201   		.uleb128 0x4109
 9605 0493 01       		.byte	0x1
 9606 0494 11       		.uleb128 0x11
 9607 0495 01       		.uleb128 0x1
 9608 0496 9542     		.uleb128 0x2115
 9609 0498 0C       		.uleb128 0xc
 9610 0499 31       		.uleb128 0x31
 9611 049a 13       		.uleb128 0x13
 9612 049b 01       		.uleb128 0x1
 9613 049c 13       		.uleb128 0x13
 9614 049d 00       		.byte	0
 9615 049e 00       		.byte	0
 9616 049f 58       		.uleb128 0x58
 9617 04a0 898201   		.uleb128 0x4109
 9618 04a3 00       		.byte	0
 9619 04a4 11       		.uleb128 0x11
 9620 04a5 01       		.uleb128 0x1
 9621 04a6 9542     		.uleb128 0x2115
 9622 04a8 0C       		.uleb128 0xc
 9623 04a9 31       		.uleb128 0x31
 9624 04aa 13       		.uleb128 0x13
 9625 04ab 00       		.byte	0
 9626 04ac 00       		.byte	0
 9627 04ad 59       		.uleb128 0x59
 9628 04ae 2E       		.uleb128 0x2e
 9629 04af 01       		.byte	0x1
 9630 04b0 31       		.uleb128 0x31
 9631 04b1 13       		.uleb128 0x13
 9632 04b2 11       		.uleb128 0x11
 9633 04b3 01       		.uleb128 0x1
 9634 04b4 12       		.uleb128 0x12
 9635 04b5 01       		.uleb128 0x1
 9636 04b6 40       		.uleb128 0x40
 9637 04b7 0A       		.uleb128 0xa
 9638 04b8 9742     		.uleb128 0x2117
 9639 04ba 0C       		.uleb128 0xc
 9640 04bb 01       		.uleb128 0x1
 9641 04bc 13       		.uleb128 0x13
 9642 04bd 00       		.byte	0
 9643 04be 00       		.byte	0
 9644 04bf 5A       		.uleb128 0x5a
 9645 04c0 34       		.uleb128 0x34
 9646 04c1 00       		.byte	0
 9647 04c2 03       		.uleb128 0x3
ARM GAS  C:\Users\Matuesz\AppData\Local\Temp\ccLA85Wr.s 			page 171


 9648 04c3 0E       		.uleb128 0xe
 9649 04c4 3A       		.uleb128 0x3a
 9650 04c5 0B       		.uleb128 0xb
 9651 04c6 3B       		.uleb128 0x3b
 9652 04c7 0B       		.uleb128 0xb
 9653 04c8 49       		.uleb128 0x49
 9654 04c9 13       		.uleb128 0x13
 9655 04ca 3F       		.uleb128 0x3f
 9656 04cb 0C       		.uleb128 0xc
 9657 04cc 3C       		.uleb128 0x3c
 9658 04cd 0C       		.uleb128 0xc
 9659 04ce 00       		.byte	0
 9660 04cf 00       		.byte	0
 9661 04d0 5B       		.uleb128 0x5b
 9662 04d1 34       		.uleb128 0x34
 9663 04d2 00       		.byte	0
 9664 04d3 03       		.uleb128 0x3
 9665 04d4 0E       		.uleb128 0xe
 9666 04d5 3A       		.uleb128 0x3a
 9667 04d6 0B       		.uleb128 0xb
 9668 04d7 3B       		.uleb128 0x3b
 9669 04d8 05       		.uleb128 0x5
 9670 04d9 49       		.uleb128 0x49
 9671 04da 13       		.uleb128 0x13
 9672 04db 3F       		.uleb128 0x3f
 9673 04dc 0C       		.uleb128 0xc
 9674 04dd 3C       		.uleb128 0x3c
 9675 04de 0C       		.uleb128 0xc
 9676 04df 00       		.byte	0
 9677 04e0 00       		.byte	0
 9678 04e1 5C       		.uleb128 0x5c
 9679 04e2 34       		.uleb128 0x34
 9680 04e3 00       		.byte	0
 9681 04e4 03       		.uleb128 0x3
 9682 04e5 0E       		.uleb128 0xe
 9683 04e6 3A       		.uleb128 0x3a
 9684 04e7 0B       		.uleb128 0xb
 9685 04e8 3B       		.uleb128 0x3b
 9686 04e9 0B       		.uleb128 0xb
 9687 04ea 49       		.uleb128 0x49
 9688 04eb 13       		.uleb128 0x13
 9689 04ec 3F       		.uleb128 0x3f
 9690 04ed 0C       		.uleb128 0xc
 9691 04ee 02       		.uleb128 0x2
 9692 04ef 0A       		.uleb128 0xa
 9693 04f0 00       		.byte	0
 9694 04f1 00       		.byte	0
 9695 04f2 5D       		.uleb128 0x5d
 9696 04f3 2E       		.uleb128 0x2e
 9697 04f4 01       		.byte	0x1
 9698 04f5 3F       		.uleb128 0x3f
 9699 04f6 0C       		.uleb128 0xc
 9700 04f7 03       		.uleb128 0x3
 9701 04f8 0E       		.uleb128 0xe
 9702 04f9 3A       		.uleb128 0x3a
 9703 04fa 0B       		.uleb128 0xb
 9704 04fb 3B       		.uleb128 0x3b
ARM GAS  C:\Users\Matuesz\AppData\Local\Temp\ccLA85Wr.s 			page 172


 9705 04fc 0B       		.uleb128 0xb
 9706 04fd 27       		.uleb128 0x27
 9707 04fe 0C       		.uleb128 0xc
 9708 04ff 3C       		.uleb128 0x3c
 9709 0500 0C       		.uleb128 0xc
 9710 0501 01       		.uleb128 0x1
 9711 0502 13       		.uleb128 0x13
 9712 0503 00       		.byte	0
 9713 0504 00       		.byte	0
 9714 0505 5E       		.uleb128 0x5e
 9715 0506 2E       		.uleb128 0x2e
 9716 0507 01       		.byte	0x1
 9717 0508 3F       		.uleb128 0x3f
 9718 0509 0C       		.uleb128 0xc
 9719 050a 03       		.uleb128 0x3
 9720 050b 0E       		.uleb128 0xe
 9721 050c 3A       		.uleb128 0x3a
 9722 050d 0B       		.uleb128 0xb
 9723 050e 3B       		.uleb128 0x3b
 9724 050f 0B       		.uleb128 0xb
 9725 0510 27       		.uleb128 0x27
 9726 0511 0C       		.uleb128 0xc
 9727 0512 49       		.uleb128 0x49
 9728 0513 13       		.uleb128 0x13
 9729 0514 3C       		.uleb128 0x3c
 9730 0515 0C       		.uleb128 0xc
 9731 0516 01       		.uleb128 0x1
 9732 0517 13       		.uleb128 0x13
 9733 0518 00       		.byte	0
 9734 0519 00       		.byte	0
 9735 051a 5F       		.uleb128 0x5f
 9736 051b 2E       		.uleb128 0x2e
 9737 051c 00       		.byte	0
 9738 051d 3F       		.uleb128 0x3f
 9739 051e 0C       		.uleb128 0xc
 9740 051f 03       		.uleb128 0x3
 9741 0520 0E       		.uleb128 0xe
 9742 0521 3A       		.uleb128 0x3a
 9743 0522 0B       		.uleb128 0xb
 9744 0523 3B       		.uleb128 0x3b
 9745 0524 0B       		.uleb128 0xb
 9746 0525 27       		.uleb128 0x27
 9747 0526 0C       		.uleb128 0xc
 9748 0527 3C       		.uleb128 0x3c
 9749 0528 0C       		.uleb128 0xc
 9750 0529 00       		.byte	0
 9751 052a 00       		.byte	0
 9752 052b 60       		.uleb128 0x60
 9753 052c 2E       		.uleb128 0x2e
 9754 052d 01       		.byte	0x1
 9755 052e 3F       		.uleb128 0x3f
 9756 052f 0C       		.uleb128 0xc
 9757 0530 03       		.uleb128 0x3
 9758 0531 0E       		.uleb128 0xe
 9759 0532 3A       		.uleb128 0x3a
 9760 0533 0B       		.uleb128 0xb
 9761 0534 3B       		.uleb128 0x3b
ARM GAS  C:\Users\Matuesz\AppData\Local\Temp\ccLA85Wr.s 			page 173


 9762 0535 05       		.uleb128 0x5
 9763 0536 27       		.uleb128 0x27
 9764 0537 0C       		.uleb128 0xc
 9765 0538 3C       		.uleb128 0x3c
 9766 0539 0C       		.uleb128 0xc
 9767 053a 01       		.uleb128 0x1
 9768 053b 13       		.uleb128 0x13
 9769 053c 00       		.byte	0
 9770 053d 00       		.byte	0
 9771 053e 61       		.uleb128 0x61
 9772 053f 2E       		.uleb128 0x2e
 9773 0540 01       		.byte	0x1
 9774 0541 3F       		.uleb128 0x3f
 9775 0542 0C       		.uleb128 0xc
 9776 0543 03       		.uleb128 0x3
 9777 0544 0E       		.uleb128 0xe
 9778 0545 3A       		.uleb128 0x3a
 9779 0546 0B       		.uleb128 0xb
 9780 0547 3B       		.uleb128 0x3b
 9781 0548 05       		.uleb128 0x5
 9782 0549 27       		.uleb128 0x27
 9783 054a 0C       		.uleb128 0xc
 9784 054b 49       		.uleb128 0x49
 9785 054c 13       		.uleb128 0x13
 9786 054d 3C       		.uleb128 0x3c
 9787 054e 0C       		.uleb128 0xc
 9788 054f 01       		.uleb128 0x1
 9789 0550 13       		.uleb128 0x13
 9790 0551 00       		.byte	0
 9791 0552 00       		.byte	0
 9792 0553 62       		.uleb128 0x62
 9793 0554 2E       		.uleb128 0x2e
 9794 0555 00       		.byte	0
 9795 0556 3F       		.uleb128 0x3f
 9796 0557 0C       		.uleb128 0xc
 9797 0558 03       		.uleb128 0x3
 9798 0559 0E       		.uleb128 0xe
 9799 055a 3A       		.uleb128 0x3a
 9800 055b 0B       		.uleb128 0xb
 9801 055c 3B       		.uleb128 0x3b
 9802 055d 05       		.uleb128 0x5
 9803 055e 27       		.uleb128 0x27
 9804 055f 0C       		.uleb128 0xc
 9805 0560 3C       		.uleb128 0x3c
 9806 0561 0C       		.uleb128 0xc
 9807 0562 00       		.byte	0
 9808 0563 00       		.byte	0
 9809 0564 00       		.byte	0
 9810              		.section	.debug_loc,"",%progbits
 9811              	.Ldebug_loc0:
 9812              	.LLST0:
 9813 0000 00000000 		.4byte	.LFB120
 9814 0004 0A000000 		.4byte	.LCFI0
 9815 0008 0200     		.2byte	0x2
 9816 000a 7D       		.byte	0x7d
 9817 000b 00       		.sleb128 0
 9818 000c 0A000000 		.4byte	.LCFI0
ARM GAS  C:\Users\Matuesz\AppData\Local\Temp\ccLA85Wr.s 			page 174


 9819 0010 82000000 		.4byte	.LFE120
 9820 0014 0200     		.2byte	0x2
 9821 0016 7D       		.byte	0x7d
 9822 0017 14       		.sleb128 20
 9823 0018 00000000 		.4byte	0
 9824 001c 00000000 		.4byte	0
 9825              	.LLST1:
 9826 0020 00000000 		.4byte	.LVL0
 9827 0024 0C000000 		.4byte	.LVL2
 9828 0028 0100     		.2byte	0x1
 9829 002a 50       		.byte	0x50
 9830 002b 0C000000 		.4byte	.LVL2
 9831 002f 82000000 		.4byte	.LFE120
 9832 0033 0400     		.2byte	0x4
 9833 0035 F3       		.byte	0xf3
 9834 0036 01       		.uleb128 0x1
 9835 0037 50       		.byte	0x50
 9836 0038 9F       		.byte	0x9f
 9837 0039 00000000 		.4byte	0
 9838 003d 00000000 		.4byte	0
 9839              	.LLST2:
 9840 0041 04000000 		.4byte	.LVL1
 9841 0045 18000000 		.4byte	.LVL3
 9842 0049 0200     		.2byte	0x2
 9843 004b 30       		.byte	0x30
 9844 004c 9F       		.byte	0x9f
 9845 004d 3C000000 		.4byte	.LVL4
 9846 0051 48000000 		.4byte	.LVL5
 9847 0055 0100     		.2byte	0x1
 9848 0057 52       		.byte	0x52
 9849 0058 74000000 		.4byte	.LVL6
 9850 005c 82000000 		.4byte	.LFE120
 9851 0060 0100     		.2byte	0x1
 9852 0062 52       		.byte	0x52
 9853 0063 00000000 		.4byte	0
 9854 0067 00000000 		.4byte	0
 9855              	.LLST3:
 9856 006b 00000000 		.4byte	.LFB134
 9857 006f 02000000 		.4byte	.LCFI1
 9858 0073 0200     		.2byte	0x2
 9859 0075 7D       		.byte	0x7d
 9860 0076 00       		.sleb128 0
 9861 0077 02000000 		.4byte	.LCFI1
 9862 007b 58000000 		.4byte	.LFE134
 9863 007f 0200     		.2byte	0x2
 9864 0081 7D       		.byte	0x7d
 9865 0082 18       		.sleb128 24
 9866 0083 00000000 		.4byte	0
 9867 0087 00000000 		.4byte	0
 9868              	.LLST4:
 9869 008b 00000000 		.4byte	.LVL7
 9870 008f 20000000 		.4byte	.LVL10
 9871 0093 0100     		.2byte	0x1
 9872 0095 50       		.byte	0x50
 9873 0096 20000000 		.4byte	.LVL10
 9874 009a 4C000000 		.4byte	.LVL12
 9875 009e 0100     		.2byte	0x1
ARM GAS  C:\Users\Matuesz\AppData\Local\Temp\ccLA85Wr.s 			page 175


 9876 00a0 56       		.byte	0x56
 9877 00a1 4C000000 		.4byte	.LVL12
 9878 00a5 55000000 		.4byte	.LVL13-1
 9879 00a9 0100     		.2byte	0x1
 9880 00ab 50       		.byte	0x50
 9881 00ac 55000000 		.4byte	.LVL13-1
 9882 00b0 58000000 		.4byte	.LFE134
 9883 00b4 0100     		.2byte	0x1
 9884 00b6 56       		.byte	0x56
 9885 00b7 00000000 		.4byte	0
 9886 00bb 00000000 		.4byte	0
 9887              	.LLST5:
 9888 00bf 00000000 		.4byte	.LVL7
 9889 00c3 20000000 		.4byte	.LVL10
 9890 00c7 0100     		.2byte	0x1
 9891 00c9 51       		.byte	0x51
 9892 00ca 20000000 		.4byte	.LVL10
 9893 00ce 4C000000 		.4byte	.LVL12
 9894 00d2 0400     		.2byte	0x4
 9895 00d4 F3       		.byte	0xf3
 9896 00d5 01       		.uleb128 0x1
 9897 00d6 51       		.byte	0x51
 9898 00d7 9F       		.byte	0x9f
 9899 00d8 4C000000 		.4byte	.LVL12
 9900 00dc 55000000 		.4byte	.LVL13-1
 9901 00e0 0100     		.2byte	0x1
 9902 00e2 51       		.byte	0x51
 9903 00e3 55000000 		.4byte	.LVL13-1
 9904 00e7 58000000 		.4byte	.LFE134
 9905 00eb 0400     		.2byte	0x4
 9906 00ed F3       		.byte	0xf3
 9907 00ee 01       		.uleb128 0x1
 9908 00ef 51       		.byte	0x51
 9909 00f0 9F       		.byte	0x9f
 9910 00f1 00000000 		.4byte	0
 9911 00f5 00000000 		.4byte	0
 9912              	.LLST6:
 9913 00f9 00000000 		.4byte	.LVL14
 9914 00fd 0A000000 		.4byte	.LVL17
 9915 0101 0100     		.2byte	0x1
 9916 0103 50       		.byte	0x50
 9917 0104 0A000000 		.4byte	.LVL17
 9918 0108 16000000 		.4byte	.LFE122
 9919 010c 0400     		.2byte	0x4
 9920 010e F3       		.byte	0xf3
 9921 010f 01       		.uleb128 0x1
 9922 0110 50       		.byte	0x50
 9923 0111 9F       		.byte	0x9f
 9924 0112 00000000 		.4byte	0
 9925 0116 00000000 		.4byte	0
 9926              	.LLST7:
 9927 011a 00000000 		.4byte	.LVL14
 9928 011e 04000000 		.4byte	.LVL16
 9929 0122 0100     		.2byte	0x1
 9930 0124 51       		.byte	0x51
 9931 0125 04000000 		.4byte	.LVL16
 9932 0129 16000000 		.4byte	.LFE122
ARM GAS  C:\Users\Matuesz\AppData\Local\Temp\ccLA85Wr.s 			page 176


 9933 012d 0400     		.2byte	0x4
 9934 012f F3       		.byte	0xf3
 9935 0130 01       		.uleb128 0x1
 9936 0131 51       		.byte	0x51
 9937 0132 9F       		.byte	0x9f
 9938 0133 00000000 		.4byte	0
 9939 0137 00000000 		.4byte	0
 9940              	.LLST8:
 9941 013b 02000000 		.4byte	.LVL15
 9942 013f 15000000 		.4byte	.LVL18-1
 9943 0143 0100     		.2byte	0x1
 9944 0145 52       		.byte	0x52
 9945 0146 00000000 		.4byte	0
 9946 014a 00000000 		.4byte	0
 9947              	.LLST9:
 9948 014e 00000000 		.4byte	.LFB136
 9949 0152 04000000 		.4byte	.LCFI2
 9950 0156 0200     		.2byte	0x2
 9951 0158 7D       		.byte	0x7d
 9952 0159 00       		.sleb128 0
 9953 015a 04000000 		.4byte	.LCFI2
 9954 015e 18000000 		.4byte	.LCFI3
 9955 0162 0200     		.2byte	0x2
 9956 0164 7D       		.byte	0x7d
 9957 0165 24       		.sleb128 36
 9958 0166 18000000 		.4byte	.LCFI3
 9959 016a 96040000 		.4byte	.LFE136
 9960 016e 0300     		.2byte	0x3
 9961 0170 7D       		.byte	0x7d
 9962 0171 C000     		.sleb128 64
 9963 0173 00000000 		.4byte	0
 9964 0177 00000000 		.4byte	0
 9965              	.LLST10:
 9966 017b 00000000 		.4byte	.LVL19
 9967 017f 16000000 		.4byte	.LVL21
 9968 0183 0100     		.2byte	0x1
 9969 0185 50       		.byte	0x50
 9970 0186 16000000 		.4byte	.LVL21
 9971 018a 96040000 		.4byte	.LFE136
 9972 018e 0100     		.2byte	0x1
 9973 0190 5B       		.byte	0x5b
 9974 0191 00000000 		.4byte	0
 9975 0195 00000000 		.4byte	0
 9976              	.LLST11:
 9977 0199 14000000 		.4byte	.LVL20
 9978 019d 16000000 		.4byte	.LVL21
 9979 01a1 0100     		.2byte	0x1
 9980 01a3 50       		.byte	0x50
 9981 01a4 16000000 		.4byte	.LVL21
 9982 01a8 96040000 		.4byte	.LFE136
 9983 01ac 0100     		.2byte	0x1
 9984 01ae 5B       		.byte	0x5b
 9985 01af 00000000 		.4byte	0
 9986 01b3 00000000 		.4byte	0
 9987              	.LLST12:
 9988 01b7 20000000 		.4byte	.LVL23
 9989 01bb 28000000 		.4byte	.LVL25
ARM GAS  C:\Users\Matuesz\AppData\Local\Temp\ccLA85Wr.s 			page 177


 9990 01bf 0100     		.2byte	0x1
 9991 01c1 53       		.byte	0x53
 9992 01c2 00000000 		.4byte	0
 9993 01c6 00000000 		.4byte	0
 9994              	.LLST13:
 9995 01ca 60000000 		.4byte	.LVL28
 9996 01ce 62000000 		.4byte	.LVL29
 9997 01d2 0200     		.2byte	0x2
 9998 01d4 30       		.byte	0x30
 9999 01d5 9F       		.byte	0x9f
 10000 01d6 00010000 		.4byte	.LVL56
 10001 01da 06010000 		.4byte	.LVL57
 10002 01de 0100     		.2byte	0x1
 10003 01e0 53       		.byte	0x53
 10004 01e1 06010000 		.4byte	.LVL57
 10005 01e5 0C010000 		.4byte	.LVL59
 10006 01e9 0100     		.2byte	0x1
 10007 01eb 54       		.byte	0x54
 10008 01ec 00000000 		.4byte	0
 10009 01f0 00000000 		.4byte	0
 10010              	.LLST14:
 10011 01f4 EE000000 		.4byte	.LVL53
 10012 01f8 F6000000 		.4byte	.LVL54
 10013 01fc 0100     		.2byte	0x1
 10014 01fe 55       		.byte	0x55
 10015 01ff F6000000 		.4byte	.LVL54
 10016 0203 0C010000 		.4byte	.LVL59
 10017 0207 0200     		.2byte	0x2
 10018 0209 91       		.byte	0x91
 10019 020a 50       		.sleb128 -48
 10020 020b 60020000 		.4byte	.LVL106
 10021 020f 78020000 		.4byte	.LVL109
 10022 0213 0100     		.2byte	0x1
 10023 0215 55       		.byte	0x55
 10024 0216 78020000 		.4byte	.LVL109
 10025 021a 96040000 		.4byte	.LFE136
 10026 021e 0200     		.2byte	0x2
 10027 0220 91       		.byte	0x91
 10028 0221 50       		.sleb128 -48
 10029 0222 00000000 		.4byte	0
 10030 0226 00000000 		.4byte	0
 10031              	.LLST15:
 10032 022a 24000000 		.4byte	.LVL24
 10033 022e 5C000000 		.4byte	.LVL27
 10034 0232 0100     		.2byte	0x1
 10035 0234 58       		.byte	0x58
 10036 0235 60000000 		.4byte	.LVL28
 10037 0239 62000000 		.4byte	.LVL29
 10038 023d 0100     		.2byte	0x1
 10039 023f 53       		.byte	0x53
 10040 0240 62000000 		.4byte	.LVL29
 10041 0244 96040000 		.4byte	.LFE136
 10042 0248 0100     		.2byte	0x1
 10043 024a 58       		.byte	0x58
 10044 024b 00000000 		.4byte	0
 10045 024f 00000000 		.4byte	0
 10046              	.LLST16:
ARM GAS  C:\Users\Matuesz\AppData\Local\Temp\ccLA85Wr.s 			page 178


 10047 0253 6C000000 		.4byte	.LVL30
 10048 0257 E2000000 		.4byte	.LVL51
 10049 025b 0100     		.2byte	0x1
 10050 025d 5B       		.byte	0x5b
 10051 025e 0C010000 		.4byte	.LVL59
 10052 0262 60020000 		.4byte	.LVL106
 10053 0266 0100     		.2byte	0x1
 10054 0268 5B       		.byte	0x5b
 10055 0269 00000000 		.4byte	0
 10056 026d 00000000 		.4byte	0
 10057              	.LLST17:
 10058 0271 72000000 		.4byte	.LVL31
 10059 0275 92000000 		.4byte	.LVL35
 10060 0279 0100     		.2byte	0x1
 10061 027b 51       		.byte	0x51
 10062 027c 0C010000 		.4byte	.LVL59
 10063 0280 1E010000 		.4byte	.LVL61
 10064 0284 0100     		.2byte	0x1
 10065 0286 51       		.byte	0x51
 10066 0287 00000000 		.4byte	0
 10067 028b 00000000 		.4byte	0
 10068              	.LLST18:
 10069 028f 82000000 		.4byte	.LVL32
 10070 0293 92000000 		.4byte	.LVL35
 10071 0297 0900     		.2byte	0x9
 10072 0299 71       		.byte	0x71
 10073 029a 00       		.sleb128 0
 10074 029b 0A       		.byte	0xa
 10075 029c F07F     		.2byte	0x7ff0
 10076 029e 1A       		.byte	0x1a
 10077 029f 34       		.byte	0x34
 10078 02a0 25       		.byte	0x25
 10079 02a1 9F       		.byte	0x9f
 10080 02a2 1A010000 		.4byte	.LVL60
 10081 02a6 98010000 		.4byte	.LVL83
 10082 02aa 0100     		.2byte	0x1
 10083 02ac 56       		.byte	0x56
 10084 02ad 9C010000 		.4byte	.LVL84
 10085 02b1 60020000 		.4byte	.LVL106
 10086 02b5 0100     		.2byte	0x1
 10087 02b7 56       		.byte	0x56
 10088 02b8 00000000 		.4byte	0
 10089 02bc 00000000 		.4byte	0
 10090              	.LLST19:
 10091 02c0 82000000 		.4byte	.LVL32
 10092 02c4 86000000 		.4byte	.LVL33
 10093 02c8 0500     		.2byte	0x5
 10094 02ca 71       		.byte	0x71
 10095 02cb 00       		.sleb128 0
 10096 02cc 3F       		.byte	0x3f
 10097 02cd 1A       		.byte	0x1a
 10098 02ce 9F       		.byte	0x9f
 10099 02cf 86000000 		.4byte	.LVL33
 10100 02d3 96000000 		.4byte	.LVL36
 10101 02d7 0100     		.2byte	0x1
 10102 02d9 57       		.byte	0x57
 10103 02da 1A010000 		.4byte	.LVL60
ARM GAS  C:\Users\Matuesz\AppData\Local\Temp\ccLA85Wr.s 			page 179


 10104 02de 90010000 		.4byte	.LVL82
 10105 02e2 0300     		.2byte	0x3
 10106 02e4 77       		.byte	0x77
 10107 02e5 7E       		.sleb128 -2
 10108 02e6 9F       		.byte	0x9f
 10109 02e7 9C010000 		.4byte	.LVL84
 10110 02eb 60020000 		.4byte	.LVL106
 10111 02ef 0300     		.2byte	0x3
 10112 02f1 77       		.byte	0x77
 10113 02f2 7E       		.sleb128 -2
 10114 02f3 9F       		.byte	0x9f
 10115 02f4 00000000 		.4byte	0
 10116 02f8 00000000 		.4byte	0
 10117              	.LLST20:
 10118 02fc 96000000 		.4byte	.LVL36
 10119 0300 AC000000 		.4byte	.LVL40
 10120 0304 0200     		.2byte	0x2
 10121 0306 32       		.byte	0x32
 10122 0307 9F       		.byte	0x9f
 10123 0308 AC000000 		.4byte	.LVL40
 10124 030c B6000000 		.4byte	.LVL42
 10125 0310 0100     		.2byte	0x1
 10126 0312 53       		.byte	0x53
 10127 0313 B6000000 		.4byte	.LVL42
 10128 0317 BC000000 		.4byte	.LVL44
 10129 031b 0200     		.2byte	0x2
 10130 031d 31       		.byte	0x31
 10131 031e 9F       		.byte	0x9f
 10132 031f BC000000 		.4byte	.LVL44
 10133 0323 E2000000 		.4byte	.LVL51
 10134 0327 0100     		.2byte	0x1
 10135 0329 53       		.byte	0x53
 10136 032a 00000000 		.4byte	0
 10137 032e 00000000 		.4byte	0
 10138              	.LLST21:
 10139 0332 96000000 		.4byte	.LVL36
 10140 0336 B4000000 		.4byte	.LVL41
 10141 033a 0100     		.2byte	0x1
 10142 033c 55       		.byte	0x55
 10143 033d B4000000 		.4byte	.LVL41
 10144 0341 B8000000 		.4byte	.LVL43
 10145 0345 0300     		.2byte	0x3
 10146 0347 71       		.byte	0x71
 10147 0348 01       		.sleb128 1
 10148 0349 9F       		.byte	0x9f
 10149 034a B8000000 		.4byte	.LVL43
 10150 034e BC000000 		.4byte	.LVL44
 10151 0352 0300     		.2byte	0x3
 10152 0354 72       		.byte	0x72
 10153 0355 01       		.sleb128 1
 10154 0356 9F       		.byte	0x9f
 10155 0357 00000000 		.4byte	0
 10156 035b 00000000 		.4byte	0
 10157              	.LLST22:
 10158 035f 96000000 		.4byte	.LVL36
 10159 0363 E0000000 		.4byte	.LVL50
 10160 0367 0100     		.2byte	0x1
ARM GAS  C:\Users\Matuesz\AppData\Local\Temp\ccLA85Wr.s 			page 180


 10161 0369 57       		.byte	0x57
 10162 036a 00000000 		.4byte	0
 10163 036e 00000000 		.4byte	0
 10164              	.LLST23:
 10165 0372 96000000 		.4byte	.LVL36
 10166 0376 9C000000 		.4byte	.LVL37
 10167 037a 0400     		.2byte	0x4
 10168 037c 70       		.byte	0x70
 10169 037d 8020     		.sleb128 4096
 10170 037f 9F       		.byte	0x9f
 10171 0380 9C000000 		.4byte	.LVL37
 10172 0384 DC000000 		.4byte	.LVL49
 10173 0388 0100     		.2byte	0x1
 10174 038a 50       		.byte	0x50
 10175 038b DC000000 		.4byte	.LVL49
 10176 038f E2000000 		.4byte	.LVL51
 10177 0393 0800     		.2byte	0x8
 10178 0395 7B       		.byte	0x7b
 10179 0396 E800     		.sleb128 104
 10180 0398 06       		.byte	0x6
 10181 0399 23       		.byte	0x23
 10182 039a 8020     		.uleb128 0x1000
 10183 039c 9F       		.byte	0x9f
 10184 039d 00000000 		.4byte	0
 10185 03a1 00000000 		.4byte	0
 10186              	.LLST24:
 10187 03a5 A0000000 		.4byte	.LVL38
 10188 03a9 AC000000 		.4byte	.LVL40
 10189 03ad 0100     		.2byte	0x1
 10190 03af 53       		.byte	0x53
 10191 03b0 AC000000 		.4byte	.LVL40
 10192 03b4 B4000000 		.4byte	.LVL41
 10193 03b8 0200     		.2byte	0x2
 10194 03ba 77       		.byte	0x77
 10195 03bb 7C       		.sleb128 -4
 10196 03bc 00000000 		.4byte	0
 10197 03c0 00000000 		.4byte	0
 10198              	.LLST25:
 10199 03c4 28010000 		.4byte	.LVL63
 10200 03c8 2A010000 		.4byte	.LVL64
 10201 03cc 0700     		.2byte	0x7
 10202 03ce 72       		.byte	0x72
 10203 03cf 00       		.sleb128 0
 10204 03d0 71       		.byte	0x71
 10205 03d1 08       		.sleb128 8
 10206 03d2 06       		.byte	0x6
 10207 03d3 1C       		.byte	0x1c
 10208 03d4 9F       		.byte	0x9f
 10209 03d5 2A010000 		.4byte	.LVL64
 10210 03d9 30010000 		.4byte	.LVL66
 10211 03dd 0800     		.2byte	0x8
 10212 03df 71       		.byte	0x71
 10213 03e0 04       		.sleb128 4
 10214 03e1 06       		.byte	0x6
 10215 03e2 71       		.byte	0x71
 10216 03e3 08       		.sleb128 8
 10217 03e4 06       		.byte	0x6
ARM GAS  C:\Users\Matuesz\AppData\Local\Temp\ccLA85Wr.s 			page 181


 10218 03e5 1C       		.byte	0x1c
 10219 03e6 9F       		.byte	0x9f
 10220 03e7 30010000 		.4byte	.LVL66
 10221 03eb 4C010000 		.4byte	.LVL70
 10222 03ef 0100     		.2byte	0x1
 10223 03f1 53       		.byte	0x53
 10224 03f2 4C010000 		.4byte	.LVL70
 10225 03f6 50010000 		.4byte	.LVL71
 10226 03fa 0300     		.2byte	0x3
 10227 03fc 73       		.byte	0x73
 10228 03fd 01       		.sleb128 1
 10229 03fe 9F       		.byte	0x9f
 10230 03ff 50010000 		.4byte	.LVL71
 10231 0403 8C010000 		.4byte	.LVL81
 10232 0407 0100     		.2byte	0x1
 10233 0409 53       		.byte	0x53
 10234 040a 00000000 		.4byte	0
 10235 040e 00000000 		.4byte	0
 10236              	.LLST26:
 10237 0412 28010000 		.4byte	.LVL63
 10238 0416 2E010000 		.4byte	.LVL65
 10239 041a 0100     		.2byte	0x1
 10240 041c 56       		.byte	0x56
 10241 041d 2E010000 		.4byte	.LVL65
 10242 0421 32010000 		.4byte	.LVL67
 10243 0425 0500     		.2byte	0x5
 10244 0427 72       		.byte	0x72
 10245 0428 00       		.sleb128 0
 10246 0429 32       		.byte	0x32
 10247 042a 25       		.byte	0x25
 10248 042b 9F       		.byte	0x9f
 10249 042c 32010000 		.4byte	.LVL67
 10250 0430 52010000 		.4byte	.LVL72
 10251 0434 0100     		.2byte	0x1
 10252 0436 52       		.byte	0x52
 10253 0437 52010000 		.4byte	.LVL72
 10254 043b 66010000 		.4byte	.LVL75
 10255 043f 0500     		.2byte	0x5
 10256 0441 76       		.byte	0x76
 10257 0442 03       		.sleb128 3
 10258 0443 32       		.byte	0x32
 10259 0444 25       		.byte	0x25
 10260 0445 9F       		.byte	0x9f
 10261 0446 00000000 		.4byte	0
 10262 044a 00000000 		.4byte	0
 10263              	.LLST27:
 10264 044e 28010000 		.4byte	.LVL63
 10265 0452 50010000 		.4byte	.LVL71
 10266 0456 0100     		.2byte	0x1
 10267 0458 55       		.byte	0x55
 10268 0459 50010000 		.4byte	.LVL71
 10269 045d 88010000 		.4byte	.LVL80
 10270 0461 0100     		.2byte	0x1
 10271 0463 5E       		.byte	0x5e
 10272 0464 00000000 		.4byte	0
 10273 0468 00000000 		.4byte	0
 10274              	.LLST28:
ARM GAS  C:\Users\Matuesz\AppData\Local\Temp\ccLA85Wr.s 			page 182


 10275 046c 28010000 		.4byte	.LVL63
 10276 0470 38010000 		.4byte	.LVL68
 10277 0474 0400     		.2byte	0x4
 10278 0476 70       		.byte	0x70
 10279 0477 8020     		.sleb128 4096
 10280 0479 9F       		.byte	0x9f
 10281 047a 38010000 		.4byte	.LVL68
 10282 047e 88010000 		.4byte	.LVL80
 10283 0482 0100     		.2byte	0x1
 10284 0484 50       		.byte	0x50
 10285 0485 88010000 		.4byte	.LVL80
 10286 0489 8C010000 		.4byte	.LVL81
 10287 048d 0800     		.2byte	0x8
 10288 048f 7B       		.byte	0x7b
 10289 0490 E800     		.sleb128 104
 10290 0492 06       		.byte	0x6
 10291 0493 23       		.byte	0x23
 10292 0494 8020     		.uleb128 0x1000
 10293 0496 9F       		.byte	0x9f
 10294 0497 00000000 		.4byte	0
 10295 049b 00000000 		.4byte	0
 10296              	.LLST29:
 10297 049f 46010000 		.4byte	.LVL69
 10298 04a3 5E010000 		.4byte	.LVL73
 10299 04a7 0100     		.2byte	0x1
 10300 04a9 59       		.byte	0x59
 10301 04aa 00000000 		.4byte	0
 10302 04ae 00000000 		.4byte	0
 10303              	.LLST30:
 10304 04b2 A2010000 		.4byte	.LVL85
 10305 04b6 60020000 		.4byte	.LVL106
 10306 04ba 0100     		.2byte	0x1
 10307 04bc 56       		.byte	0x56
 10308 04bd 00000000 		.4byte	0
 10309 04c1 00000000 		.4byte	0
 10310              	.LLST31:
 10311 04c5 A2010000 		.4byte	.LVL85
 10312 04c9 60020000 		.4byte	.LVL106
 10313 04cd 0100     		.2byte	0x1
 10314 04cf 55       		.byte	0x55
 10315 04d0 00000000 		.4byte	0
 10316 04d4 00000000 		.4byte	0
 10317              	.LLST32:
 10318 04d8 A2010000 		.4byte	.LVL85
 10319 04dc 32020000 		.4byte	.LVL99
 10320 04e0 0100     		.2byte	0x1
 10321 04e2 50       		.byte	0x50
 10322 04e3 32020000 		.4byte	.LVL99
 10323 04e7 3A020000 		.4byte	.LVL100
 10324 04eb 0800     		.2byte	0x8
 10325 04ed 7B       		.byte	0x7b
 10326 04ee E800     		.sleb128 104
 10327 04f0 06       		.byte	0x6
 10328 04f1 23       		.byte	0x23
 10329 04f2 8020     		.uleb128 0x1000
 10330 04f4 9F       		.byte	0x9f
 10331 04f5 00000000 		.4byte	0
ARM GAS  C:\Users\Matuesz\AppData\Local\Temp\ccLA85Wr.s 			page 183


 10332 04f9 00000000 		.4byte	0
 10333              	.LLST33:
 10334 04fd A2010000 		.4byte	.LVL85
 10335 0501 AA010000 		.4byte	.LVL86
 10336 0505 0100     		.2byte	0x1
 10337 0507 56       		.byte	0x56
 10338 0508 AA010000 		.4byte	.LVL86
 10339 050c C2010000 		.4byte	.LVL90
 10340 0510 0100     		.2byte	0x1
 10341 0512 53       		.byte	0x53
 10342 0513 C2010000 		.4byte	.LVL90
 10343 0517 D6010000 		.4byte	.LVL91
 10344 051b 0300     		.2byte	0x3
 10345 051d 73       		.byte	0x73
 10346 051e 7F       		.sleb128 -1
 10347 051f 9F       		.byte	0x9f
 10348 0520 D6010000 		.4byte	.LVL91
 10349 0524 F2010000 		.4byte	.LVL92
 10350 0528 0300     		.2byte	0x3
 10351 052a 73       		.byte	0x73
 10352 052b 7E       		.sleb128 -2
 10353 052c 9F       		.byte	0x9f
 10354 052d F2010000 		.4byte	.LVL92
 10355 0531 0E020000 		.4byte	.LVL93
 10356 0535 0300     		.2byte	0x3
 10357 0537 73       		.byte	0x73
 10358 0538 7D       		.sleb128 -3
 10359 0539 9F       		.byte	0x9f
 10360 053a 0E020000 		.4byte	.LVL93
 10361 053e 24020000 		.4byte	.LVL95
 10362 0542 0300     		.2byte	0x3
 10363 0544 73       		.byte	0x73
 10364 0545 7C       		.sleb128 -4
 10365 0546 9F       		.byte	0x9f
 10366 0547 24020000 		.4byte	.LVL95
 10367 054b 26020000 		.4byte	.LVL96
 10368 054f 0100     		.2byte	0x1
 10369 0551 53       		.byte	0x53
 10370 0552 00000000 		.4byte	0
 10371 0556 00000000 		.4byte	0
 10372              	.LLST34:
 10373 055a C2010000 		.4byte	.LVL90
 10374 055e 12020000 		.4byte	.LVL94
 10375 0562 0100     		.2byte	0x1
 10376 0564 52       		.byte	0x52
 10377 0565 00000000 		.4byte	0
 10378 0569 00000000 		.4byte	0
 10379              	.LLST35:
 10380 056d C2010000 		.4byte	.LVL90
 10381 0571 D6010000 		.4byte	.LVL91
 10382 0575 0200     		.2byte	0x2
 10383 0577 31       		.byte	0x31
 10384 0578 9F       		.byte	0x9f
 10385 0579 D6010000 		.4byte	.LVL91
 10386 057d F2010000 		.4byte	.LVL92
 10387 0581 0200     		.2byte	0x2
 10388 0583 32       		.byte	0x32
ARM GAS  C:\Users\Matuesz\AppData\Local\Temp\ccLA85Wr.s 			page 184


 10389 0584 9F       		.byte	0x9f
 10390 0585 F2010000 		.4byte	.LVL92
 10391 0589 0E020000 		.4byte	.LVL93
 10392 058d 0200     		.2byte	0x2
 10393 058f 33       		.byte	0x33
 10394 0590 9F       		.byte	0x9f
 10395 0591 0E020000 		.4byte	.LVL93
 10396 0595 26020000 		.4byte	.LVL96
 10397 0599 0200     		.2byte	0x2
 10398 059b 34       		.byte	0x34
 10399 059c 9F       		.byte	0x9f
 10400 059d 00000000 		.4byte	0
 10401 05a1 00000000 		.4byte	0
 10402              	.LLST36:
 10403 05a5 AA010000 		.4byte	.LVL86
 10404 05a9 B0010000 		.4byte	.LVL87
 10405 05ad 0500     		.2byte	0x5
 10406 05af 73       		.byte	0x73
 10407 05b0 00       		.sleb128 0
 10408 05b1 32       		.byte	0x32
 10409 05b2 25       		.byte	0x25
 10410 05b3 9F       		.byte	0x9f
 10411 05b4 BC010000 		.4byte	.LVL88
 10412 05b8 C0010000 		.4byte	.LVL89
 10413 05bc 0500     		.2byte	0x5
 10414 05be 73       		.byte	0x73
 10415 05bf 00       		.sleb128 0
 10416 05c0 32       		.byte	0x32
 10417 05c1 25       		.byte	0x25
 10418 05c2 9F       		.byte	0x9f
 10419 05c3 00000000 		.4byte	0
 10420 05c7 00000000 		.4byte	0
 10421              	.LLST37:
 10422 05cb B0010000 		.4byte	.LVL87
 10423 05cf C0010000 		.4byte	.LVL89
 10424 05d3 0200     		.2byte	0x2
 10425 05d5 30       		.byte	0x30
 10426 05d6 9F       		.byte	0x9f
 10427 05d7 00000000 		.4byte	0
 10428 05db 00000000 		.4byte	0
 10429              	.LLST39:
 10430 05df 2E020000 		.4byte	.LVL98
 10431 05e3 3C020000 		.4byte	.LVL101
 10432 05e7 0100     		.2byte	0x1
 10433 05e9 53       		.byte	0x53
 10434 05ea 4E020000 		.4byte	.LVL103
 10435 05ee 51020000 		.4byte	.LVL104-1
 10436 05f2 0100     		.2byte	0x1
 10437 05f4 53       		.byte	0x53
 10438 05f5 00000000 		.4byte	0
 10439 05f9 00000000 		.4byte	0
 10440              	.LLST40:
 10441 05fd 3A020000 		.4byte	.LVL100
 10442 0601 4E020000 		.4byte	.LVL103
 10443 0605 0100     		.2byte	0x1
 10444 0607 55       		.byte	0x55
 10445 0608 00000000 		.4byte	0
ARM GAS  C:\Users\Matuesz\AppData\Local\Temp\ccLA85Wr.s 			page 185


 10446 060c 00000000 		.4byte	0
 10447              	.LLST41:
 10448 0610 3A020000 		.4byte	.LVL100
 10449 0614 43020000 		.4byte	.LVL102-1
 10450 0618 0100     		.2byte	0x1
 10451 061a 50       		.byte	0x50
 10452 061b 00000000 		.4byte	0
 10453 061f 00000000 		.4byte	0
 10454              	.LLST42:
 10455 0623 62000000 		.4byte	.LVL29
 10456 0627 90000000 		.4byte	.LVL34
 10457 062b 0100     		.2byte	0x1
 10458 062d 53       		.byte	0x53
 10459 062e E2000000 		.4byte	.LVL51
 10460 0632 E8000000 		.4byte	.LVL52
 10461 0636 0100     		.2byte	0x1
 10462 0638 53       		.byte	0x53
 10463 0639 0C010000 		.4byte	.LVL59
 10464 063d 20010000 		.4byte	.LVL62
 10465 0641 0100     		.2byte	0x1
 10466 0643 53       		.byte	0x53
 10467 0644 8C010000 		.4byte	.LVL81
 10468 0648 9C010000 		.4byte	.LVL84
 10469 064c 0100     		.2byte	0x1
 10470 064e 53       		.byte	0x53
 10471 064f 58020000 		.4byte	.LVL105
 10472 0653 60020000 		.4byte	.LVL106
 10473 0657 0100     		.2byte	0x1
 10474 0659 53       		.byte	0x53
 10475 065a 00000000 		.4byte	0
 10476 065e 00000000 		.4byte	0
 10477              	.LLST43:
 10478 0662 24000000 		.4byte	.LVL24
 10479 0666 28000000 		.4byte	.LVL25
 10480 066a 0100     		.2byte	0x1
 10481 066c 53       		.byte	0x53
 10482 066d 0A010000 		.4byte	.LVL58
 10483 0671 0C010000 		.4byte	.LVL59
 10484 0675 0100     		.2byte	0x1
 10485 0677 53       		.byte	0x53
 10486 0678 00000000 		.4byte	0
 10487 067c 00000000 		.4byte	0
 10488              	.LLST44:
 10489 0680 66020000 		.4byte	.LVL108
 10490 0684 7E020000 		.4byte	.LVL110
 10491 0688 0100     		.2byte	0x1
 10492 068a 53       		.byte	0x53
 10493 068b 00000000 		.4byte	0
 10494 068f 00000000 		.4byte	0
 10495              	.LLST45:
 10496 0693 86020000 		.4byte	.LVL111
 10497 0697 8C020000 		.4byte	.LVL112
 10498 069b 0100     		.2byte	0x1
 10499 069d 53       		.byte	0x53
 10500 069e 00000000 		.4byte	0
 10501 06a2 00000000 		.4byte	0
 10502              	.LLST46:
ARM GAS  C:\Users\Matuesz\AppData\Local\Temp\ccLA85Wr.s 			page 186


 10503 06a6 86020000 		.4byte	.LVL111
 10504 06aa B6020000 		.4byte	.LVL115
 10505 06ae 0100     		.2byte	0x1
 10506 06b0 54       		.byte	0x54
 10507 06b1 B6020000 		.4byte	.LVL115
 10508 06b5 C4020000 		.4byte	.LVL116
 10509 06b9 0300     		.2byte	0x3
 10510 06bb 74       		.byte	0x74
 10511 06bc 7F       		.sleb128 -1
 10512 06bd 9F       		.byte	0x9f
 10513 06be C4020000 		.4byte	.LVL116
 10514 06c2 50030000 		.4byte	.LVL126
 10515 06c6 0600     		.2byte	0x6
 10516 06c8 91       		.byte	0x91
 10517 06c9 54       		.sleb128 -44
 10518 06ca 06       		.byte	0x6
 10519 06cb 31       		.byte	0x31
 10520 06cc 1C       		.byte	0x1c
 10521 06cd 9F       		.byte	0x9f
 10522 06ce 7A030000 		.4byte	.LVL131
 10523 06d2 8E040000 		.4byte	.LVL166
 10524 06d6 0600     		.2byte	0x6
 10525 06d8 91       		.byte	0x91
 10526 06d9 54       		.sleb128 -44
 10527 06da 06       		.byte	0x6
 10528 06db 31       		.byte	0x31
 10529 06dc 1C       		.byte	0x1c
 10530 06dd 9F       		.byte	0x9f
 10531 06de 8E040000 		.4byte	.LVL166
 10532 06e2 92040000 		.4byte	.LVL167
 10533 06e6 0100     		.2byte	0x1
 10534 06e8 54       		.byte	0x54
 10535 06e9 00000000 		.4byte	0
 10536 06ed 00000000 		.4byte	0
 10537              	.LLST47:
 10538 06f1 A8020000 		.4byte	.LVL113
 10539 06f5 B2020000 		.4byte	.LVL114
 10540 06f9 0100     		.2byte	0x1
 10541 06fb 56       		.byte	0x56
 10542 06fc B2020000 		.4byte	.LVL114
 10543 0700 32030000 		.4byte	.LVL123
 10544 0704 0100     		.2byte	0x1
 10545 0706 55       		.byte	0x55
 10546 0707 3C030000 		.4byte	.LVL124
 10547 070b 50030000 		.4byte	.LVL126
 10548 070f 0100     		.2byte	0x1
 10549 0711 55       		.byte	0x55
 10550 0712 7A030000 		.4byte	.LVL131
 10551 0716 8A030000 		.4byte	.LVL133
 10552 071a 0100     		.2byte	0x1
 10553 071c 55       		.byte	0x55
 10554 071d 8A030000 		.4byte	.LVL133
 10555 0721 F0030000 		.4byte	.LVL146
 10556 0725 0100     		.2byte	0x1
 10557 0727 5E       		.byte	0x5e
 10558 0728 F0030000 		.4byte	.LVL146
 10559 072c 22040000 		.4byte	.LVL156
ARM GAS  C:\Users\Matuesz\AppData\Local\Temp\ccLA85Wr.s 			page 187


 10560 0730 0100     		.2byte	0x1
 10561 0732 55       		.byte	0x55
 10562 0733 22040000 		.4byte	.LVL156
 10563 0737 8E040000 		.4byte	.LVL166
 10564 073b 0100     		.2byte	0x1
 10565 073d 5E       		.byte	0x5e
 10566 073e 00000000 		.4byte	0
 10567 0742 00000000 		.4byte	0
 10568              	.LLST48:
 10569 0746 D8020000 		.4byte	.LVL117
 10570 074a 1C030000 		.4byte	.LVL121
 10571 074e 0100     		.2byte	0x1
 10572 0750 55       		.byte	0x55
 10573 0751 00000000 		.4byte	0
 10574 0755 00000000 		.4byte	0
 10575              	.LLST49:
 10576 0759 D8020000 		.4byte	.LVL117
 10577 075d 1C030000 		.4byte	.LVL121
 10578 0761 0100     		.2byte	0x1
 10579 0763 57       		.byte	0x57
 10580 0764 00000000 		.4byte	0
 10581 0768 00000000 		.4byte	0
 10582              	.LLST50:
 10583 076c D8020000 		.4byte	.LVL117
 10584 0770 1A030000 		.4byte	.LVL120
 10585 0774 0100     		.2byte	0x1
 10586 0776 54       		.byte	0x54
 10587 0777 00000000 		.4byte	0
 10588 077b 00000000 		.4byte	0
 10589              	.LLST51:
 10590 077f D8020000 		.4byte	.LVL117
 10591 0783 04030000 		.4byte	.LVL119
 10592 0787 0100     		.2byte	0x1
 10593 0789 5E       		.byte	0x5e
 10594 078a 00000000 		.4byte	0
 10595 078e 00000000 		.4byte	0
 10596              	.LLST52:
 10597 0792 D8020000 		.4byte	.LVL117
 10598 0796 F2020000 		.4byte	.LVL118
 10599 079a 0100     		.2byte	0x1
 10600 079c 57       		.byte	0x57
 10601 079d 00000000 		.4byte	0
 10602 07a1 00000000 		.4byte	0
 10603              	.LLST54:
 10604 07a5 80030000 		.4byte	.LVL132
 10605 07a9 8A030000 		.4byte	.LVL133
 10606 07ad 0100     		.2byte	0x1
 10607 07af 55       		.byte	0x55
 10608 07b0 8A030000 		.4byte	.LVL133
 10609 07b4 F0030000 		.4byte	.LVL146
 10610 07b8 0100     		.2byte	0x1
 10611 07ba 5E       		.byte	0x5e
 10612 07bb F0030000 		.4byte	.LVL146
 10613 07bf 22040000 		.4byte	.LVL156
 10614 07c3 0100     		.2byte	0x1
 10615 07c5 55       		.byte	0x55
 10616 07c6 22040000 		.4byte	.LVL156
ARM GAS  C:\Users\Matuesz\AppData\Local\Temp\ccLA85Wr.s 			page 188


 10617 07ca 8E040000 		.4byte	.LVL166
 10618 07ce 0100     		.2byte	0x1
 10619 07d0 5E       		.byte	0x5e
 10620 07d1 00000000 		.4byte	0
 10621 07d5 00000000 		.4byte	0
 10622              	.LLST55:
 10623 07d9 80030000 		.4byte	.LVL132
 10624 07dd 8E040000 		.4byte	.LVL166
 10625 07e1 0100     		.2byte	0x1
 10626 07e3 54       		.byte	0x54
 10627 07e4 00000000 		.4byte	0
 10628 07e8 00000000 		.4byte	0
 10629              	.LLST56:
 10630 07ec 80030000 		.4byte	.LVL132
 10631 07f0 F8030000 		.4byte	.LVL149
 10632 07f4 0100     		.2byte	0x1
 10633 07f6 51       		.byte	0x51
 10634 07f7 22040000 		.4byte	.LVL156
 10635 07fb 8E040000 		.4byte	.LVL166
 10636 07ff 0100     		.2byte	0x1
 10637 0801 51       		.byte	0x51
 10638 0802 00000000 		.4byte	0
 10639 0806 00000000 		.4byte	0
 10640              	.LLST57:
 10641 080a 80030000 		.4byte	.LVL132
 10642 080e 8A030000 		.4byte	.LVL133
 10643 0812 0100     		.2byte	0x1
 10644 0814 55       		.byte	0x55
 10645 0815 8A030000 		.4byte	.LVL133
 10646 0819 F0030000 		.4byte	.LVL146
 10647 081d 0100     		.2byte	0x1
 10648 081f 52       		.byte	0x52
 10649 0820 22040000 		.4byte	.LVL156
 10650 0824 2C040000 		.4byte	.LVL158
 10651 0828 0100     		.2byte	0x1
 10652 082a 52       		.byte	0x52
 10653 082b 2C040000 		.4byte	.LVL158
 10654 082f 50040000 		.4byte	.LVL159
 10655 0833 0300     		.2byte	0x3
 10656 0835 72       		.byte	0x72
 10657 0836 7F       		.sleb128 -1
 10658 0837 9F       		.byte	0x9f
 10659 0838 50040000 		.4byte	.LVL159
 10660 083c 68040000 		.4byte	.LVL160
 10661 0840 0300     		.2byte	0x3
 10662 0842 72       		.byte	0x72
 10663 0843 7E       		.sleb128 -2
 10664 0844 9F       		.byte	0x9f
 10665 0845 68040000 		.4byte	.LVL160
 10666 0849 7C040000 		.4byte	.LVL161
 10667 084d 0300     		.2byte	0x3
 10668 084f 72       		.byte	0x72
 10669 0850 7D       		.sleb128 -3
 10670 0851 9F       		.byte	0x9f
 10671 0852 7C040000 		.4byte	.LVL161
 10672 0856 80040000 		.4byte	.LVL162
 10673 085a 0300     		.2byte	0x3
ARM GAS  C:\Users\Matuesz\AppData\Local\Temp\ccLA85Wr.s 			page 189


 10674 085c 72       		.byte	0x72
 10675 085d 01       		.sleb128 1
 10676 085e 9F       		.byte	0x9f
 10677 085f 84040000 		.4byte	.LVL164
 10678 0863 8A040000 		.4byte	.LVL165
 10679 0867 0100     		.2byte	0x1
 10680 0869 52       		.byte	0x52
 10681 086a 00000000 		.4byte	0
 10682 086e 00000000 		.4byte	0
 10683              	.LLST58:
 10684 0872 26040000 		.4byte	.LVL157
 10685 0876 2C040000 		.4byte	.LVL158
 10686 087a 0200     		.2byte	0x2
 10687 087c 30       		.byte	0x30
 10688 087d 9F       		.byte	0x9f
 10689 087e 2C040000 		.4byte	.LVL158
 10690 0882 8E040000 		.4byte	.LVL166
 10691 0886 0100     		.2byte	0x1
 10692 0888 53       		.byte	0x53
 10693 0889 00000000 		.4byte	0
 10694 088d 00000000 		.4byte	0
 10695              	.LLST59:
 10696 0891 26040000 		.4byte	.LVL157
 10697 0895 2C040000 		.4byte	.LVL158
 10698 0899 0200     		.2byte	0x2
 10699 089b 30       		.byte	0x30
 10700 089c 9F       		.byte	0x9f
 10701 089d 2C040000 		.4byte	.LVL158
 10702 08a1 50040000 		.4byte	.LVL159
 10703 08a5 0200     		.2byte	0x2
 10704 08a7 31       		.byte	0x31
 10705 08a8 9F       		.byte	0x9f
 10706 08a9 50040000 		.4byte	.LVL159
 10707 08ad 68040000 		.4byte	.LVL160
 10708 08b1 0200     		.2byte	0x2
 10709 08b3 32       		.byte	0x32
 10710 08b4 9F       		.byte	0x9f
 10711 08b5 68040000 		.4byte	.LVL160
 10712 08b9 80040000 		.4byte	.LVL162
 10713 08bd 0200     		.2byte	0x2
 10714 08bf 33       		.byte	0x33
 10715 08c0 9F       		.byte	0x9f
 10716 08c1 80040000 		.4byte	.LVL162
 10717 08c5 82040000 		.4byte	.LVL163
 10718 08c9 0200     		.2byte	0x2
 10719 08cb 34       		.byte	0x34
 10720 08cc 9F       		.byte	0x9f
 10721 08cd 00000000 		.4byte	0
 10722 08d1 00000000 		.4byte	0
 10723              	.LLST60:
 10724 08d5 8A030000 		.4byte	.LVL133
 10725 08d9 8C030000 		.4byte	.LVL134
 10726 08dd 0500     		.2byte	0x5
 10727 08df 72       		.byte	0x72
 10728 08e0 00       		.sleb128 0
 10729 08e1 32       		.byte	0x32
 10730 08e2 25       		.byte	0x25
ARM GAS  C:\Users\Matuesz\AppData\Local\Temp\ccLA85Wr.s 			page 190


 10731 08e3 9F       		.byte	0x9f
 10732 08e4 8C030000 		.4byte	.LVL134
 10733 08e8 AC030000 		.4byte	.LVL138
 10734 08ec 0100     		.2byte	0x1
 10735 08ee 57       		.byte	0x57
 10736 08ef 00000000 		.4byte	0
 10737 08f3 00000000 		.4byte	0
 10738              	.LLST61:
 10739 08f7 9E030000 		.4byte	.LVL136
 10740 08fb B2030000 		.4byte	.LVL139
 10741 08ff 0100     		.2byte	0x1
 10742 0901 53       		.byte	0x53
 10743 0902 B2030000 		.4byte	.LVL139
 10744 0906 C8030000 		.4byte	.LVL141
 10745 090a 0300     		.2byte	0x3
 10746 090c 73       		.byte	0x73
 10747 090d 01       		.sleb128 1
 10748 090e 9F       		.byte	0x9f
 10749 090f C8030000 		.4byte	.LVL141
 10750 0913 CC030000 		.4byte	.LVL143
 10751 0917 0300     		.2byte	0x3
 10752 0919 73       		.byte	0x73
 10753 091a 02       		.sleb128 2
 10754 091b 9F       		.byte	0x9f
 10755 091c 00000000 		.4byte	0
 10756 0920 00000000 		.4byte	0
 10757              	.LLST62:
 10758 0924 90030000 		.4byte	.LVL135
 10759 0928 E0030000 		.4byte	.LVL144
 10760 092c 0800     		.2byte	0x8
 10761 092e 70       		.byte	0x70
 10762 092f 00       		.sleb128 0
 10763 0930 75       		.byte	0x75
 10764 0931 00       		.sleb128 0
 10765 0932 1C       		.byte	0x1c
 10766 0933 34       		.byte	0x34
 10767 0934 1B       		.byte	0x1b
 10768 0935 9F       		.byte	0x9f
 10769 0936 E0030000 		.4byte	.LVL144
 10770 093a EE030000 		.4byte	.LVL145
 10771 093e 0900     		.2byte	0x9
 10772 0940 70       		.byte	0x70
 10773 0941 00       		.sleb128 0
 10774 0942 74       		.byte	0x74
 10775 0943 18       		.sleb128 24
 10776 0944 06       		.byte	0x6
 10777 0945 1C       		.byte	0x1c
 10778 0946 34       		.byte	0x34
 10779 0947 1B       		.byte	0x1b
 10780 0948 9F       		.byte	0x9f
 10781 0949 22040000 		.4byte	.LVL156
 10782 094d 26040000 		.4byte	.LVL157
 10783 0951 0900     		.2byte	0x9
 10784 0953 70       		.byte	0x70
 10785 0954 00       		.sleb128 0
 10786 0955 74       		.byte	0x74
 10787 0956 18       		.sleb128 24
ARM GAS  C:\Users\Matuesz\AppData\Local\Temp\ccLA85Wr.s 			page 191


 10788 0957 06       		.byte	0x6
 10789 0958 1C       		.byte	0x1c
 10790 0959 34       		.byte	0x34
 10791 095a 1B       		.byte	0x1b
 10792 095b 9F       		.byte	0x9f
 10793 095c 00000000 		.4byte	0
 10794 0960 00000000 		.4byte	0
 10795              	.LLST63:
 10796 0964 A6030000 		.4byte	.LVL137
 10797 0968 B6030000 		.4byte	.LVL140
 10798 096c 0100     		.2byte	0x1
 10799 096e 55       		.byte	0x55
 10800 096f 00000000 		.4byte	0
 10801 0973 00000000 		.4byte	0
 10802              	.LLST64:
 10803 0977 A6030000 		.4byte	.LVL137
 10804 097b B2030000 		.4byte	.LVL139
 10805 097f 0100     		.2byte	0x1
 10806 0981 53       		.byte	0x53
 10807 0982 B2030000 		.4byte	.LVL139
 10808 0986 C8030000 		.4byte	.LVL141
 10809 098a 0300     		.2byte	0x3
 10810 098c 73       		.byte	0x73
 10811 098d 01       		.sleb128 1
 10812 098e 9F       		.byte	0x9f
 10813 098f C8030000 		.4byte	.LVL141
 10814 0993 CA030000 		.4byte	.LVL142
 10815 0997 0300     		.2byte	0x3
 10816 0999 73       		.byte	0x73
 10817 099a 02       		.sleb128 2
 10818 099b 9F       		.byte	0x9f
 10819 099c 00000000 		.4byte	0
 10820 09a0 00000000 		.4byte	0
 10821              	.LLST65:
 10822 09a4 F6030000 		.4byte	.LVL148
 10823 09a8 04040000 		.4byte	.LVL151
 10824 09ac 0100     		.2byte	0x1
 10825 09ae 53       		.byte	0x53
 10826 09af 16040000 		.4byte	.LVL153
 10827 09b3 19040000 		.4byte	.LVL154-1
 10828 09b7 0100     		.2byte	0x1
 10829 09b9 53       		.byte	0x53
 10830 09ba 00000000 		.4byte	0
 10831 09be 00000000 		.4byte	0
 10832              	.LLST66:
 10833 09c2 02040000 		.4byte	.LVL150
 10834 09c6 16040000 		.4byte	.LVL153
 10835 09ca 0100     		.2byte	0x1
 10836 09cc 54       		.byte	0x54
 10837 09cd 00000000 		.4byte	0
 10838 09d1 00000000 		.4byte	0
 10839              	.LLST67:
 10840 09d5 02040000 		.4byte	.LVL150
 10841 09d9 0B040000 		.4byte	.LVL152-1
 10842 09dd 0100     		.2byte	0x1
 10843 09df 50       		.byte	0x50
 10844 09e0 00000000 		.4byte	0
ARM GAS  C:\Users\Matuesz\AppData\Local\Temp\ccLA85Wr.s 			page 192


 10845 09e4 00000000 		.4byte	0
 10846              	.LLST68:
 10847 09e8 1C030000 		.4byte	.LVL121
 10848 09ec 28030000 		.4byte	.LVL122
 10849 09f0 0100     		.2byte	0x1
 10850 09f2 53       		.byte	0x53
 10851 09f3 20040000 		.4byte	.LVL155
 10852 09f7 22040000 		.4byte	.LVL156
 10853 09fb 0100     		.2byte	0x1
 10854 09fd 53       		.byte	0x53
 10855 09fe 00000000 		.4byte	0
 10856 0a02 00000000 		.4byte	0
 10857              	.LLST69:
 10858 0a06 56030000 		.4byte	.LVL128
 10859 0a0a 74030000 		.4byte	.LVL129
 10860 0a0e 0100     		.2byte	0x1
 10861 0a10 53       		.byte	0x53
 10862 0a11 00000000 		.4byte	0
 10863 0a15 00000000 		.4byte	0
 10864              	.LLST70:
 10865 0a19 F6000000 		.4byte	.LVL54
 10866 0a1d FC000000 		.4byte	.LVL55
 10867 0a21 0100     		.2byte	0x1
 10868 0a23 53       		.byte	0x53
 10869 0a24 78030000 		.4byte	.LVL130
 10870 0a28 7A030000 		.4byte	.LVL131
 10871 0a2c 0100     		.2byte	0x1
 10872 0a2e 53       		.byte	0x53
 10873 0a2f 00000000 		.4byte	0
 10874 0a33 00000000 		.4byte	0
 10875              	.LLST71:
 10876 0a37 00000000 		.4byte	.LFB139
 10877 0a3b 02000000 		.4byte	.LCFI4
 10878 0a3f 0200     		.2byte	0x2
 10879 0a41 7D       		.byte	0x7d
 10880 0a42 00       		.sleb128 0
 10881 0a43 02000000 		.4byte	.LCFI4
 10882 0a47 4C000000 		.4byte	.LFE139
 10883 0a4b 0200     		.2byte	0x2
 10884 0a4d 7D       		.byte	0x7d
 10885 0a4e 10       		.sleb128 16
 10886 0a4f 00000000 		.4byte	0
 10887 0a53 00000000 		.4byte	0
 10888              	.LLST72:
 10889 0a57 00000000 		.4byte	.LFB140
 10890 0a5b 02000000 		.4byte	.LCFI5
 10891 0a5f 0200     		.2byte	0x2
 10892 0a61 7D       		.byte	0x7d
 10893 0a62 00       		.sleb128 0
 10894 0a63 02000000 		.4byte	.LCFI5
 10895 0a67 0A000000 		.4byte	.LCFI6
 10896 0a6b 0200     		.2byte	0x2
 10897 0a6d 7D       		.byte	0x7d
 10898 0a6e 10       		.sleb128 16
 10899 0a6f 0A000000 		.4byte	.LCFI6
 10900 0a73 20010000 		.4byte	.LFE140
 10901 0a77 0200     		.2byte	0x2
ARM GAS  C:\Users\Matuesz\AppData\Local\Temp\ccLA85Wr.s 			page 193


 10902 0a79 7D       		.byte	0x7d
 10903 0a7a 18       		.sleb128 24
 10904 0a7b 00000000 		.4byte	0
 10905 0a7f 00000000 		.4byte	0
 10906              	.LLST73:
 10907 0a83 00000000 		.4byte	.LVL170
 10908 0a87 0E000000 		.4byte	.LVL172
 10909 0a8b 0100     		.2byte	0x1
 10910 0a8d 50       		.byte	0x50
 10911 0a8e 0E000000 		.4byte	.LVL172
 10912 0a92 12000000 		.4byte	.LVL173
 10913 0a96 0100     		.2byte	0x1
 10914 0a98 55       		.byte	0x55
 10915 0a99 12000000 		.4byte	.LVL173
 10916 0a9d 14000000 		.4byte	.LVL174
 10917 0aa1 0100     		.2byte	0x1
 10918 0aa3 50       		.byte	0x50
 10919 0aa4 14000000 		.4byte	.LVL174
 10920 0aa8 20010000 		.4byte	.LFE140
 10921 0aac 0100     		.2byte	0x1
 10922 0aae 55       		.byte	0x55
 10923 0aaf 00000000 		.4byte	0
 10924 0ab3 00000000 		.4byte	0
 10925              	.LLST74:
 10926 0ab7 4C000000 		.4byte	.LVL175
 10927 0abb A0000000 		.4byte	.LVL180
 10928 0abf 0100     		.2byte	0x1
 10929 0ac1 55       		.byte	0x55
 10930 0ac2 00000000 		.4byte	0
 10931 0ac6 00000000 		.4byte	0
 10932              	.LLST75:
 10933 0aca 4C000000 		.4byte	.LVL175
 10934 0ace 68000000 		.4byte	.LVL178
 10935 0ad2 0100     		.2byte	0x1
 10936 0ad4 54       		.byte	0x54
 10937 0ad5 00000000 		.4byte	0
 10938 0ad9 00000000 		.4byte	0
 10939              	.LLST76:
 10940 0add 00000000 		.4byte	.LFB141
 10941 0ae1 02000000 		.4byte	.LCFI7
 10942 0ae5 0200     		.2byte	0x2
 10943 0ae7 7D       		.byte	0x7d
 10944 0ae8 00       		.sleb128 0
 10945 0ae9 02000000 		.4byte	.LCFI7
 10946 0aed 1E000000 		.4byte	.LFE141
 10947 0af1 0200     		.2byte	0x2
 10948 0af3 7D       		.byte	0x7d
 10949 0af4 10       		.sleb128 16
 10950 0af5 00000000 		.4byte	0
 10951 0af9 00000000 		.4byte	0
 10952              	.LLST77:
 10953 0afd 00000000 		.4byte	.LVL184
 10954 0b01 0F000000 		.4byte	.LVL186-1
 10955 0b05 0100     		.2byte	0x1
 10956 0b07 50       		.byte	0x50
 10957 0b08 0F000000 		.4byte	.LVL186-1
 10958 0b0c 1E000000 		.4byte	.LFE141
ARM GAS  C:\Users\Matuesz\AppData\Local\Temp\ccLA85Wr.s 			page 194


 10959 0b10 0100     		.2byte	0x1
 10960 0b12 54       		.byte	0x54
 10961 0b13 00000000 		.4byte	0
 10962 0b17 00000000 		.4byte	0
 10963              	.LLST78:
 10964 0b1b 00000000 		.4byte	.LFB142
 10965 0b1f 04000000 		.4byte	.LCFI8
 10966 0b23 0200     		.2byte	0x2
 10967 0b25 7D       		.byte	0x7d
 10968 0b26 00       		.sleb128 0
 10969 0b27 04000000 		.4byte	.LCFI8
 10970 0b2b 2C010000 		.4byte	.LFE142
 10971 0b2f 0200     		.2byte	0x2
 10972 0b31 7D       		.byte	0x7d
 10973 0b32 28       		.sleb128 40
 10974 0b33 00000000 		.4byte	0
 10975 0b37 00000000 		.4byte	0
 10976              	.LLST79:
 10977 0b3b 00000000 		.4byte	.LVL187
 10978 0b3f 0D000000 		.4byte	.LVL189-1
 10979 0b43 0100     		.2byte	0x1
 10980 0b45 50       		.byte	0x50
 10981 0b46 0D000000 		.4byte	.LVL189-1
 10982 0b4a 2C010000 		.4byte	.LFE142
 10983 0b4e 0100     		.2byte	0x1
 10984 0b50 58       		.byte	0x58
 10985 0b51 00000000 		.4byte	0
 10986 0b55 00000000 		.4byte	0
 10987              	.LLST80:
 10988 0b59 C0000000 		.4byte	.LVL191
 10989 0b5d CF000000 		.4byte	.LVL192-1
 10990 0b61 0100     		.2byte	0x1
 10991 0b63 52       		.byte	0x52
 10992 0b64 00000000 		.4byte	0
 10993 0b68 00000000 		.4byte	0
 10994              	.LLST81:
 10995 0b6c 00000000 		.4byte	.LVL194
 10996 0b70 0E000000 		.4byte	.LVL196
 10997 0b74 0100     		.2byte	0x1
 10998 0b76 50       		.byte	0x50
 10999 0b77 0E000000 		.4byte	.LVL196
 11000 0b7b 18000000 		.4byte	.LFE143
 11001 0b7f 0400     		.2byte	0x4
 11002 0b81 F3       		.byte	0xf3
 11003 0b82 01       		.uleb128 0x1
 11004 0b83 50       		.byte	0x50
 11005 0b84 9F       		.byte	0x9f
 11006 0b85 00000000 		.4byte	0
 11007 0b89 00000000 		.4byte	0
 11008              	.LLST82:
 11009 0b8d 00000000 		.4byte	.LFB144
 11010 0b91 04000000 		.4byte	.LCFI9
 11011 0b95 0200     		.2byte	0x2
 11012 0b97 7D       		.byte	0x7d
 11013 0b98 00       		.sleb128 0
 11014 0b99 04000000 		.4byte	.LCFI9
 11015 0b9d 3A010000 		.4byte	.LFE144
ARM GAS  C:\Users\Matuesz\AppData\Local\Temp\ccLA85Wr.s 			page 195


 11016 0ba1 0200     		.2byte	0x2
 11017 0ba3 7D       		.byte	0x7d
 11018 0ba4 18       		.sleb128 24
 11019 0ba5 00000000 		.4byte	0
 11020 0ba9 00000000 		.4byte	0
 11021              	.LLST83:
 11022 0bad 00000000 		.4byte	.LVL197
 11023 0bb1 16000000 		.4byte	.LVL199
 11024 0bb5 0100     		.2byte	0x1
 11025 0bb7 50       		.byte	0x50
 11026 0bb8 16000000 		.4byte	.LVL199
 11027 0bbc 9A000000 		.4byte	.LVL206
 11028 0bc0 0100     		.2byte	0x1
 11029 0bc2 56       		.byte	0x56
 11030 0bc3 9A000000 		.4byte	.LVL206
 11031 0bc7 A1000000 		.4byte	.LVL207-1
 11032 0bcb 0100     		.2byte	0x1
 11033 0bcd 50       		.byte	0x50
 11034 0bce A1000000 		.4byte	.LVL207-1
 11035 0bd2 CA000000 		.4byte	.LVL208
 11036 0bd6 0400     		.2byte	0x4
 11037 0bd8 F3       		.byte	0xf3
 11038 0bd9 01       		.uleb128 0x1
 11039 0bda 50       		.byte	0x50
 11040 0bdb 9F       		.byte	0x9f
 11041 0bdc CA000000 		.4byte	.LVL208
 11042 0be0 3A010000 		.4byte	.LFE144
 11043 0be4 0100     		.2byte	0x1
 11044 0be6 56       		.byte	0x56
 11045 0be7 00000000 		.4byte	0
 11046 0beb 00000000 		.4byte	0
 11047              	.LLST84:
 11048 0bef 00000000 		.4byte	.LVL197
 11049 0bf3 26000000 		.4byte	.LVL200
 11050 0bf7 0100     		.2byte	0x1
 11051 0bf9 51       		.byte	0x51
 11052 0bfa 26000000 		.4byte	.LVL200
 11053 0bfe CA000000 		.4byte	.LVL208
 11054 0c02 0400     		.2byte	0x4
 11055 0c04 F3       		.byte	0xf3
 11056 0c05 01       		.uleb128 0x1
 11057 0c06 51       		.byte	0x51
 11058 0c07 9F       		.byte	0x9f
 11059 0c08 CA000000 		.4byte	.LVL208
 11060 0c0c D6000000 		.4byte	.LVL212
 11061 0c10 0100     		.2byte	0x1
 11062 0c12 51       		.byte	0x51
 11063 0c13 D6000000 		.4byte	.LVL212
 11064 0c17 3A010000 		.4byte	.LFE144
 11065 0c1b 0400     		.2byte	0x4
 11066 0c1d F3       		.byte	0xf3
 11067 0c1e 01       		.uleb128 0x1
 11068 0c1f 51       		.byte	0x51
 11069 0c20 9F       		.byte	0x9f
 11070 0c21 00000000 		.4byte	0
 11071 0c25 00000000 		.4byte	0
 11072              	.LLST85:
ARM GAS  C:\Users\Matuesz\AppData\Local\Temp\ccLA85Wr.s 			page 196


 11073 0c29 34000000 		.4byte	.LVL201
 11074 0c2d CA000000 		.4byte	.LVL208
 11075 0c31 0100     		.2byte	0x1
 11076 0c33 58       		.byte	0x58
 11077 0c34 CA000000 		.4byte	.LVL208
 11078 0c38 CE000000 		.4byte	.LVL209
 11079 0c3c 0600     		.2byte	0x6
 11080 0c3e 0C       		.byte	0xc
 11081 0c3f 00800810 		.4byte	0x10088000
 11082 0c43 9F       		.byte	0x9f
 11083 0c44 D0000000 		.4byte	.LVL210
 11084 0c48 D4000000 		.4byte	.LVL211
 11085 0c4c 0600     		.2byte	0x6
 11086 0c4e 0C       		.byte	0xc
 11087 0c4f 00800C10 		.4byte	0x100c8000
 11088 0c53 9F       		.byte	0x9f
 11089 0c54 D6000000 		.4byte	.LVL212
 11090 0c58 3A010000 		.4byte	.LFE144
 11091 0c5c 0100     		.2byte	0x1
 11092 0c5e 58       		.byte	0x58
 11093 0c5f 00000000 		.4byte	0
 11094 0c63 00000000 		.4byte	0
 11095              	.LLST86:
 11096 0c67 7C000000 		.4byte	.LVL202
 11097 0c6b 94000000 		.4byte	.LVL205
 11098 0c6f 0100     		.2byte	0x1
 11099 0c71 53       		.byte	0x53
 11100 0c72 00000000 		.4byte	0
 11101 0c76 00000000 		.4byte	0
 11102              	.LLST87:
 11103 0c7a 82000000 		.4byte	.LVL203
 11104 0c7e 94000000 		.4byte	.LVL205
 11105 0c82 0100     		.2byte	0x1
 11106 0c84 53       		.byte	0x53
 11107 0c85 00000000 		.4byte	0
 11108 0c89 00000000 		.4byte	0
 11109              	.LLST88:
 11110 0c8d 82000000 		.4byte	.LVL203
 11111 0c91 9A000000 		.4byte	.LVL206
 11112 0c95 0100     		.2byte	0x1
 11113 0c97 56       		.byte	0x56
 11114 0c98 9A000000 		.4byte	.LVL206
 11115 0c9c A1000000 		.4byte	.LVL207-1
 11116 0ca0 0100     		.2byte	0x1
 11117 0ca2 50       		.byte	0x50
 11118 0ca3 A1000000 		.4byte	.LVL207-1
 11119 0ca7 CA000000 		.4byte	.LVL208
 11120 0cab 0400     		.2byte	0x4
 11121 0cad F3       		.byte	0xf3
 11122 0cae 01       		.uleb128 0x1
 11123 0caf 50       		.byte	0x50
 11124 0cb0 9F       		.byte	0x9f
 11125 0cb1 00000000 		.4byte	0
 11126 0cb5 00000000 		.4byte	0
 11127              	.LLST89:
 11128 0cb9 84000000 		.4byte	.LVL204
 11129 0cbd A1000000 		.4byte	.LVL207-1
ARM GAS  C:\Users\Matuesz\AppData\Local\Temp\ccLA85Wr.s 			page 197


 11130 0cc1 0100     		.2byte	0x1
 11131 0cc3 52       		.byte	0x52
 11132 0cc4 00000000 		.4byte	0
 11133 0cc8 00000000 		.4byte	0
 11134              	.LLST90:
 11135 0ccc 00000000 		.4byte	.LVL214
 11136 0cd0 09000000 		.4byte	.LVL215-1
 11137 0cd4 0100     		.2byte	0x1
 11138 0cd6 50       		.byte	0x50
 11139 0cd7 09000000 		.4byte	.LVL215-1
 11140 0cdb 0A000000 		.4byte	.LFE145
 11141 0cdf 0400     		.2byte	0x4
 11142 0ce1 F3       		.byte	0xf3
 11143 0ce2 01       		.uleb128 0x1
 11144 0ce3 50       		.byte	0x50
 11145 0ce4 9F       		.byte	0x9f
 11146 0ce5 00000000 		.4byte	0
 11147 0ce9 00000000 		.4byte	0
 11148              	.LLST92:
 11149 0ced 00000000 		.4byte	.LVL216
 11150 0cf1 0C000000 		.4byte	.LVL219
 11151 0cf5 0100     		.2byte	0x1
 11152 0cf7 50       		.byte	0x50
 11153 0cf8 0C000000 		.4byte	.LVL219
 11154 0cfc 1A000000 		.4byte	.LFE146
 11155 0d00 0400     		.2byte	0x4
 11156 0d02 F3       		.byte	0xf3
 11157 0d03 01       		.uleb128 0x1
 11158 0d04 50       		.byte	0x50
 11159 0d05 9F       		.byte	0x9f
 11160 0d06 00000000 		.4byte	0
 11161 0d0a 00000000 		.4byte	0
 11162              	.LLST93:
 11163 0d0e 00000000 		.4byte	.LVL216
 11164 0d12 02000000 		.4byte	.LVL217
 11165 0d16 0100     		.2byte	0x1
 11166 0d18 51       		.byte	0x51
 11167 0d19 02000000 		.4byte	.LVL217
 11168 0d1d 1A000000 		.4byte	.LFE146
 11169 0d21 0400     		.2byte	0x4
 11170 0d23 F3       		.byte	0xf3
 11171 0d24 01       		.uleb128 0x1
 11172 0d25 51       		.byte	0x51
 11173 0d26 9F       		.byte	0x9f
 11174 0d27 00000000 		.4byte	0
 11175 0d2b 00000000 		.4byte	0
 11176              	.LLST94:
 11177 0d2f 00000000 		.4byte	.LVL220
 11178 0d33 0C000000 		.4byte	.LVL223
 11179 0d37 0100     		.2byte	0x1
 11180 0d39 50       		.byte	0x50
 11181 0d3a 0C000000 		.4byte	.LVL223
 11182 0d3e 1A000000 		.4byte	.LFE147
 11183 0d42 0400     		.2byte	0x4
 11184 0d44 F3       		.byte	0xf3
 11185 0d45 01       		.uleb128 0x1
 11186 0d46 50       		.byte	0x50
ARM GAS  C:\Users\Matuesz\AppData\Local\Temp\ccLA85Wr.s 			page 198


 11187 0d47 9F       		.byte	0x9f
 11188 0d48 00000000 		.4byte	0
 11189 0d4c 00000000 		.4byte	0
 11190              	.LLST95:
 11191 0d50 00000000 		.4byte	.LVL220
 11192 0d54 02000000 		.4byte	.LVL221
 11193 0d58 0100     		.2byte	0x1
 11194 0d5a 51       		.byte	0x51
 11195 0d5b 02000000 		.4byte	.LVL221
 11196 0d5f 1A000000 		.4byte	.LFE147
 11197 0d63 0400     		.2byte	0x4
 11198 0d65 F3       		.byte	0xf3
 11199 0d66 01       		.uleb128 0x1
 11200 0d67 51       		.byte	0x51
 11201 0d68 9F       		.byte	0x9f
 11202 0d69 00000000 		.4byte	0
 11203 0d6d 00000000 		.4byte	0
 11204              	.LLST96:
 11205 0d71 00000000 		.4byte	.LVL224
 11206 0d75 08000000 		.4byte	.LVL226
 11207 0d79 0100     		.2byte	0x1
 11208 0d7b 50       		.byte	0x50
 11209 0d7c 08000000 		.4byte	.LVL226
 11210 0d80 12000000 		.4byte	.LFE148
 11211 0d84 0400     		.2byte	0x4
 11212 0d86 F3       		.byte	0xf3
 11213 0d87 01       		.uleb128 0x1
 11214 0d88 50       		.byte	0x50
 11215 0d89 9F       		.byte	0x9f
 11216 0d8a 00000000 		.4byte	0
 11217 0d8e 00000000 		.4byte	0
 11218              	.LLST97:
 11219 0d92 00000000 		.4byte	.LVL224
 11220 0d96 04000000 		.4byte	.LVL225
 11221 0d9a 0100     		.2byte	0x1
 11222 0d9c 51       		.byte	0x51
 11223 0d9d 04000000 		.4byte	.LVL225
 11224 0da1 12000000 		.4byte	.LFE148
 11225 0da5 0400     		.2byte	0x4
 11226 0da7 F3       		.byte	0xf3
 11227 0da8 01       		.uleb128 0x1
 11228 0da9 51       		.byte	0x51
 11229 0daa 9F       		.byte	0x9f
 11230 0dab 00000000 		.4byte	0
 11231 0daf 00000000 		.4byte	0
 11232              	.LLST98:
 11233 0db3 00000000 		.4byte	.LFB149
 11234 0db7 06000000 		.4byte	.LCFI10
 11235 0dbb 0200     		.2byte	0x2
 11236 0dbd 7D       		.byte	0x7d
 11237 0dbe 00       		.sleb128 0
 11238 0dbf 06000000 		.4byte	.LCFI10
 11239 0dc3 2C000000 		.4byte	.LFE149
 11240 0dc7 0200     		.2byte	0x2
 11241 0dc9 7D       		.byte	0x7d
 11242 0dca 04       		.sleb128 4
 11243 0dcb 00000000 		.4byte	0
ARM GAS  C:\Users\Matuesz\AppData\Local\Temp\ccLA85Wr.s 			page 199


 11244 0dcf 00000000 		.4byte	0
 11245              	.LLST99:
 11246 0dd3 00000000 		.4byte	.LVL227
 11247 0dd7 0A000000 		.4byte	.LVL229
 11248 0ddb 0100     		.2byte	0x1
 11249 0ddd 50       		.byte	0x50
 11250 0dde 0A000000 		.4byte	.LVL229
 11251 0de2 2C000000 		.4byte	.LFE149
 11252 0de6 0400     		.2byte	0x4
 11253 0de8 F3       		.byte	0xf3
 11254 0de9 01       		.uleb128 0x1
 11255 0dea 50       		.byte	0x50
 11256 0deb 9F       		.byte	0x9f
 11257 0dec 00000000 		.4byte	0
 11258 0df0 00000000 		.4byte	0
 11259              	.LLST100:
 11260 0df4 00000000 		.4byte	.LVL227
 11261 0df8 18000000 		.4byte	.LVL232
 11262 0dfc 0100     		.2byte	0x1
 11263 0dfe 51       		.byte	0x51
 11264 0dff 18000000 		.4byte	.LVL232
 11265 0e03 2C000000 		.4byte	.LFE149
 11266 0e07 0400     		.2byte	0x4
 11267 0e09 F3       		.byte	0xf3
 11268 0e0a 01       		.uleb128 0x1
 11269 0e0b 51       		.byte	0x51
 11270 0e0c 9F       		.byte	0x9f
 11271 0e0d 00000000 		.4byte	0
 11272 0e11 00000000 		.4byte	0
 11273              	.LLST101:
 11274 0e15 10000000 		.4byte	.LVL230
 11275 0e19 1C000000 		.4byte	.LVL233
 11276 0e1d 1100     		.2byte	0x11
 11277 0e1f 72       		.byte	0x72
 11278 0e20 00       		.sleb128 0
 11279 0e21 73       		.byte	0x73
 11280 0e22 00       		.sleb128 0
 11281 0e23 22       		.byte	0x22
 11282 0e24 31       		.byte	0x31
 11283 0e25 1C       		.byte	0x1c
 11284 0e26 F7       		.byte	0xf7
 11285 0e27 29       		.uleb128 0x29
 11286 0e28 73       		.byte	0x73
 11287 0e29 00       		.sleb128 0
 11288 0e2a F7       		.byte	0xf7
 11289 0e2b 29       		.uleb128 0x29
 11290 0e2c 1B       		.byte	0x1b
 11291 0e2d F7       		.byte	0xf7
 11292 0e2e 00       		.uleb128 0
 11293 0e2f 9F       		.byte	0x9f
 11294 0e30 00000000 		.4byte	0
 11295 0e34 00000000 		.4byte	0
 11296              	.LLST102:
 11297 0e38 08000000 		.4byte	.LVL228
 11298 0e3c 12000000 		.4byte	.LVL231
 11299 0e40 0200     		.2byte	0x2
 11300 0e42 74       		.byte	0x74
ARM GAS  C:\Users\Matuesz\AppData\Local\Temp\ccLA85Wr.s 			page 200


 11301 0e43 18       		.sleb128 24
 11302 0e44 12000000 		.4byte	.LVL231
 11303 0e48 18000000 		.4byte	.LVL232
 11304 0e4c 0D00     		.2byte	0xd
 11305 0e4e 71       		.byte	0x71
 11306 0e4f 00       		.sleb128 0
 11307 0e50 32       		.byte	0x32
 11308 0e51 24       		.byte	0x24
 11309 0e52 F3       		.byte	0xf3
 11310 0e53 01       		.uleb128 0x1
 11311 0e54 50       		.byte	0x50
 11312 0e55 22       		.byte	0x22
 11313 0e56 23       		.byte	0x23
 11314 0e57 0C       		.uleb128 0xc
 11315 0e58 06       		.byte	0x6
 11316 0e59 23       		.byte	0x23
 11317 0e5a 18       		.uleb128 0x18
 11318 0e5b 00000000 		.4byte	0
 11319 0e5f 00000000 		.4byte	0
 11320              	.LLST103:
 11321 0e63 00000000 		.4byte	.LFB150
 11322 0e67 06000000 		.4byte	.LCFI11
 11323 0e6b 0200     		.2byte	0x2
 11324 0e6d 7D       		.byte	0x7d
 11325 0e6e 00       		.sleb128 0
 11326 0e6f 06000000 		.4byte	.LCFI11
 11327 0e73 4A000000 		.4byte	.LFE150
 11328 0e77 0200     		.2byte	0x2
 11329 0e79 7D       		.byte	0x7d
 11330 0e7a 08       		.sleb128 8
 11331 0e7b 00000000 		.4byte	0
 11332 0e7f 00000000 		.4byte	0
 11333              	.LLST104:
 11334 0e83 00000000 		.4byte	.LVL234
 11335 0e87 18000000 		.4byte	.LVL237
 11336 0e8b 0100     		.2byte	0x1
 11337 0e8d 50       		.byte	0x50
 11338 0e8e 18000000 		.4byte	.LVL237
 11339 0e92 2E000000 		.4byte	.LVL242
 11340 0e96 0400     		.2byte	0x4
 11341 0e98 F3       		.byte	0xf3
 11342 0e99 01       		.uleb128 0x1
 11343 0e9a 50       		.byte	0x50
 11344 0e9b 9F       		.byte	0x9f
 11345 0e9c 2E000000 		.4byte	.LVL242
 11346 0ea0 3C000000 		.4byte	.LVL243
 11347 0ea4 0100     		.2byte	0x1
 11348 0ea6 50       		.byte	0x50
 11349 0ea7 3C000000 		.4byte	.LVL243
 11350 0eab 4A000000 		.4byte	.LFE150
 11351 0eaf 0400     		.2byte	0x4
 11352 0eb1 F3       		.byte	0xf3
 11353 0eb2 01       		.uleb128 0x1
 11354 0eb3 50       		.byte	0x50
 11355 0eb4 9F       		.byte	0x9f
 11356 0eb5 00000000 		.4byte	0
 11357 0eb9 00000000 		.4byte	0
ARM GAS  C:\Users\Matuesz\AppData\Local\Temp\ccLA85Wr.s 			page 201


 11358              	.LLST105:
 11359 0ebd 00000000 		.4byte	.LVL234
 11360 0ec1 22000000 		.4byte	.LVL240
 11361 0ec5 0100     		.2byte	0x1
 11362 0ec7 51       		.byte	0x51
 11363 0ec8 22000000 		.4byte	.LVL240
 11364 0ecc 2E000000 		.4byte	.LVL242
 11365 0ed0 0400     		.2byte	0x4
 11366 0ed2 F3       		.byte	0xf3
 11367 0ed3 01       		.uleb128 0x1
 11368 0ed4 51       		.byte	0x51
 11369 0ed5 9F       		.byte	0x9f
 11370 0ed6 2E000000 		.4byte	.LVL242
 11371 0eda 44000000 		.4byte	.LVL245
 11372 0ede 0100     		.2byte	0x1
 11373 0ee0 51       		.byte	0x51
 11374 0ee1 44000000 		.4byte	.LVL245
 11375 0ee5 4A000000 		.4byte	.LFE150
 11376 0ee9 0400     		.2byte	0x4
 11377 0eeb F3       		.byte	0xf3
 11378 0eec 01       		.uleb128 0x1
 11379 0eed 51       		.byte	0x51
 11380 0eee 9F       		.byte	0x9f
 11381 0eef 00000000 		.4byte	0
 11382 0ef3 00000000 		.4byte	0
 11383              	.LLST106:
 11384 0ef7 0A000000 		.4byte	.LVL235
 11385 0efb 16000000 		.4byte	.LVL236
 11386 0eff 0100     		.2byte	0x1
 11387 0f01 52       		.byte	0x52
 11388 0f02 16000000 		.4byte	.LVL236
 11389 0f06 1A000000 		.4byte	.LVL238
 11390 0f0a 0200     		.2byte	0x2
 11391 0f0c 74       		.byte	0x74
 11392 0f0d 14       		.sleb128 20
 11393 0f0e 1A000000 		.4byte	.LVL238
 11394 0f12 22000000 		.4byte	.LVL240
 11395 0f16 0D00     		.2byte	0xd
 11396 0f18 71       		.byte	0x71
 11397 0f19 00       		.sleb128 0
 11398 0f1a 32       		.byte	0x32
 11399 0f1b 24       		.byte	0x24
 11400 0f1c F3       		.byte	0xf3
 11401 0f1d 01       		.uleb128 0x1
 11402 0f1e 50       		.byte	0x50
 11403 0f1f 22       		.byte	0x22
 11404 0f20 23       		.byte	0x23
 11405 0f21 0C       		.uleb128 0xc
 11406 0f22 06       		.byte	0x6
 11407 0f23 23       		.byte	0x23
 11408 0f24 14       		.uleb128 0x14
 11409 0f25 2E000000 		.4byte	.LVL242
 11410 0f29 40000000 		.4byte	.LVL244
 11411 0f2d 0100     		.2byte	0x1
 11412 0f2f 52       		.byte	0x52
 11413 0f30 40000000 		.4byte	.LVL244
 11414 0f34 4A000000 		.4byte	.LFE150
ARM GAS  C:\Users\Matuesz\AppData\Local\Temp\ccLA85Wr.s 			page 202


 11415 0f38 0200     		.2byte	0x2
 11416 0f3a 74       		.byte	0x74
 11417 0f3b 14       		.sleb128 20
 11418 0f3c 00000000 		.4byte	0
 11419 0f40 00000000 		.4byte	0
 11420              	.LLST107:
 11421 0f44 16000000 		.4byte	.LVL236
 11422 0f48 1E000000 		.4byte	.LVL239
 11423 0f4c 0F00     		.2byte	0xf
 11424 0f4e 75       		.byte	0x75
 11425 0f4f 00       		.sleb128 0
 11426 0f50 72       		.byte	0x72
 11427 0f51 00       		.sleb128 0
 11428 0f52 22       		.byte	0x22
 11429 0f53 F7       		.byte	0xf7
 11430 0f54 29       		.uleb128 0x29
 11431 0f55 72       		.byte	0x72
 11432 0f56 00       		.sleb128 0
 11433 0f57 F7       		.byte	0xf7
 11434 0f58 29       		.uleb128 0x29
 11435 0f59 1B       		.byte	0x1b
 11436 0f5a F7       		.byte	0xf7
 11437 0f5b 00       		.uleb128 0
 11438 0f5c 9F       		.byte	0x9f
 11439 0f5d 1E000000 		.4byte	.LVL239
 11440 0f61 2A000000 		.4byte	.LVL241
 11441 0f65 0100     		.2byte	0x1
 11442 0f67 52       		.byte	0x52
 11443 0f68 00000000 		.4byte	0
 11444 0f6c 00000000 		.4byte	0
 11445              	.LLST108:
 11446 0f70 00000000 		.4byte	.LFB133
 11447 0f74 04000000 		.4byte	.LCFI12
 11448 0f78 0200     		.2byte	0x2
 11449 0f7a 7D       		.byte	0x7d
 11450 0f7b 00       		.sleb128 0
 11451 0f7c 04000000 		.4byte	.LCFI12
 11452 0f80 D0000000 		.4byte	.LFE133
 11453 0f84 0200     		.2byte	0x2
 11454 0f86 7D       		.byte	0x7d
 11455 0f87 18       		.sleb128 24
 11456 0f88 00000000 		.4byte	0
 11457 0f8c 00000000 		.4byte	0
 11458              	.LLST109:
 11459 0f90 00000000 		.4byte	.LVL246
 11460 0f94 22000000 		.4byte	.LVL249
 11461 0f98 0100     		.2byte	0x1
 11462 0f9a 50       		.byte	0x50
 11463 0f9b 22000000 		.4byte	.LVL249
 11464 0f9f 38000000 		.4byte	.LVL251
 11465 0fa3 0100     		.2byte	0x1
 11466 0fa5 56       		.byte	0x56
 11467 0fa6 38000000 		.4byte	.LVL251
 11468 0faa 5D000000 		.4byte	.LVL253-1
 11469 0fae 0100     		.2byte	0x1
 11470 0fb0 50       		.byte	0x50
 11471 0fb1 5D000000 		.4byte	.LVL253-1
ARM GAS  C:\Users\Matuesz\AppData\Local\Temp\ccLA85Wr.s 			page 203


 11472 0fb5 BA000000 		.4byte	.LVL266
 11473 0fb9 0100     		.2byte	0x1
 11474 0fbb 56       		.byte	0x56
 11475 0fbc BA000000 		.4byte	.LVL266
 11476 0fc0 CD000000 		.4byte	.LVL268-1
 11477 0fc4 0100     		.2byte	0x1
 11478 0fc6 50       		.byte	0x50
 11479 0fc7 CD000000 		.4byte	.LVL268-1
 11480 0fcb D0000000 		.4byte	.LFE133
 11481 0fcf 0100     		.2byte	0x1
 11482 0fd1 56       		.byte	0x56
 11483 0fd2 00000000 		.4byte	0
 11484 0fd6 00000000 		.4byte	0
 11485              	.LLST110:
 11486 0fda 00000000 		.4byte	.LVL246
 11487 0fde 22000000 		.4byte	.LVL249
 11488 0fe2 0100     		.2byte	0x1
 11489 0fe4 51       		.byte	0x51
 11490 0fe5 22000000 		.4byte	.LVL249
 11491 0fe9 38000000 		.4byte	.LVL251
 11492 0fed 0400     		.2byte	0x4
 11493 0fef F3       		.byte	0xf3
 11494 0ff0 01       		.uleb128 0x1
 11495 0ff1 51       		.byte	0x51
 11496 0ff2 9F       		.byte	0x9f
 11497 0ff3 38000000 		.4byte	.LVL251
 11498 0ff7 5D000000 		.4byte	.LVL253-1
 11499 0ffb 0100     		.2byte	0x1
 11500 0ffd 51       		.byte	0x51
 11501 0ffe 5D000000 		.4byte	.LVL253-1
 11502 1002 BA000000 		.4byte	.LVL266
 11503 1006 0400     		.2byte	0x4
 11504 1008 F3       		.byte	0xf3
 11505 1009 01       		.uleb128 0x1
 11506 100a 51       		.byte	0x51
 11507 100b 9F       		.byte	0x9f
 11508 100c BA000000 		.4byte	.LVL266
 11509 1010 CD000000 		.4byte	.LVL268-1
 11510 1014 0100     		.2byte	0x1
 11511 1016 51       		.byte	0x51
 11512 1017 CD000000 		.4byte	.LVL268-1
 11513 101b D0000000 		.4byte	.LFE133
 11514 101f 0400     		.2byte	0x4
 11515 1021 F3       		.byte	0xf3
 11516 1022 01       		.uleb128 0x1
 11517 1023 51       		.byte	0x51
 11518 1024 9F       		.byte	0x9f
 11519 1025 00000000 		.4byte	0
 11520 1029 00000000 		.4byte	0
 11521              	.LLST111:
 11522 102d 40000000 		.4byte	.LVL252
 11523 1031 5D000000 		.4byte	.LVL253-1
 11524 1035 0100     		.2byte	0x1
 11525 1037 52       		.byte	0x52
 11526 1038 BA000000 		.4byte	.LVL266
 11527 103c C2000000 		.4byte	.LVL267
 11528 1040 0100     		.2byte	0x1
ARM GAS  C:\Users\Matuesz\AppData\Local\Temp\ccLA85Wr.s 			page 204


 11529 1042 52       		.byte	0x52
 11530 1043 C2000000 		.4byte	.LVL267
 11531 1047 CD000000 		.4byte	.LVL268-1
 11532 104b 0C00     		.2byte	0xc
 11533 104d 71       		.byte	0x71
 11534 104e 00       		.sleb128 0
 11535 104f 32       		.byte	0x32
 11536 1050 24       		.byte	0x24
 11537 1051 70       		.byte	0x70
 11538 1052 00       		.sleb128 0
 11539 1053 22       		.byte	0x22
 11540 1054 23       		.byte	0x23
 11541 1055 0C       		.uleb128 0xc
 11542 1056 06       		.byte	0x6
 11543 1057 23       		.byte	0x23
 11544 1058 14       		.uleb128 0x14
 11545 1059 00000000 		.4byte	0
 11546 105d 00000000 		.4byte	0
 11547              	.LLST112:
 11548 1061 64000000 		.4byte	.LVL255
 11549 1065 6C000000 		.4byte	.LVL256
 11550 1069 0100     		.2byte	0x1
 11551 106b 53       		.byte	0x53
 11552 106c 00000000 		.4byte	0
 11553 1070 00000000 		.4byte	0
 11554              	.LLST113:
 11555 1074 64000000 		.4byte	.LVL255
 11556 1078 8C000000 		.4byte	.LVL258
 11557 107c 0100     		.2byte	0x1
 11558 107e 57       		.byte	0x57
 11559 107f 00000000 		.4byte	0
 11560 1083 00000000 		.4byte	0
 11561              	.LLST114:
 11562 1087 64000000 		.4byte	.LVL255
 11563 108b 8C000000 		.4byte	.LVL258
 11564 108f 0100     		.2byte	0x1
 11565 1091 56       		.byte	0x56
 11566 1092 00000000 		.4byte	0
 11567 1096 00000000 		.4byte	0
 11568              	.LLST115:
 11569 109a 22000000 		.4byte	.LVL249
 11570 109e 24000000 		.4byte	.LVL250
 11571 10a2 0100     		.2byte	0x1
 11572 10a4 53       		.byte	0x53
 11573 10a5 8A000000 		.4byte	.LVL257
 11574 10a9 8C000000 		.4byte	.LVL258
 11575 10ad 0100     		.2byte	0x1
 11576 10af 53       		.byte	0x53
 11577 10b0 00000000 		.4byte	0
 11578 10b4 00000000 		.4byte	0
 11579              	.LLST116:
 11580 10b8 92000000 		.4byte	.LVL260
 11581 10bc 98000000 		.4byte	.LVL261
 11582 10c0 0100     		.2byte	0x1
 11583 10c2 53       		.byte	0x53
 11584 10c3 00000000 		.4byte	0
 11585 10c7 00000000 		.4byte	0
ARM GAS  C:\Users\Matuesz\AppData\Local\Temp\ccLA85Wr.s 			page 205


 11586              	.LLST117:
 11587 10cb A6000000 		.4byte	.LVL262
 11588 10cf BA000000 		.4byte	.LVL266
 11589 10d3 0100     		.2byte	0x1
 11590 10d5 56       		.byte	0x56
 11591 10d6 00000000 		.4byte	0
 11592 10da 00000000 		.4byte	0
 11593              	.LLST118:
 11594 10de B6000000 		.4byte	.LVL265
 11595 10e2 BA000000 		.4byte	.LVL266
 11596 10e6 0100     		.2byte	0x1
 11597 10e8 53       		.byte	0x53
 11598 10e9 00000000 		.4byte	0
 11599 10ed 00000000 		.4byte	0
 11600              	.LLST119:
 11601 10f1 00000000 		.4byte	.LFB135
 11602 10f5 02000000 		.4byte	.LCFI13
 11603 10f9 0200     		.2byte	0x2
 11604 10fb 7D       		.byte	0x7d
 11605 10fc 00       		.sleb128 0
 11606 10fd 02000000 		.4byte	.LCFI13
 11607 1101 32010000 		.4byte	.LFE135
 11608 1105 0200     		.2byte	0x2
 11609 1107 7D       		.byte	0x7d
 11610 1108 10       		.sleb128 16
 11611 1109 00000000 		.4byte	0
 11612 110d 00000000 		.4byte	0
 11613              	.LLST120:
 11614 1111 00000000 		.4byte	.LVL269
 11615 1115 12000000 		.4byte	.LVL272
 11616 1119 0100     		.2byte	0x1
 11617 111b 50       		.byte	0x50
 11618 111c 12000000 		.4byte	.LVL272
 11619 1120 76000000 		.4byte	.LVL281
 11620 1124 0100     		.2byte	0x1
 11621 1126 56       		.byte	0x56
 11622 1127 76000000 		.4byte	.LVL281
 11623 112b 79000000 		.4byte	.LVL282-1
 11624 112f 0100     		.2byte	0x1
 11625 1131 50       		.byte	0x50
 11626 1132 79000000 		.4byte	.LVL282-1
 11627 1136 32010000 		.4byte	.LFE135
 11628 113a 0100     		.2byte	0x1
 11629 113c 56       		.byte	0x56
 11630 113d 00000000 		.4byte	0
 11631 1141 00000000 		.4byte	0
 11632              	.LLST121:
 11633 1145 04000000 		.4byte	.LVL270
 11634 1149 32000000 		.4byte	.LVL275
 11635 114d 0100     		.2byte	0x1
 11636 114f 55       		.byte	0x55
 11637 1150 76000000 		.4byte	.LVL281
 11638 1154 AC000000 		.4byte	.LVL290
 11639 1158 0100     		.2byte	0x1
 11640 115a 55       		.byte	0x55
 11641 115b 00000000 		.4byte	0
 11642 115f 00000000 		.4byte	0
ARM GAS  C:\Users\Matuesz\AppData\Local\Temp\ccLA85Wr.s 			page 206


 11643              	.LLST122:
 11644 1163 32000000 		.4byte	.LVL275
 11645 1167 76000000 		.4byte	.LVL281
 11646 116b 0100     		.2byte	0x1
 11647 116d 55       		.byte	0x55
 11648 116e AC000000 		.4byte	.LVL290
 11649 1172 32010000 		.4byte	.LFE135
 11650 1176 0100     		.2byte	0x1
 11651 1178 55       		.byte	0x55
 11652 1179 00000000 		.4byte	0
 11653 117d 00000000 		.4byte	0
 11654              	.LLST123:
 11655 1181 90000000 		.4byte	.LVL285
 11656 1185 98000000 		.4byte	.LVL286
 11657 1189 0100     		.2byte	0x1
 11658 118b 53       		.byte	0x53
 11659 118c 00000000 		.4byte	0
 11660 1190 00000000 		.4byte	0
 11661              	.LLST124:
 11662 1194 9A000000 		.4byte	.LVL287
 11663 1198 AC000000 		.4byte	.LVL290
 11664 119c 0100     		.2byte	0x1
 11665 119e 56       		.byte	0x56
 11666 119f 00000000 		.4byte	0
 11667 11a3 00000000 		.4byte	0
 11668              	.LLST125:
 11669 11a7 2C000000 		.4byte	.LVL274
 11670 11ab 36000000 		.4byte	.LVL276
 11671 11af 0100     		.2byte	0x1
 11672 11b1 53       		.byte	0x53
 11673 11b2 4C000000 		.4byte	.LVL277
 11674 11b6 56000000 		.4byte	.LVL278
 11675 11ba 0100     		.2byte	0x1
 11676 11bc 53       		.byte	0x53
 11677 11bd 68000000 		.4byte	.LVL279
 11678 11c1 6A000000 		.4byte	.LVL280
 11679 11c5 0100     		.2byte	0x1
 11680 11c7 53       		.byte	0x53
 11681 11c8 AA000000 		.4byte	.LVL289
 11682 11cc AC000000 		.4byte	.LVL290
 11683 11d0 0100     		.2byte	0x1
 11684 11d2 53       		.byte	0x53
 11685 11d3 BA000000 		.4byte	.LVL292
 11686 11d7 C1000000 		.4byte	.LVL293-1
 11687 11db 0100     		.2byte	0x1
 11688 11dd 53       		.byte	0x53
 11689 11de 00000000 		.4byte	0
 11690 11e2 00000000 		.4byte	0
 11691              	.LLST126:
 11692 11e6 00000000 		.4byte	.LFB138
 11693 11ea 02000000 		.4byte	.LCFI14
 11694 11ee 0200     		.2byte	0x2
 11695 11f0 7D       		.byte	0x7d
 11696 11f1 00       		.sleb128 0
 11697 11f2 02000000 		.4byte	.LCFI14
 11698 11f6 16000000 		.4byte	.LFE138
 11699 11fa 0200     		.2byte	0x2
ARM GAS  C:\Users\Matuesz\AppData\Local\Temp\ccLA85Wr.s 			page 207


 11700 11fc 7D       		.byte	0x7d
 11701 11fd 08       		.sleb128 8
 11702 11fe 00000000 		.4byte	0
 11703 1202 00000000 		.4byte	0
 11704              	.LLST127:
 11705 1206 00000000 		.4byte	.LFB137
 11706 120a 02000000 		.4byte	.LCFI15
 11707 120e 0200     		.2byte	0x2
 11708 1210 7D       		.byte	0x7d
 11709 1211 00       		.sleb128 0
 11710 1212 02000000 		.4byte	.LCFI15
 11711 1216 16000000 		.4byte	.LFE137
 11712 121a 0200     		.2byte	0x2
 11713 121c 7D       		.byte	0x7d
 11714 121d 08       		.sleb128 8
 11715 121e 00000000 		.4byte	0
 11716 1222 00000000 		.4byte	0
 11717              	.LLST128:
 11718 1226 00000000 		.4byte	.LVL307
 11719 122a 0C000000 		.4byte	.LVL309
 11720 122e 0100     		.2byte	0x1
 11721 1230 50       		.byte	0x50
 11722 1231 0C000000 		.4byte	.LVL309
 11723 1235 10000000 		.4byte	.LFE151
 11724 1239 0400     		.2byte	0x4
 11725 123b F3       		.byte	0xf3
 11726 123c 01       		.uleb128 0x1
 11727 123d 50       		.byte	0x50
 11728 123e 9F       		.byte	0x9f
 11729 123f 00000000 		.4byte	0
 11730 1243 00000000 		.4byte	0
 11731              	.LLST129:
 11732 1247 00000000 		.4byte	.LVL307
 11733 124b 02000000 		.4byte	.LVL308
 11734 124f 0100     		.2byte	0x1
 11735 1251 51       		.byte	0x51
 11736 1252 02000000 		.4byte	.LVL308
 11737 1256 10000000 		.4byte	.LFE151
 11738 125a 0400     		.2byte	0x4
 11739 125c F3       		.byte	0xf3
 11740 125d 01       		.uleb128 0x1
 11741 125e 51       		.byte	0x51
 11742 125f 9F       		.byte	0x9f
 11743 1260 00000000 		.4byte	0
 11744 1264 00000000 		.4byte	0
 11745              	.LLST130:
 11746 1268 00000000 		.4byte	.LVL310
 11747 126c 0A000000 		.4byte	.LVL311
 11748 1270 0100     		.2byte	0x1
 11749 1272 50       		.byte	0x50
 11750 1273 0A000000 		.4byte	.LVL311
 11751 1277 22000000 		.4byte	.LFE152
 11752 127b 0400     		.2byte	0x4
 11753 127d F3       		.byte	0xf3
 11754 127e 01       		.uleb128 0x1
 11755 127f 50       		.byte	0x50
 11756 1280 9F       		.byte	0x9f
ARM GAS  C:\Users\Matuesz\AppData\Local\Temp\ccLA85Wr.s 			page 208


 11757 1281 00000000 		.4byte	0
 11758 1285 00000000 		.4byte	0
 11759              	.LLST131:
 11760 1289 00000000 		.4byte	.LVL310
 11761 128d 1A000000 		.4byte	.LVL312
 11762 1291 0100     		.2byte	0x1
 11763 1293 51       		.byte	0x51
 11764 1294 1A000000 		.4byte	.LVL312
 11765 1298 22000000 		.4byte	.LFE152
 11766 129c 0400     		.2byte	0x4
 11767 129e F3       		.byte	0xf3
 11768 129f 01       		.uleb128 0x1
 11769 12a0 51       		.byte	0x51
 11770 12a1 9F       		.byte	0x9f
 11771 12a2 00000000 		.4byte	0
 11772 12a6 00000000 		.4byte	0
 11773              	.LLST132:
 11774 12aa 00000000 		.4byte	.LVL313
 11775 12ae 0C000000 		.4byte	.LVL315
 11776 12b2 0100     		.2byte	0x1
 11777 12b4 50       		.byte	0x50
 11778 12b5 0C000000 		.4byte	.LVL315
 11779 12b9 10000000 		.4byte	.LFE153
 11780 12bd 0400     		.2byte	0x4
 11781 12bf F3       		.byte	0xf3
 11782 12c0 01       		.uleb128 0x1
 11783 12c1 50       		.byte	0x50
 11784 12c2 9F       		.byte	0x9f
 11785 12c3 00000000 		.4byte	0
 11786 12c7 00000000 		.4byte	0
 11787              	.LLST133:
 11788 12cb 00000000 		.4byte	.LVL313
 11789 12cf 02000000 		.4byte	.LVL314
 11790 12d3 0100     		.2byte	0x1
 11791 12d5 51       		.byte	0x51
 11792 12d6 02000000 		.4byte	.LVL314
 11793 12da 10000000 		.4byte	.LFE153
 11794 12de 0400     		.2byte	0x4
 11795 12e0 F3       		.byte	0xf3
 11796 12e1 01       		.uleb128 0x1
 11797 12e2 51       		.byte	0x51
 11798 12e3 9F       		.byte	0x9f
 11799 12e4 00000000 		.4byte	0
 11800 12e8 00000000 		.4byte	0
 11801              	.LLST134:
 11802 12ec 00000000 		.4byte	.LVL316
 11803 12f0 0C000000 		.4byte	.LVL318
 11804 12f4 0100     		.2byte	0x1
 11805 12f6 50       		.byte	0x50
 11806 12f7 0C000000 		.4byte	.LVL318
 11807 12fb 10000000 		.4byte	.LFE154
 11808 12ff 0400     		.2byte	0x4
 11809 1301 F3       		.byte	0xf3
 11810 1302 01       		.uleb128 0x1
 11811 1303 50       		.byte	0x50
 11812 1304 9F       		.byte	0x9f
 11813 1305 00000000 		.4byte	0
ARM GAS  C:\Users\Matuesz\AppData\Local\Temp\ccLA85Wr.s 			page 209


 11814 1309 00000000 		.4byte	0
 11815              	.LLST135:
 11816 130d 00000000 		.4byte	.LVL316
 11817 1311 02000000 		.4byte	.LVL317
 11818 1315 0100     		.2byte	0x1
 11819 1317 51       		.byte	0x51
 11820 1318 02000000 		.4byte	.LVL317
 11821 131c 10000000 		.4byte	.LFE154
 11822 1320 0400     		.2byte	0x4
 11823 1322 F3       		.byte	0xf3
 11824 1323 01       		.uleb128 0x1
 11825 1324 51       		.byte	0x51
 11826 1325 9F       		.byte	0x9f
 11827 1326 00000000 		.4byte	0
 11828 132a 00000000 		.4byte	0
 11829              	.LLST136:
 11830 132e 00000000 		.4byte	.LVL319
 11831 1332 0C000000 		.4byte	.LVL321
 11832 1336 0100     		.2byte	0x1
 11833 1338 50       		.byte	0x50
 11834 1339 0C000000 		.4byte	.LVL321
 11835 133d 10000000 		.4byte	.LFE155
 11836 1341 0400     		.2byte	0x4
 11837 1343 F3       		.byte	0xf3
 11838 1344 01       		.uleb128 0x1
 11839 1345 50       		.byte	0x50
 11840 1346 9F       		.byte	0x9f
 11841 1347 00000000 		.4byte	0
 11842 134b 00000000 		.4byte	0
 11843              	.LLST137:
 11844 134f 00000000 		.4byte	.LVL319
 11845 1353 02000000 		.4byte	.LVL320
 11846 1357 0100     		.2byte	0x1
 11847 1359 51       		.byte	0x51
 11848 135a 02000000 		.4byte	.LVL320
 11849 135e 10000000 		.4byte	.LFE155
 11850 1362 0400     		.2byte	0x4
 11851 1364 F3       		.byte	0xf3
 11852 1365 01       		.uleb128 0x1
 11853 1366 51       		.byte	0x51
 11854 1367 9F       		.byte	0x9f
 11855 1368 00000000 		.4byte	0
 11856 136c 00000000 		.4byte	0
 11857              	.LLST138:
 11858 1370 00000000 		.4byte	.LVL322
 11859 1374 0C000000 		.4byte	.LVL324
 11860 1378 0100     		.2byte	0x1
 11861 137a 50       		.byte	0x50
 11862 137b 0C000000 		.4byte	.LVL324
 11863 137f 10000000 		.4byte	.LFE156
 11864 1383 0400     		.2byte	0x4
 11865 1385 F3       		.byte	0xf3
 11866 1386 01       		.uleb128 0x1
 11867 1387 50       		.byte	0x50
 11868 1388 9F       		.byte	0x9f
 11869 1389 00000000 		.4byte	0
 11870 138d 00000000 		.4byte	0
ARM GAS  C:\Users\Matuesz\AppData\Local\Temp\ccLA85Wr.s 			page 210


 11871              	.LLST139:
 11872 1391 00000000 		.4byte	.LVL322
 11873 1395 02000000 		.4byte	.LVL323
 11874 1399 0100     		.2byte	0x1
 11875 139b 51       		.byte	0x51
 11876 139c 02000000 		.4byte	.LVL323
 11877 13a0 10000000 		.4byte	.LFE156
 11878 13a4 0400     		.2byte	0x4
 11879 13a6 F3       		.byte	0xf3
 11880 13a7 01       		.uleb128 0x1
 11881 13a8 51       		.byte	0x51
 11882 13a9 9F       		.byte	0x9f
 11883 13aa 00000000 		.4byte	0
 11884 13ae 00000000 		.4byte	0
 11885              		.section	.debug_aranges,"",%progbits
 11886 0000 E4000000 		.4byte	0xe4
 11887 0004 0200     		.2byte	0x2
 11888 0006 00000000 		.4byte	.Ldebug_info0
 11889 000a 04       		.byte	0x4
 11890 000b 00       		.byte	0
 11891 000c 0000     		.2byte	0
 11892 000e 0000     		.2byte	0
 11893 0010 00000000 		.4byte	.LFB120
 11894 0014 82000000 		.4byte	.LFE120-.LFB120
 11895 0018 00000000 		.4byte	.LFB134
 11896 001c 58000000 		.4byte	.LFE134-.LFB134
 11897 0020 00000000 		.4byte	.LFB122
 11898 0024 16000000 		.4byte	.LFE122-.LFB122
 11899 0028 00000000 		.4byte	.LFB136
 11900 002c 96040000 		.4byte	.LFE136-.LFB136
 11901 0030 00000000 		.4byte	.LFB139
 11902 0034 4C000000 		.4byte	.LFE139-.LFB139
 11903 0038 00000000 		.4byte	.LFB140
 11904 003c 20010000 		.4byte	.LFE140-.LFB140
 11905 0040 00000000 		.4byte	.LFB141
 11906 0044 1E000000 		.4byte	.LFE141-.LFB141
 11907 0048 00000000 		.4byte	.LFB142
 11908 004c 2C010000 		.4byte	.LFE142-.LFB142
 11909 0050 00000000 		.4byte	.LFB143
 11910 0054 18000000 		.4byte	.LFE143-.LFB143
 11911 0058 00000000 		.4byte	.LFB144
 11912 005c 3A010000 		.4byte	.LFE144-.LFB144
 11913 0060 00000000 		.4byte	.LFB145
 11914 0064 0A000000 		.4byte	.LFE145-.LFB145
 11915 0068 00000000 		.4byte	.LFB146
 11916 006c 1A000000 		.4byte	.LFE146-.LFB146
 11917 0070 00000000 		.4byte	.LFB147
 11918 0074 1A000000 		.4byte	.LFE147-.LFB147
 11919 0078 00000000 		.4byte	.LFB148
 11920 007c 12000000 		.4byte	.LFE148-.LFB148
 11921 0080 00000000 		.4byte	.LFB149
 11922 0084 2C000000 		.4byte	.LFE149-.LFB149
 11923 0088 00000000 		.4byte	.LFB150
 11924 008c 4A000000 		.4byte	.LFE150-.LFB150
 11925 0090 00000000 		.4byte	.LFB133
 11926 0094 D0000000 		.4byte	.LFE133-.LFB133
 11927 0098 00000000 		.4byte	.LFB135
ARM GAS  C:\Users\Matuesz\AppData\Local\Temp\ccLA85Wr.s 			page 211


 11928 009c 32010000 		.4byte	.LFE135-.LFB135
 11929 00a0 00000000 		.4byte	.LFB138
 11930 00a4 16000000 		.4byte	.LFE138-.LFB138
 11931 00a8 00000000 		.4byte	.LFB137
 11932 00ac 16000000 		.4byte	.LFE137-.LFB137
 11933 00b0 00000000 		.4byte	.LFB151
 11934 00b4 10000000 		.4byte	.LFE151-.LFB151
 11935 00b8 00000000 		.4byte	.LFB152
 11936 00bc 22000000 		.4byte	.LFE152-.LFB152
 11937 00c0 00000000 		.4byte	.LFB153
 11938 00c4 10000000 		.4byte	.LFE153-.LFB153
 11939 00c8 00000000 		.4byte	.LFB154
 11940 00cc 10000000 		.4byte	.LFE154-.LFB154
 11941 00d0 00000000 		.4byte	.LFB155
 11942 00d4 10000000 		.4byte	.LFE155-.LFB155
 11943 00d8 00000000 		.4byte	.LFB156
 11944 00dc 10000000 		.4byte	.LFE156-.LFB156
 11945 00e0 00000000 		.4byte	0
 11946 00e4 00000000 		.4byte	0
 11947              		.section	.debug_ranges,"",%progbits
 11948              	.Ldebug_ranges0:
 11949 0000 18000000 		.4byte	.LBB90
 11950 0004 1A000000 		.4byte	.LBE90
 11951 0008 1C000000 		.4byte	.LBB91
 11952 000c 20000000 		.4byte	.LBE91
 11953 0010 00000000 		.4byte	0
 11954 0014 00000000 		.4byte	0
 11955 0018 20000000 		.4byte	.LBB92
 11956 001c 0A010000 		.4byte	.LBE92
 11957 0020 0C010000 		.4byte	.LBB159
 11958 0024 96040000 		.4byte	.LBE159
 11959 0028 00000000 		.4byte	0
 11960 002c 00000000 		.4byte	0
 11961 0030 20000000 		.4byte	.LBB93
 11962 0034 24000000 		.4byte	.LBE93
 11963 0038 5A000000 		.4byte	.LBB94
 11964 003c 62000000 		.4byte	.LBE94
 11965 0040 00000000 		.4byte	0
 11966 0044 00000000 		.4byte	0
 11967 0048 6C000000 		.4byte	.LBB95
 11968 004c D8000000 		.4byte	.LBE95
 11969 0050 0C010000 		.4byte	.LBB123
 11970 0054 60020000 		.4byte	.LBE123
 11971 0058 00000000 		.4byte	0
 11972 005c 00000000 		.4byte	0
 11973 0060 6C000000 		.4byte	.LBB96
 11974 0064 D8000000 		.4byte	.LBE96
 11975 0068 0C010000 		.4byte	.LBB121
 11976 006c 60020000 		.4byte	.LBE121
 11977 0070 00000000 		.4byte	0
 11978 0074 00000000 		.4byte	0
 11979 0078 90000000 		.4byte	.LBB97
 11980 007c 94000000 		.4byte	.LBE97
 11981 0080 96000000 		.4byte	.LBB105
 11982 0084 D8000000 		.4byte	.LBE105
 11983 0088 00000000 		.4byte	0
 11984 008c 00000000 		.4byte	0
ARM GAS  C:\Users\Matuesz\AppData\Local\Temp\ccLA85Wr.s 			page 212


 11985 0090 9E000000 		.4byte	.LBB99
 11986 0094 A0000000 		.4byte	.LBE99
 11987 0098 A2000000 		.4byte	.LBB100
 11988 009c AC000000 		.4byte	.LBE100
 11989 00a0 B2000000 		.4byte	.LBB101
 11990 00a4 B6000000 		.4byte	.LBE101
 11991 00a8 B8000000 		.4byte	.LBB102
 11992 00ac BC000000 		.4byte	.LBE102
 11993 00b0 BE000000 		.4byte	.LBB103
 11994 00b4 D4000000 		.4byte	.LBE103
 11995 00b8 00000000 		.4byte	0
 11996 00bc 00000000 		.4byte	0
 11997 00c0 42010000 		.4byte	.LBB108
 11998 00c4 50010000 		.4byte	.LBE108
 11999 00c8 5A010000 		.4byte	.LBB109
 12000 00cc 66010000 		.4byte	.LBE109
 12001 00d0 6C010000 		.4byte	.LBB110
 12002 00d4 82010000 		.4byte	.LBE110
 12003 00d8 00000000 		.4byte	0
 12004 00dc 00000000 		.4byte	0
 12005 00e0 AC010000 		.4byte	.LBB114
 12006 00e4 AE010000 		.4byte	.LBE114
 12007 00e8 B0010000 		.4byte	.LBB115
 12008 00ec B8010000 		.4byte	.LBE115
 12009 00f0 BA010000 		.4byte	.LBB116
 12010 00f4 BE010000 		.4byte	.LBE116
 12011 00f8 00000000 		.4byte	0
 12012 00fc 00000000 		.4byte	0
 12013 0100 7C020000 		.4byte	.LBB126
 12014 0104 7E020000 		.4byte	.LBE126
 12015 0108 82020000 		.4byte	.LBB127
 12016 010c 86020000 		.4byte	.LBE127
 12017 0110 00000000 		.4byte	0
 12018 0114 00000000 		.4byte	0
 12019 0118 86020000 		.4byte	.LBB128
 12020 011c 50030000 		.4byte	.LBE128
 12021 0120 7A030000 		.4byte	.LBB158
 12022 0124 96040000 		.4byte	.LBE158
 12023 0128 00000000 		.4byte	0
 12024 012c 00000000 		.4byte	0
 12025 0130 86020000 		.4byte	.LBB129
 12026 0134 50030000 		.4byte	.LBE129
 12027 0138 7A030000 		.4byte	.LBB155
 12028 013c 96040000 		.4byte	.LBE155
 12029 0140 00000000 		.4byte	0
 12030 0144 00000000 		.4byte	0
 12031 0148 CC020000 		.4byte	.LBB130
 12032 014c D2020000 		.4byte	.LBE130
 12033 0150 D8020000 		.4byte	.LBB140
 12034 0154 DA020000 		.4byte	.LBE140
 12035 0158 E0020000 		.4byte	.LBB141
 12036 015c 18030000 		.4byte	.LBE141
 12037 0160 00000000 		.4byte	0
 12038 0164 00000000 		.4byte	0
 12039 0168 CE020000 		.4byte	.LBB132
 12040 016c D2020000 		.4byte	.LBE132
 12041 0170 D8020000 		.4byte	.LBB136
ARM GAS  C:\Users\Matuesz\AppData\Local\Temp\ccLA85Wr.s 			page 213


 12042 0174 DA020000 		.4byte	.LBE136
 12043 0178 E0020000 		.4byte	.LBB137
 12044 017c 18030000 		.4byte	.LBE137
 12045 0180 00000000 		.4byte	0
 12046 0184 00000000 		.4byte	0
 12047 0188 4E030000 		.4byte	.LBB142
 12048 018c 50030000 		.4byte	.LBE142
 12049 0190 80030000 		.4byte	.LBB154
 12050 0194 96040000 		.4byte	.LBE154
 12051 0198 00000000 		.4byte	0
 12052 019c 00000000 		.4byte	0
 12053 01a0 4E030000 		.4byte	.LBB143
 12054 01a4 50030000 		.4byte	.LBE143
 12055 01a8 80030000 		.4byte	.LBB153
 12056 01ac 96040000 		.4byte	.LBE153
 12057 01b0 00000000 		.4byte	0
 12058 01b4 00000000 		.4byte	0
 12059 01b8 8A030000 		.4byte	.LBB144
 12060 01bc EA030000 		.4byte	.LBE144
 12061 01c0 22040000 		.4byte	.LBB152
 12062 01c4 84040000 		.4byte	.LBE152
 12063 01c8 00000000 		.4byte	0
 12064 01cc 00000000 		.4byte	0
 12065 01d0 3E000000 		.4byte	.LBB162
 12066 01d4 40000000 		.4byte	.LBE162
 12067 01d8 44000000 		.4byte	.LBB166
 12068 01dc 46000000 		.4byte	.LBE166
 12069 01e0 4C000000 		.4byte	.LBB167
 12070 01e4 66000000 		.4byte	.LBE167
 12071 01e8 00000000 		.4byte	0
 12072 01ec 00000000 		.4byte	0
 12073 01f0 3E000000 		.4byte	.LBB163
 12074 01f4 40000000 		.4byte	.LBE163
 12075 01f8 44000000 		.4byte	.LBB164
 12076 01fc 46000000 		.4byte	.LBE164
 12077 0200 4C000000 		.4byte	.LBB165
 12078 0204 66000000 		.4byte	.LBE165
 12079 0208 00000000 		.4byte	0
 12080 020c 00000000 		.4byte	0
 12081 0210 A0000000 		.4byte	.LBB174
 12082 0214 A4000000 		.4byte	.LBE174
 12083 0218 BA000000 		.4byte	.LBB182
 12084 021c BE000000 		.4byte	.LBE182
 12085 0220 00000000 		.4byte	0
 12086 0224 00000000 		.4byte	0
 12087 0228 A4000000 		.4byte	.LBB177
 12088 022c A8000000 		.4byte	.LBE177
 12089 0230 B0000000 		.4byte	.LBB181
 12090 0234 B2000000 		.4byte	.LBE181
 12091 0238 C0000000 		.4byte	.LBB183
 12092 023c D0000000 		.4byte	.LBE183
 12093 0240 00000000 		.4byte	0
 12094 0244 00000000 		.4byte	0
 12095 0248 A4000000 		.4byte	.LBB178
 12096 024c A8000000 		.4byte	.LBE178
 12097 0250 B0000000 		.4byte	.LBB179
 12098 0254 B2000000 		.4byte	.LBE179
ARM GAS  C:\Users\Matuesz\AppData\Local\Temp\ccLA85Wr.s 			page 214


 12099 0258 C0000000 		.4byte	.LBB180
 12100 025c D0000000 		.4byte	.LBE180
 12101 0260 00000000 		.4byte	0
 12102 0264 00000000 		.4byte	0
 12103 0268 D4000000 		.4byte	.LBB184
 12104 026c D8000000 		.4byte	.LBE184
 12105 0270 00010000 		.4byte	.LBB188
 12106 0274 04010000 		.4byte	.LBE188
 12107 0278 1C010000 		.4byte	.LBB189
 12108 027c 20010000 		.4byte	.LBE189
 12109 0280 00000000 		.4byte	0
 12110 0284 00000000 		.4byte	0
 12111 0288 D4000000 		.4byte	.LBB185
 12112 028c D8000000 		.4byte	.LBE185
 12113 0290 00010000 		.4byte	.LBB186
 12114 0294 04010000 		.4byte	.LBE186
 12115 0298 1C010000 		.4byte	.LBB187
 12116 029c 20010000 		.4byte	.LBE187
 12117 02a0 00000000 		.4byte	0
 12118 02a4 00000000 		.4byte	0
 12119 02a8 82000000 		.4byte	.LBB190
 12120 02ac 84000000 		.4byte	.LBE190
 12121 02b0 8C000000 		.4byte	.LBB193
 12122 02b4 90000000 		.4byte	.LBE193
 12123 02b8 00000000 		.4byte	0
 12124 02bc 00000000 		.4byte	0
 12125 02c0 82000000 		.4byte	.LBB191
 12126 02c4 84000000 		.4byte	.LBE191
 12127 02c8 8C000000 		.4byte	.LBB192
 12128 02cc 90000000 		.4byte	.LBE192
 12129 02d0 00000000 		.4byte	0
 12130 02d4 00000000 		.4byte	0
 12131 02d8 10000000 		.4byte	.LBB196
 12132 02dc 2A000000 		.4byte	.LBE196
 12133 02e0 2E000000 		.4byte	.LBB197
 12134 02e4 3A000000 		.4byte	.LBE197
 12135 02e8 00000000 		.4byte	0
 12136 02ec 00000000 		.4byte	0
 12137 02f0 38000000 		.4byte	.LBB207
 12138 02f4 8C000000 		.4byte	.LBE207
 12139 02f8 BA000000 		.4byte	.LBB218
 12140 02fc D0000000 		.4byte	.LBE218
 12141 0300 00000000 		.4byte	0
 12142 0304 00000000 		.4byte	0
 12143 0308 98000000 		.4byte	.LBB213
 12144 030c 9A000000 		.4byte	.LBE213
 12145 0310 A6000000 		.4byte	.LBB216
 12146 0314 B0000000 		.4byte	.LBE216
 12147 0318 00000000 		.4byte	0
 12148 031c 00000000 		.4byte	0
 12149 0320 92000000 		.4byte	.LBB224
 12150 0324 94000000 		.4byte	.LBE224
 12151 0328 9A000000 		.4byte	.LBB227
 12152 032c A4000000 		.4byte	.LBE227
 12153 0330 00000000 		.4byte	0
 12154 0334 00000000 		.4byte	0
 12155 0338 00000000 		.4byte	.LFB120
ARM GAS  C:\Users\Matuesz\AppData\Local\Temp\ccLA85Wr.s 			page 215


 12156 033c 82000000 		.4byte	.LFE120
 12157 0340 00000000 		.4byte	.LFB134
 12158 0344 58000000 		.4byte	.LFE134
 12159 0348 00000000 		.4byte	.LFB122
 12160 034c 16000000 		.4byte	.LFE122
 12161 0350 00000000 		.4byte	.LFB136
 12162 0354 96040000 		.4byte	.LFE136
 12163 0358 00000000 		.4byte	.LFB139
 12164 035c 4C000000 		.4byte	.LFE139
 12165 0360 00000000 		.4byte	.LFB140
 12166 0364 20010000 		.4byte	.LFE140
 12167 0368 00000000 		.4byte	.LFB141
 12168 036c 1E000000 		.4byte	.LFE141
 12169 0370 00000000 		.4byte	.LFB142
 12170 0374 2C010000 		.4byte	.LFE142
 12171 0378 00000000 		.4byte	.LFB143
 12172 037c 18000000 		.4byte	.LFE143
 12173 0380 00000000 		.4byte	.LFB144
 12174 0384 3A010000 		.4byte	.LFE144
 12175 0388 00000000 		.4byte	.LFB145
 12176 038c 0A000000 		.4byte	.LFE145
 12177 0390 00000000 		.4byte	.LFB146
 12178 0394 1A000000 		.4byte	.LFE146
 12179 0398 00000000 		.4byte	.LFB147
 12180 039c 1A000000 		.4byte	.LFE147
 12181 03a0 00000000 		.4byte	.LFB148
 12182 03a4 12000000 		.4byte	.LFE148
 12183 03a8 00000000 		.4byte	.LFB149
 12184 03ac 2C000000 		.4byte	.LFE149
 12185 03b0 00000000 		.4byte	.LFB150
 12186 03b4 4A000000 		.4byte	.LFE150
 12187 03b8 00000000 		.4byte	.LFB133
 12188 03bc D0000000 		.4byte	.LFE133
 12189 03c0 00000000 		.4byte	.LFB135
 12190 03c4 32010000 		.4byte	.LFE135
 12191 03c8 00000000 		.4byte	.LFB138
 12192 03cc 16000000 		.4byte	.LFE138
 12193 03d0 00000000 		.4byte	.LFB137
 12194 03d4 16000000 		.4byte	.LFE137
 12195 03d8 00000000 		.4byte	.LFB151
 12196 03dc 10000000 		.4byte	.LFE151
 12197 03e0 00000000 		.4byte	.LFB152
 12198 03e4 22000000 		.4byte	.LFE152
 12199 03e8 00000000 		.4byte	.LFB153
 12200 03ec 10000000 		.4byte	.LFE153
 12201 03f0 00000000 		.4byte	.LFB154
 12202 03f4 10000000 		.4byte	.LFE154
 12203 03f8 00000000 		.4byte	.LFB155
 12204 03fc 10000000 		.4byte	.LFE155
 12205 0400 00000000 		.4byte	.LFB156
 12206 0404 10000000 		.4byte	.LFE156
 12207 0408 00000000 		.4byte	0
 12208 040c 00000000 		.4byte	0
 12209              		.section	.debug_line,"",%progbits
 12210              	.Ldebug_line0:
 12211 0000 EA080000 		.section	.debug_str,"MS",%progbits,1
 12211      0200B702 
ARM GAS  C:\Users\Matuesz\AppData\Local\Temp\ccLA85Wr.s 			page 216


 12211      00000201 
 12211      FB0E0D00 
 12211      01010101 
 12212              	.LASF11:
 12213 0000 73697A65 		.ascii	"size_t\000"
 12213      5F7400
 12214              	.LASF326:
 12215 0007 7573625F 		.ascii	"usb_lld_stall_out\000"
 12215      6C6C645F 
 12215      7374616C 
 12215      6C5F6F75 
 12215      7400
 12216              	.LASF8:
 12217 0019 73697A65 		.ascii	"sizetype\000"
 12217      74797065 
 12217      00
 12218              	.LASF26:
 12219 0022 73797374 		.ascii	"systime_t\000"
 12219      696D655F 
 12219      7400
 12220              	.LASF107:
 12221 002c 504C4C49 		.ascii	"PLLI2SCFGR\000"
 12221      32534346 
 12221      475200
 12222              	.LASF31:
 12223 0037 705F6374 		.ascii	"p_ctx\000"
 12223      7800
 12224              	.LASF23:
 12225 003d 74707269 		.ascii	"tprio_t\000"
 12225      6F5F7400 
 12226              	.LASF41:
 12227 0045 705F6D73 		.ascii	"p_msgqueue\000"
 12227      67717565 
 12227      756500
 12228              	.LASF55:
 12229 0050 725F6374 		.ascii	"r_ctx\000"
 12229      7800
 12230              	.LASF14:
 12231 0056 696E7433 		.ascii	"int32_t\000"
 12231      325F7400 
 12232              	.LASF177:
 12233 005e 72657376 		.ascii	"resvd4\000"
 12233      643400
 12234              	.LASF168:
 12235 0065 72657376 		.ascii	"resvd8\000"
 12235      643800
 12236              	.LASF282:
 12237 006c 6F74675F 		.ascii	"otg_fifo_read_to_buffer\000"
 12237      6669666F 
 12237      5F726561 
 12237      645F746F 
 12237      5F627566 
 12238              	.LASF179:
 12239 0084 72657376 		.ascii	"resvdC\000"
 12239      644300
 12240              	.LASF319:
 12241 008b 7573625F 		.ascii	"usb_lld_prepare_transmit\000"
ARM GAS  C:\Users\Matuesz\AppData\Local\Temp\ccLA85Wr.s 			page 217


 12241      6C6C645F 
 12241      70726570 
 12241      6172655F 
 12241      7472616E 
 12242              	.LASF343:
 12243 00a4 63685363 		.ascii	"chSchReadyI\000"
 12243      68526561 
 12243      64794900 
 12244              	.LASF328:
 12245 00b0 7573625F 		.ascii	"usb_lld_clear_out\000"
 12245      6C6C645F 
 12245      636C6561 
 12245      725F6F75 
 12245      7400
 12246              	.LASF315:
 12247 00c2 7573625F 		.ascii	"usb_lld_get_status_in\000"
 12247      6C6C645F 
 12247      6765745F 
 12247      73746174 
 12247      75735F69 
 12248              	.LASF145:
 12249 00d8 5553425F 		.ascii	"USB_EP0_TX\000"
 12249      4550305F 
 12249      545800
 12250              	.LASF278:
 12251 00e3 6669666F 		.ascii	"fifop\000"
 12251      7000
 12252              	.LASF331:
 12253 00e9 65703073 		.ascii	"ep0setup_buffer\000"
 12253      65747570 
 12253      5F627566 
 12253      66657200 
 12254              	.LASF217:
 12255 00f9 72657376 		.ascii	"resvd700\000"
 12255      64373030 
 12255      00
 12256              	.LASF312:
 12257 0102 6673697A 		.ascii	"fsize\000"
 12257      6500
 12258              	.LASF114:
 12259 0108 636F6E66 		.ascii	"config\000"
 12259      696700
 12260              	.LASF113:
 12261 010f 73746174 		.ascii	"state\000"
 12261      6500
 12262              	.LASF262:
 12263 0115 65705F6D 		.ascii	"ep_mode\000"
 12263      6F646500 
 12264              	.LASF138:
 12265 011d 5553425F 		.ascii	"USB_ACTIVE\000"
 12265      41435449 
 12265      564500
 12266              	.LASF311:
 12267 0128 7573625F 		.ascii	"usb_lld_init_endpoint\000"
 12267      6C6C645F 
 12267      696E6974 
 12267      5F656E64 
ARM GAS  C:\Users\Matuesz\AppData\Local\Temp\ccLA85Wr.s 			page 218


 12267      706F696E 
 12268              	.LASF307:
 12269 013e 7573625F 		.ascii	"usb_lld_stop\000"
 12269      6C6C645F 
 12269      73746F70 
 12269      00
 12270              	.LASF62:
 12271 014b 6D5F6F77 		.ascii	"m_owner\000"
 12271      6E657200 
 12272              	.LASF65:
 12273 0153 65786974 		.ascii	"exitcode\000"
 12273      636F6465 
 12273      00
 12274              	.LASF151:
 12275 015c 75736265 		.ascii	"usbep0state_t\000"
 12275      70307374 
 12275      6174655F 
 12275      7400
 12276              	.LASF73:
 12277 016a 715F746F 		.ascii	"q_top\000"
 12277      7000
 12278              	.LASF67:
 12279 0170 65776D61 		.ascii	"ewmask\000"
 12279      736B00
 12280              	.LASF98:
 12281 0177 41484232 		.ascii	"AHB2LPENR\000"
 12281      4C50454E 
 12281      5200
 12282              	.LASF143:
 12283 0181 75736265 		.ascii	"usbepstatus_t\000"
 12283      70737461 
 12283      7475735F 
 12283      7400
 12284              	.LASF72:
 12285 018f 715F6275 		.ascii	"q_buffer\000"
 12285      66666572 
 12285      00
 12286              	.LASF153:
 12287 0198 5553425F 		.ascii	"USB_EVENT_ADDRESS\000"
 12287      4556454E 
 12287      545F4144 
 12287      44524553 
 12287      5300
 12288              	.LASF198:
 12289 01aa 44494550 		.ascii	"DIEPTXF0\000"
 12289      54584630 
 12289      00
 12290              	.LASF76:
 12291 01b3 715F6E6F 		.ascii	"q_notify\000"
 12291      74696679 
 12291      00
 12292              	.LASF32:
 12293 01bc 705F6E65 		.ascii	"p_newer\000"
 12293      77657200 
 12294              	.LASF294:
 12295 01c4 6669666F 		.ascii	"fifo\000"
 12295      00
ARM GAS  C:\Users\Matuesz\AppData\Local\Temp\ccLA85Wr.s 			page 219


 12296              	.LASF7:
 12297 01c9 6C6F6E67 		.ascii	"long int\000"
 12297      20696E74 
 12297      00
 12298              	.LASF28:
 12299 01d2 705F6E65 		.ascii	"p_next\000"
 12299      787400
 12300              	.LASF75:
 12301 01d9 715F7264 		.ascii	"q_rdptr\000"
 12301      70747200 
 12302              	.LASF29:
 12303 01e1 705F7072 		.ascii	"p_prev\000"
 12303      657600
 12304              	.LASF20:
 12305 01e8 74737461 		.ascii	"tstate_t\000"
 12305      74655F74 
 12305      00
 12306              	.LASF267:
 12307 01f1 6F75745F 		.ascii	"out_maxsize\000"
 12307      6D617873 
 12307      697A6500 
 12308              	.LASF44:
 12309 01fd 705F6D74 		.ascii	"p_mtxlist\000"
 12309      786C6973 
 12309      7400
 12310              	.LASF131:
 12311 0207 7468645F 		.ascii	"thd_wait\000"
 12311      77616974 
 12311      00
 12312              	.LASF246:
 12313 0210 74786275 		.ascii	"txbuf\000"
 12313      6600
 12314              	.LASF283:
 12315 0216 6F74675F 		.ascii	"otg_fifo_write_from_buffer\000"
 12315      6669666F 
 12315      5F777269 
 12315      74655F66 
 12315      726F6D5F 
 12316              	.LASF49:
 12317 0231 72656761 		.ascii	"regarm_t\000"
 12317      726D5F74 
 12317      00
 12318              	.LASF301:
 12319 023a 6F74675F 		.ascii	"otg_fifo_write_from_queue\000"
 12319      6669666F 
 12319      5F777269 
 12319      74655F66 
 12319      726F6D5F 
 12320              	.LASF224:
 12321 0254 4441494E 		.ascii	"DAINT\000"
 12321      5400
 12322              	.LASF144:
 12323 025a 5553425F 		.ascii	"USB_EP0_WAITING_SETUP\000"
 12323      4550305F 
 12323      57414954 
 12323      494E475F 
 12323      53455455 
ARM GAS  C:\Users\Matuesz\AppData\Local\Temp\ccLA85Wr.s 			page 220


 12324              	.LASF223:
 12325 0270 444F4550 		.ascii	"DOEPMSK\000"
 12325      4D534B00 
 12326              	.LASF95:
 12327 0278 41504232 		.ascii	"APB2ENR\000"
 12327      454E5200 
 12328              	.LASF342:
 12329 0280 7573624F 		.ascii	"usbObjectInit\000"
 12329      626A6563 
 12329      74496E69 
 12329      7400
 12330              	.LASF97:
 12331 028e 41484231 		.ascii	"AHB1LPENR\000"
 12331      4C50454E 
 12331      5200
 12332              	.LASF184:
 12333 0298 444F4550 		.ascii	"DOEPCTL\000"
 12333      43544C00 
 12334              	.LASF109:
 12335 02a0 44434B43 		.ascii	"DCKCFGR\000"
 12335      46475200 
 12336              	.LASF1:
 12337 02a8 7369676E 		.ascii	"signed char\000"
 12337      65642063 
 12337      68617200 
 12338              	.LASF38:
 12339 02b4 705F7072 		.ascii	"p_preempt\000"
 12339      65656D70 
 12339      7400
 12340              	.LASF12:
 12341 02be 75696E74 		.ascii	"uint8_t\000"
 12341      385F7400 
 12342              	.LASF157:
 12343 02c6 5553425F 		.ascii	"USB_EVENT_STALLED\000"
 12343      4556454E 
 12343      545F5354 
 12343      414C4C45 
 12343      4400
 12344              	.LASF142:
 12345 02d8 45505F53 		.ascii	"EP_STATUS_ACTIVE\000"
 12345      54415455 
 12345      535F4143 
 12345      54495645 
 12345      00
 12346              	.LASF185:
 12347 02e9 444F4550 		.ascii	"DOEPINT\000"
 12347      494E5400 
 12348              	.LASF25:
 12349 02f1 6576656E 		.ascii	"eventmask_t\000"
 12349      746D6173 
 12349      6B5F7400 
 12350              	.LASF52:
 12351 02fd 636F6E74 		.ascii	"context\000"
 12351      65787400 
 12352              	.LASF259:
 12353 0305 72787369 		.ascii	"rxsize\000"
 12353      7A6500
ARM GAS  C:\Users\Matuesz\AppData\Local\Temp\ccLA85Wr.s 			page 221


 12354              	.LASF330:
 12355 030c 6570305F 		.ascii	"ep0_state\000"
 12355      73746174 
 12355      6500
 12356              	.LASF346:
 12357 0316 5F757362 		.ascii	"_usb_reset\000"
 12357      5F726573 
 12357      657400
 12358              	.LASF86:
 12359 0321 52455345 		.ascii	"RESERVED0\000"
 12359      52564544 
 12359      3000
 12360              	.LASF89:
 12361 032b 52455345 		.ascii	"RESERVED1\000"
 12361      52564544 
 12361      3100
 12362              	.LASF2:
 12363 0335 756E7369 		.ascii	"unsigned char\000"
 12363      676E6564 
 12363      20636861 
 12363      7200
 12364              	.LASF96:
 12365 0343 52455345 		.ascii	"RESERVED3\000"
 12365      52564544 
 12365      3300
 12366              	.LASF100:
 12367 034d 52455345 		.ascii	"RESERVED4\000"
 12367      52564544 
 12367      3400
 12368              	.LASF77:
 12369 0357 715F6C69 		.ascii	"q_link\000"
 12369      6E6B00
 12370              	.LASF105:
 12371 035e 52455345 		.ascii	"RESERVED6\000"
 12371      52564544 
 12371      3600
 12372              	.LASF218:
 12373 0368 44434647 		.ascii	"DCFG\000"
 12373      00
 12374              	.LASF56:
 12375 036d 725F6E65 		.ascii	"r_newer\000"
 12375      77657200 
 12376              	.LASF202:
 12377 0375 47434346 		.ascii	"GCCFG\000"
 12377      4700
 12378              	.LASF119:
 12379 037b 65703073 		.ascii	"ep0state\000"
 12379      74617465 
 12379      00
 12380              	.LASF180:
 12381 0384 44494550 		.ascii	"DIEPTSIZ\000"
 12381      5453495A 
 12381      00
 12382              	.LASF275:
 12383 038d 72657175 		.ascii	"requests_hook_cb\000"
 12383      65737473 
 12383      5F686F6F 
ARM GAS  C:\Users\Matuesz\AppData\Local\Temp\ccLA85Wr.s 			page 222


 12383      6B5F6362 
 12383      00
 12384              	.LASF318:
 12385 039e 70636E74 		.ascii	"pcnt\000"
 12385      00
 12386              	.LASF18:
 12387 03a3 5F426F6F 		.ascii	"_Bool\000"
 12387      6C00
 12388              	.LASF295:
 12389 03a9 6F74675F 		.ascii	"otg_rxfifo_handler\000"
 12389      72786669 
 12389      666F5F68 
 12389      616E646C 
 12389      657200
 12390              	.LASF93:
 12391 03bc 52455345 		.ascii	"RESERVED2\000"
 12391      52564544 
 12391      3200
 12392              	.LASF207:
 12393 03c6 48434647 		.ascii	"HCFG\000"
 12393      00
 12394              	.LASF167:
 12395 03cb 48434348 		.ascii	"HCCHAR\000"
 12395      415200
 12396              	.LASF103:
 12397 03d2 52455345 		.ascii	"RESERVED5\000"
 12397      52564544 
 12397      3500
 12398              	.LASF316:
 12399 03dc 7573625F 		.ascii	"usb_lld_read_setup\000"
 12399      6C6C645F 
 12399      72656164 
 12399      5F736574 
 12399      757000
 12400              	.LASF187:
 12401 03ef 73746D33 		.ascii	"stm32_otg_out_ep_t\000"
 12401      325F6F74 
 12401      675F6F75 
 12401      745F6570 
 12401      5F7400
 12402              	.LASF10:
 12403 0402 63686172 		.ascii	"char\000"
 12403      00
 12404              	.LASF121:
 12405 0407 6570306E 		.ascii	"ep0n\000"
 12405      00
 12406              	.LASF221:
 12407 040c 72657376 		.ascii	"resvd80C\000"
 12407      64383043 
 12407      00
 12408              	.LASF215:
 12409 0415 48505254 		.ascii	"HPRT\000"
 12409      00
 12410              	.LASF30:
 12411 041a 705F7072 		.ascii	"p_prio\000"
 12411      696F00
 12412              	.LASF116:
ARM GAS  C:\Users\Matuesz\AppData\Local\Temp\ccLA85Wr.s 			page 223


 12413 0421 72656365 		.ascii	"receiving\000"
 12413      6976696E 
 12413      6700
 12414              	.LASF91:
 12415 042b 41484232 		.ascii	"AHB2ENR\000"
 12415      454E5200 
 12416              	.LASF69:
 12417 0433 47656E65 		.ascii	"GenericQueue\000"
 12417      72696351 
 12417      75657565 
 12417      00
 12418              	.LASF302:
 12419 0440 65706D61 		.ascii	"epmask\000"
 12419      736B00
 12420              	.LASF66:
 12421 0447 77746F62 		.ascii	"wtobjp\000"
 12421      6A7000
 12422              	.LASF263:
 12423 044e 73657475 		.ascii	"setup_cb\000"
 12423      705F6362 
 12423      00
 12424              	.LASF160:
 12425 0457 75645F73 		.ascii	"ud_string\000"
 12425      7472696E 
 12425      6700
 12426              	.LASF291:
 12427 0461 6F74675F 		.ascii	"otg_epout_handler\000"
 12427      65706F75 
 12427      745F6861 
 12427      6E646C65 
 12427      7200
 12428              	.LASF264:
 12429 0473 696E5F63 		.ascii	"in_cb\000"
 12429      6200
 12430              	.LASF50:
 12431 0479 73746B61 		.ascii	"stkalign_t\000"
 12431      6C69676E 
 12431      5F7400
 12432              	.LASF80:
 12433 0484 4F757470 		.ascii	"OutputQueue\000"
 12433      75745175 
 12433      65756500 
 12434              	.LASF209:
 12435 0490 48464E55 		.ascii	"HFNUM\000"
 12435      4D00
 12436              	.LASF164:
 12437 0496 75736265 		.ascii	"usbeventcb_t\000"
 12437      76656E74 
 12437      63625F74 
 12437      00
 12438              	.LASF292:
 12439 04a3 6570696E 		.ascii	"epint\000"
 12439      7400
 12440              	.LASF298:
 12441 04a9 73747265 		.ascii	"streak\000"
 12441      616B00
 12442              	.LASF175:
ARM GAS  C:\Users\Matuesz\AppData\Local\Temp\ccLA85Wr.s 			page 224


 12443 04b0 73746D33 		.ascii	"stm32_otg_host_chn_t\000"
 12443      325F6F74 
 12443      675F686F 
 12443      73745F63 
 12443      686E5F74 
 12444              	.LASF115:
 12445 04c5 7472616E 		.ascii	"transmitting\000"
 12445      736D6974 
 12445      74696E67 
 12445      00
 12446              	.LASF171:
 12447 04d2 48435453 		.ascii	"HCTSIZ\000"
 12447      495A00
 12448              	.LASF255:
 12449 04d9 55534249 		.ascii	"USBInEndpointState\000"
 12449      6E456E64 
 12449      706F696E 
 12449      74537461 
 12449      746500
 12450              	.LASF226:
 12451 04ec 72657376 		.ascii	"resvd820\000"
 12451      64383230 
 12451      00
 12452              	.LASF227:
 12453 04f5 72657376 		.ascii	"resvd824\000"
 12453      64383234 
 12453      00
 12454              	.LASF104:
 12455 04fe 42444352 		.ascii	"BDCR\000"
 12455      00
 12456              	.LASF229:
 12457 0503 44564255 		.ascii	"DVBUSPULSE\000"
 12457      5350554C 
 12457      534500
 12458              	.LASF134:
 12459 050e 5553425F 		.ascii	"USB_UNINIT\000"
 12459      554E494E 
 12459      495400
 12460              	.LASF231:
 12461 0519 44494550 		.ascii	"DIEPEMPMSK\000"
 12461      454D504D 
 12461      534B00
 12462              	.LASF161:
 12463 0524 55534244 		.ascii	"USBDescriptor\000"
 12463      65736372 
 12463      6970746F 
 12463      7200
 12464              	.LASF245:
 12465 0532 73746D33 		.ascii	"stm32_otg_params_t\000"
 12465      325F6F74 
 12465      675F7061 
 12465      72616D73 
 12465      5F7400
 12466              	.LASF123:
 12467 0545 73657475 		.ascii	"setup\000"
 12467      7000
 12468              	.LASF51:
ARM GAS  C:\Users\Matuesz\AppData\Local\Temp\ccLA85Wr.s 			page 225


 12469 054b 696E7463 		.ascii	"intctx\000"
 12469      747800
 12470              	.LASF43:
 12471 0552 705F6570 		.ascii	"p_epending\000"
 12471      656E6469 
 12471      6E6700
 12472              	.LASF192:
 12473 055d 47525354 		.ascii	"GRSTCTL\000"
 12473      43544C00 
 12474              	.LASF158:
 12475 0565 75736265 		.ascii	"usbevent_t\000"
 12475      76656E74 
 12475      5F7400
 12476              	.LASF232:
 12477 0570 72657376 		.ascii	"resvd838\000"
 12477      64383338 
 12477      00
 12478              	.LASF159:
 12479 0579 75645F73 		.ascii	"ud_size\000"
 12479      697A6500 
 12480              	.LASF82:
 12481 0581 43464752 		.ascii	"CFGR\000"
 12481      00
 12482              	.LASF341:
 12483 0586 63685363 		.ascii	"chSchGoSleepS\000"
 12483      68476F53 
 12483      6C656570 
 12483      5300
 12484              	.LASF137:
 12485 0594 5553425F 		.ascii	"USB_SELECTED\000"
 12485      53454C45 
 12485      43544544 
 12485      00
 12486              	.LASF126:
 12487 05a1 636F6E66 		.ascii	"configuration\000"
 12487      69677572 
 12487      6174696F 
 12487      6E00
 12488              	.LASF197:
 12489 05af 47525846 		.ascii	"GRXFSIZ\000"
 12489      53495A00 
 12490              	.LASF141:
 12491 05b7 45505F53 		.ascii	"EP_STATUS_STALLED\000"
 12491      54415455 
 12491      535F5354 
 12491      414C4C45 
 12491      4400
 12492              	.LASF252:
 12493 05c9 7478636E 		.ascii	"txcnt\000"
 12493      7400
 12494              	.LASF71:
 12495 05cf 715F636F 		.ascii	"q_counter\000"
 12495      756E7465 
 12495      7200
 12496              	.LASF322:
 12497 05d9 7573625F 		.ascii	"usb_lld_serve_interrupt\000"
 12497      6C6C645F 
ARM GAS  C:\Users\Matuesz\AppData\Local\Temp\ccLA85Wr.s 			page 226


 12497      73657276 
 12497      655F696E 
 12497      74657272 
 12498              	.LASF234:
 12499 05f1 72657376 		.ascii	"resvd840\000"
 12499      64383430 
 12499      00
 12500              	.LASF205:
 12501 05fa 44494550 		.ascii	"DIEPTXF\000"
 12501      54584600 
 12502              	.LASF9:
 12503 0602 6C6F6E67 		.ascii	"long unsigned int\000"
 12503      20756E73 
 12503      69676E65 
 12503      6420696E 
 12503      7400
 12504              	.LASF124:
 12505 0614 73746174 		.ascii	"status\000"
 12505      757300
 12506              	.LASF125:
 12507 061b 61646472 		.ascii	"address\000"
 12507      65737300 
 12508              	.LASF122:
 12509 0623 65703065 		.ascii	"ep0endcb\000"
 12509      6E646362 
 12509      00
 12510              	.LASF190:
 12511 062c 47414842 		.ascii	"GAHBCFG\000"
 12511      43464700 
 12512              	.LASF270:
 12513 0634 696E5F6D 		.ascii	"in_multiplier\000"
 12513      756C7469 
 12513      706C6965 
 12513      7200
 12514              	.LASF285:
 12515 0642 75736270 		.ascii	"usbp\000"
 12515      00
 12516              	.LASF244:
 12517 0647 6E756D5F 		.ascii	"num_endpoints\000"
 12517      656E6470 
 12517      6F696E74 
 12517      7300
 12518              	.LASF74:
 12519 0655 715F7772 		.ascii	"q_wrptr\000"
 12519      70747200 
 12520              	.LASF251:
 12521 065d 74787369 		.ascii	"txsize\000"
 12521      7A6500
 12522              	.LASF130:
 12523 0664 7468645F 		.ascii	"thd_ptr\000"
 12523      70747200 
 12524              	.LASF260:
 12525 066c 7278636E 		.ascii	"rxcnt\000"
 12525      7400
 12526              	.LASF139:
 12527 0672 75736273 		.ascii	"usbstate_t\000"
 12527      74617465 
ARM GAS  C:\Users\Matuesz\AppData\Local\Temp\ccLA85Wr.s 			page 227


 12527      5F7400
 12528              	.LASF333:
 12529 067d 66737061 		.ascii	"fsparams\000"
 12529      72616D73 
 12529      00
 12530              	.LASF303:
 12531 0686 646F6E65 		.ascii	"done\000"
 12531      00
 12532              	.LASF150:
 12533 068b 5553425F 		.ascii	"USB_EP0_ERROR\000"
 12533      4550305F 
 12533      4552524F 
 12533      5200
 12534              	.LASF210:
 12535 0699 72657376 		.ascii	"resvd40C\000"
 12535      64343043 
 12535      00
 12536              	.LASF345:
 12537 06a2 6E766963 		.ascii	"nvicEnableVector\000"
 12537      456E6162 
 12537      6C655665 
 12537      63746F72 
 12537      00
 12538              	.LASF188:
 12539 06b3 474F5447 		.ascii	"GOTGCTL\000"
 12539      43544C00 
 12540              	.LASF81:
 12541 06bb 504C4C43 		.ascii	"PLLCFGR\000"
 12541      46475200 
 12542              	.LASF300:
 12543 06c3 6F74675F 		.ascii	"otg_txfifo_handler\000"
 12543      74786669 
 12543      666F5F68 
 12543      616E646C 
 12543      657200
 12544              	.LASF256:
 12545 06d6 72786275 		.ascii	"rxbuf\000"
 12545      6600
 12546              	.LASF196:
 12547 06dc 47525853 		.ascii	"GRXSTSP\000"
 12547      54535000 
 12548              	.LASF268:
 12549 06e4 696E5F73 		.ascii	"in_state\000"
 12549      74617465 
 12549      00
 12550              	.LASF195:
 12551 06ed 47525853 		.ascii	"GRXSTSR\000"
 12551      54535200 
 12552              	.LASF156:
 12553 06f5 5553425F 		.ascii	"USB_EVENT_WAKEUP\000"
 12553      4556454E 
 12553      545F5741 
 12553      4B455550 
 12553      00
 12554              	.LASF238:
 12555 0706 50434743 		.ascii	"PCGCCTL\000"
 12555      43544C00 
ARM GAS  C:\Users\Matuesz\AppData\Local\Temp\ccLA85Wr.s 			page 228


 12556              	.LASF279:
 12557 070e 6F74675F 		.ascii	"otg_do_push\000"
 12557      646F5F70 
 12557      75736800 
 12558              	.LASF273:
 12559 071a 6576656E 		.ascii	"event_cb\000"
 12559      745F6362 
 12559      00
 12560              	.LASF60:
 12561 0723 4D757465 		.ascii	"Mutex\000"
 12561      7800
 12562              	.LASF5:
 12563 0729 6C6F6E67 		.ascii	"long long int\000"
 12563      206C6F6E 
 12563      6720696E 
 12563      7400
 12564              	.LASF136:
 12565 0737 5553425F 		.ascii	"USB_READY\000"
 12565      52454144 
 12565      5900
 12566              	.LASF61:
 12567 0741 6D5F7175 		.ascii	"m_queue\000"
 12567      65756500 
 12568              	.LASF106:
 12569 0749 53534347 		.ascii	"SSCGR\000"
 12569      5200
 12570              	.LASF120:
 12571 074f 6570306E 		.ascii	"ep0next\000"
 12571      65787400 
 12572              	.LASF230:
 12573 0757 72657376 		.ascii	"resvd830\000"
 12573      64383330 
 12573      00
 12574              	.LASF88:
 12575 0760 41504232 		.ascii	"APB2RSTR\000"
 12575      52535452 
 12575      00
 12576              	.LASF163:
 12577 0769 75736265 		.ascii	"usbepcallback_t\000"
 12577      7063616C 
 12577      6C626163 
 12577      6B5F7400 
 12578              	.LASF235:
 12579 0779 72657376 		.ascii	"resvd880\000"
 12579      64383830 
 12579      00
 12580              	.LASF336:
 12581 0782 49544D5F 		.ascii	"ITM_RxBuffer\000"
 12581      52784275 
 12581      66666572 
 12581      00
 12582              	.LASF233:
 12583 078f 72657376 		.ascii	"resvd83C\000"
 12583      64383343 
 12583      00
 12584              	.LASF68:
 12585 0798 7466756E 		.ascii	"tfunc_t\000"
ARM GAS  C:\Users\Matuesz\AppData\Local\Temp\ccLA85Wr.s 			page 229


 12585      635F7400 
 12586              	.LASF102:
 12587 07a0 41504232 		.ascii	"APB2LPENR\000"
 12587      4C50454E 
 12587      5200
 12588              	.LASF320:
 12589 07aa 7573625F 		.ascii	"usb_lld_wakeup_pump\000"
 12589      6C6C645F 
 12589      77616B65 
 12589      75705F70 
 12589      756D7000 
 12590              	.LASF78:
 12591 07be 716E6F74 		.ascii	"qnotify_t\000"
 12591      6966795F 
 12591      7400
 12592              	.LASF40:
 12593 07c8 705F7761 		.ascii	"p_waiting\000"
 12593      6974696E 
 12593      6700
 12594              	.LASF299:
 12595 07d2 6E773265 		.ascii	"nw2end\000"
 12595      6E6400
 12596              	.LASF36:
 12597 07d9 705F666C 		.ascii	"p_flags\000"
 12597      61677300 
 12598              	.LASF186:
 12599 07e1 444F4550 		.ascii	"DOEPTSIZ\000"
 12599      5453495A 
 12599      00
 12600              	.LASF212:
 12601 07ea 4841494E 		.ascii	"HAINT\000"
 12601      5400
 12602              	.LASF0:
 12603 07f0 756E7369 		.ascii	"unsigned int\000"
 12603      676E6564 
 12603      20696E74 
 12603      00
 12604              	.LASF305:
 12605 07fd 7573625F 		.ascii	"usb_lld_init\000"
 12605      6C6C645F 
 12605      696E6974 
 12605      00
 12606              	.LASF277:
 12607 080a 55534243 		.ascii	"USBConfig\000"
 12607      6F6E6669 
 12607      6700
 12608              	.LASF324:
 12609 0814 56656374 		.ascii	"Vector14C\000"
 12609      6F723134 
 12609      4300
 12610              	.LASF129:
 12611 081e 74787065 		.ascii	"txpending\000"
 12611      6E64696E 
 12611      6700
 12612              	.LASF46:
 12613 0828 705F6D70 		.ascii	"p_mpool\000"
 12613      6F6F6C00 
ARM GAS  C:\Users\Matuesz\AppData\Local\Temp\ccLA85Wr.s 			page 230


 12614              	.LASF327:
 12615 0830 7573625F 		.ascii	"usb_lld_stall_in\000"
 12615      6C6C645F 
 12615      7374616C 
 12615      6C5F696E 
 12615      00
 12616              	.LASF241:
 12617 0841 73746D33 		.ascii	"stm32_otg_t\000"
 12617      325F6F74 
 12617      675F7400 
 12618              	.LASF37:
 12619 084d 705F7265 		.ascii	"p_refs\000"
 12619      667300
 12620              	.LASF325:
 12621 0854 7573625F 		.ascii	"usb_lld_start_out\000"
 12621      6C6C645F 
 12621      73746172 
 12621      745F6F75 
 12621      7400
 12622              	.LASF340:
 12623 0866 68616C50 		.ascii	"halPolledDelay\000"
 12623      6F6C6C65 
 12623      6444656C 
 12623      617900
 12624              	.LASF271:
 12625 0875 73657475 		.ascii	"setup_buf\000"
 12625      705F6275 
 12625      6600
 12626              	.LASF348:
 12627 087f 5F706F72 		.ascii	"_port_irq_epilogue\000"
 12627      745F6972 
 12627      715F6570 
 12627      696C6F67 
 12627      756500
 12628              	.LASF48:
 12629 0892 54687265 		.ascii	"ThreadsList\000"
 12629      6164734C 
 12629      69737400 
 12630              	.LASF216:
 12631 089e 72657376 		.ascii	"resvd444\000"
 12631      64343434 
 12631      00
 12632              	.LASF332:
 12633 08a7 65703063 		.ascii	"ep0config\000"
 12633      6F6E6669 
 12633      6700
 12634              	.LASF265:
 12635 08b1 6F75745F 		.ascii	"out_cb\000"
 12635      636200
 12636              	.LASF112:
 12637 08b8 55534244 		.ascii	"USBDriver\000"
 12637      72697665 
 12637      7200
 12638              	.LASF101:
 12639 08c2 41504231 		.ascii	"APB1LPENR\000"
 12639      4C50454E 
 12639      5200
ARM GAS  C:\Users\Matuesz\AppData\Local\Temp\ccLA85Wr.s 			page 231


 12640              	.LASF213:
 12641 08cc 4841494E 		.ascii	"HAINTMSK\000"
 12641      544D534B 
 12641      00
 12642              	.LASF135:
 12643 08d5 5553425F 		.ascii	"USB_STOP\000"
 12643      53544F50 
 12643      00
 12644              	.LASF266:
 12645 08de 696E5F6D 		.ascii	"in_maxsize\000"
 12645      61787369 
 12645      7A6500
 12646              	.LASF194:
 12647 08e9 47494E54 		.ascii	"GINTMSK\000"
 12647      4D534B00 
 12648              	.LASF39:
 12649 08f1 705F7469 		.ascii	"p_time\000"
 12649      6D6500
 12650              	.LASF269:
 12651 08f8 6F75745F 		.ascii	"out_state\000"
 12651      73746174 
 12651      6500
 12652              	.LASF309:
 12653 0902 7573625F 		.ascii	"usb_lld_reset\000"
 12653      6C6C645F 
 12653      72657365 
 12653      7400
 12654              	.LASF349:
 12655 0910 474E5520 		.ascii	"GNU C 4.7.4 20140401 (release) [ARM/embedded-4_7-br"
 12655      4320342E 
 12655      372E3420 
 12655      32303134 
 12655      30343031 
 12656 0943 616E6368 		.ascii	"anch revision 209195]\000"
 12656      20726576 
 12656      6973696F 
 12656      6E203230 
 12656      39313935 
 12657              	.LASF310:
 12658 0959 7573625F 		.ascii	"usb_lld_set_address\000"
 12658      6C6C645F 
 12658      7365745F 
 12658      61646472 
 12658      65737300 
 12659              	.LASF352:
 12660 096d 7573625F 		.ascii	"usb_lld_pump\000"
 12660      6C6C645F 
 12660      70756D70 
 12660      00
 12661              	.LASF85:
 12662 097a 41484233 		.ascii	"AHB3RSTR\000"
 12662      52535452 
 12662      00
 12663              	.LASF45:
 12664 0983 705F7265 		.ascii	"p_realprio\000"
 12664      616C7072 
 12664      696F00
ARM GAS  C:\Users\Matuesz\AppData\Local\Temp\ccLA85Wr.s 			page 232


 12665              	.LASF146:
 12666 098e 5553425F 		.ascii	"USB_EP0_WAITING_TX0\000"
 12666      4550305F 
 12666      57414954 
 12666      494E475F 
 12666      54583000 
 12667              	.LASF127:
 12668 09a2 6F746770 		.ascii	"otgparams\000"
 12668      6172616D 
 12668      7300
 12669              	.LASF87:
 12670 09ac 41504231 		.ascii	"APB1RSTR\000"
 12670      52535452 
 12670      00
 12671              	.LASF94:
 12672 09b5 41504231 		.ascii	"APB1ENR\000"
 12672      454E5200 
 12673              	.LASF261:
 12674 09bd 5553424F 		.ascii	"USBOutEndpointState\000"
 12674      7574456E 
 12674      64706F69 
 12674      6E745374 
 12674      61746500 
 12675              	.LASF339:
 12676 09d1 7573625F 		.ascii	"usb_lld_start_in\000"
 12676      6C6C645F 
 12676      73746172 
 12676      745F696E 
 12676      00
 12677              	.LASF287:
 12678 09e2 73697A65 		.ascii	"size\000"
 12678      00
 12679              	.LASF237:
 12680 09e7 72657376 		.ascii	"resvdD00\000"
 12680      64443030 
 12680      00
 12681              	.LASF6:
 12682 09f0 6C6F6E67 		.ascii	"long long unsigned int\000"
 12682      206C6F6E 
 12682      6720756E 
 12682      7369676E 
 12682      65642069 
 12683              	.LASF204:
 12684 0a07 48505458 		.ascii	"HPTXFSIZ\000"
 12684      4653495A 
 12684      00
 12685              	.LASF313:
 12686 0a10 7573625F 		.ascii	"usb_lld_disable_endpoints\000"
 12686      6C6C645F 
 12686      64697361 
 12686      626C655F 
 12686      656E6470 
 12687              	.LASF33:
 12688 0a2a 705F6F6C 		.ascii	"p_older\000"
 12688      64657200 
 12689              	.LASF13:
 12690 0a32 75696E74 		.ascii	"uint16_t\000"
ARM GAS  C:\Users\Matuesz\AppData\Local\Temp\ccLA85Wr.s 			page 233


 12690      31365F74 
 12690      00
 12691              	.LASF169:
 12692 0a3b 4843494E 		.ascii	"HCINT\000"
 12692      5400
 12693              	.LASF248:
 12694 0a41 6C696E65 		.ascii	"linear\000"
 12694      617200
 12695              	.LASF24:
 12696 0a48 6D73675F 		.ascii	"msg_t\000"
 12696      7400
 12697              	.LASF219:
 12698 0a4e 4443544C 		.ascii	"DCTL\000"
 12698      00
 12699              	.LASF272:
 12700 0a53 55534245 		.ascii	"USBEndpointConfig\000"
 12700      6E64706F 
 12700      696E7443 
 12700      6F6E6669 
 12700      6700
 12701              	.LASF170:
 12702 0a65 4843494E 		.ascii	"HCINTMSK\000"
 12702      544D534B 
 12702      00
 12703              	.LASF258:
 12704 0a6e 72787175 		.ascii	"rxqueued\000"
 12704      65756564 
 12704      00
 12705              	.LASF22:
 12706 0a77 74736C69 		.ascii	"tslices_t\000"
 12706      6365735F 
 12706      7400
 12707              	.LASF317:
 12708 0a81 7573625F 		.ascii	"usb_lld_prepare_receive\000"
 12708      6C6C645F 
 12708      70726570 
 12708      6172655F 
 12708      72656365 
 12709              	.LASF189:
 12710 0a99 474F5447 		.ascii	"GOTGINT\000"
 12710      494E5400 
 12711              	.LASF58:
 12712 0aa1 725F6375 		.ascii	"r_current\000"
 12712      7272656E 
 12712      7400
 12713              	.LASF249:
 12714 0aab 71756575 		.ascii	"queue\000"
 12714      6500
 12715              	.LASF257:
 12716 0ab1 72787175 		.ascii	"rxqueue\000"
 12716      65756500 
 12717              	.LASF225:
 12718 0ab9 4441494E 		.ascii	"DAINTMSK\000"
 12718      544D534B 
 12718      00
 12719              	.LASF334:
 12720 0ac2 68737061 		.ascii	"hsparams\000"
ARM GAS  C:\Users\Matuesz\AppData\Local\Temp\ccLA85Wr.s 			page 234


 12720      72616D73 
 12720      00
 12721              	.LASF344:
 12722 0acb 63685468 		.ascii	"chThdCreateI\000"
 12722      64437265 
 12722      61746549 
 12722      00
 12723              	.LASF99:
 12724 0ad8 41484233 		.ascii	"AHB3LPENR\000"
 12724      4C50454E 
 12724      5200
 12725              	.LASF351:
 12726 0ae2 433A5C43 		.ascii	"C:\\ChibiStudio\\chibios\\demos\\ARMCM4-STM32F407-E"
 12726      68696269 
 12726      53747564 
 12726      696F5C63 
 12726      68696269 
 12727 0b11 4D4700   		.ascii	"MG\000"
 12728              	.LASF183:
 12729 0b14 73746D33 		.ascii	"stm32_otg_in_ep_t\000"
 12729      325F6F74 
 12729      675F696E 
 12729      5F65705F 
 12729      7400
 12730              	.LASF243:
 12731 0b26 6F74675F 		.ascii	"otg_ram_size\000"
 12731      72616D5F 
 12731      73697A65 
 12731      00
 12732              	.LASF53:
 12733 0b33 725F7175 		.ascii	"r_queue\000"
 12733      65756500 
 12734              	.LASF154:
 12735 0b3b 5553425F 		.ascii	"USB_EVENT_CONFIGURED\000"
 12735      4556454E 
 12735      545F434F 
 12735      4E464947 
 12735      55524544 
 12736              	.LASF240:
 12737 0b50 4649464F 		.ascii	"FIFO\000"
 12737      00
 12738              	.LASF70:
 12739 0b55 715F7761 		.ascii	"q_waiting\000"
 12739      6974696E 
 12739      6700
 12740              	.LASF335:
 12741 0b5f 726C6973 		.ascii	"rlist\000"
 12741      7400
 12742              	.LASF19:
 12743 0b65 746D6F64 		.ascii	"tmode_t\000"
 12743      655F7400 
 12744              	.LASF90:
 12745 0b6d 41484231 		.ascii	"AHB1ENR\000"
 12745      454E5200 
 12746              	.LASF214:
 12747 0b75 72657376 		.ascii	"resvd41C\000"
 12747      64343143 
ARM GAS  C:\Users\Matuesz\AppData\Local\Temp\ccLA85Wr.s 			page 235


 12747      00
 12748              	.LASF166:
 12749 0b7e 75736267 		.ascii	"usbgetdescriptor_t\000"
 12749      65746465 
 12749      73637269 
 12749      70746F72 
 12749      5F7400
 12750              	.LASF132:
 12751 0b91 77615F70 		.ascii	"wa_pump\000"
 12751      756D7000 
 12752              	.LASF117:
 12753 0b99 696E5F70 		.ascii	"in_params\000"
 12753      6172616D 
 12753      7300
 12754              	.LASF111:
 12755 0ba3 68616C72 		.ascii	"halrtcnt_t\000"
 12755      74636E74 
 12755      5F7400
 12756              	.LASF92:
 12757 0bae 41484233 		.ascii	"AHB3ENR\000"
 12757      454E5200 
 12758              	.LASF57:
 12759 0bb6 725F6F6C 		.ascii	"r_older\000"
 12759      64657200 
 12760              	.LASF84:
 12761 0bbe 41484232 		.ascii	"AHB2RSTR\000"
 12761      52535452 
 12761      00
 12762              	.LASF293:
 12763 0bc7 6F74675F 		.ascii	"otg_txfifo_flush\000"
 12763      74786669 
 12763      666F5F66 
 12763      6C757368 
 12763      00
 12764              	.LASF110:
 12765 0bd8 5243435F 		.ascii	"RCC_TypeDef\000"
 12765      54797065 
 12765      44656600 
 12766              	.LASF3:
 12767 0be4 73686F72 		.ascii	"short int\000"
 12767      7420696E 
 12767      7400
 12768              	.LASF254:
 12769 0bee 746F7473 		.ascii	"totsize\000"
 12769      697A6500 
 12770              	.LASF242:
 12771 0bf6 72785F66 		.ascii	"rx_fifo_size\000"
 12771      69666F5F 
 12771      73697A65 
 12771      00
 12772              	.LASF16:
 12773 0c03 75696E74 		.ascii	"uint64_t\000"
 12773      36345F74 
 12773      00
 12774              	.LASF253:
 12775 0c0c 6D6F6465 		.ascii	"mode\000"
 12775      00
ARM GAS  C:\Users\Matuesz\AppData\Local\Temp\ccLA85Wr.s 			page 236


 12776              	.LASF347:
 12777 0c11 63685363 		.ascii	"chSchRescheduleS\000"
 12777      68526573 
 12777      63686564 
 12777      756C6553 
 12777      00
 12778              	.LASF152:
 12779 0c22 5553425F 		.ascii	"USB_EVENT_RESET\000"
 12779      4556454E 
 12779      545F5245 
 12779      53455400 
 12780              	.LASF172:
 12781 0c32 72657376 		.ascii	"resvd14\000"
 12781      64313400 
 12782              	.LASF173:
 12783 0c3a 72657376 		.ascii	"resvd18\000"
 12783      64313800 
 12784              	.LASF181:
 12785 0c42 44545846 		.ascii	"DTXFSTS\000"
 12785      53545300 
 12786              	.LASF247:
 12787 0c4a 74787175 		.ascii	"txqueue\000"
 12787      65756500 
 12788              	.LASF280:
 12789 0c52 6F74675F 		.ascii	"otg_do_pop\000"
 12789      646F5F70 
 12789      6F7000
 12790              	.LASF182:
 12791 0c5d 72657376 		.ascii	"resvd1C\000"
 12791      64314300 
 12792              	.LASF222:
 12793 0c65 44494550 		.ascii	"DIEPMSK\000"
 12793      4D534B00 
 12794              	.LASF54:
 12795 0c6d 725F7072 		.ascii	"r_prio\000"
 12795      696F00
 12796              	.LASF350:
 12797 0c74 2E2E2F2E 		.ascii	"../../os/hal/platforms/STM32/OTGv1/usb_lld.c\000"
 12797      2E2F6F73 
 12797      2F68616C 
 12797      2F706C61 
 12797      74666F72 
 12798              	.LASF314:
 12799 0ca1 7573625F 		.ascii	"usb_lld_get_status_out\000"
 12799      6C6C645F 
 12799      6765745F 
 12799      73746174 
 12799      75735F6F 
 12800              	.LASF306:
 12801 0cb8 7573625F 		.ascii	"usb_lld_start\000"
 12801      6C6C645F 
 12801      73746172 
 12801      7400
 12802              	.LASF17:
 12803 0cc6 626F6F6C 		.ascii	"bool_t\000"
 12803      5F7400
 12804              	.LASF174:
ARM GAS  C:\Users\Matuesz\AppData\Local\Temp\ccLA85Wr.s 			page 237


 12805 0ccd 72657376 		.ascii	"resvd1c\000"
 12805      64316300 
 12806              	.LASF165:
 12807 0cd5 75736272 		.ascii	"usbreqhandler_t\000"
 12807      65716861 
 12807      6E646C65 
 12807      725F7400 
 12808              	.LASF176:
 12809 0ce5 44494550 		.ascii	"DIEPCTL\000"
 12809      43544C00 
 12810              	.LASF162:
 12811 0ced 75736263 		.ascii	"usbcallback_t\000"
 12811      616C6C62 
 12811      61636B5F 
 12811      7400
 12812              	.LASF27:
 12813 0cfb 54687265 		.ascii	"Thread\000"
 12813      616400
 12814              	.LASF193:
 12815 0d02 47494E54 		.ascii	"GINTSTS\000"
 12815      53545300 
 12816              	.LASF296:
 12817 0d0a 6F74675F 		.ascii	"otg_fifo_read_to_queue\000"
 12817      6669666F 
 12817      5F726561 
 12817      645F746F 
 12817      5F717565 
 12818              	.LASF329:
 12819 0d21 7573625F 		.ascii	"usb_lld_clear_in\000"
 12819      6C6C645F 
 12819      636C6561 
 12819      725F696E 
 12819      00
 12820              	.LASF178:
 12821 0d32 44494550 		.ascii	"DIEPINT\000"
 12821      494E5400 
 12822              	.LASF199:
 12823 0d3a 484E5054 		.ascii	"HNPTXSTS\000"
 12823      58535453 
 12823      00
 12824              	.LASF323:
 12825 0d43 56656374 		.ascii	"Vector174\000"
 12825      6F723137 
 12825      3400
 12826              	.LASF337:
 12827 0d4d 55534244 		.ascii	"USBD1\000"
 12827      3100
 12828              	.LASF338:
 12829 0d53 55534244 		.ascii	"USBD2\000"
 12829      3200
 12830              	.LASF21:
 12831 0d59 74726566 		.ascii	"trefs_t\000"
 12831      735F7400 
 12832              	.LASF276:
 12833 0d61 736F665F 		.ascii	"sof_cb\000"
 12833      636200
 12834              	.LASF239:
ARM GAS  C:\Users\Matuesz\AppData\Local\Temp\ccLA85Wr.s 			page 238


 12835 0d68 72657376 		.ascii	"resvdE04\000"
 12835      64453034 
 12835      00
 12836              	.LASF200:
 12837 0d71 72657376 		.ascii	"resvd30\000"
 12837      64333000 
 12838              	.LASF236:
 12839 0d79 72657376 		.ascii	"resvd8C0\000"
 12839      64384330 
 12839      00
 12840              	.LASF201:
 12841 0d82 72657376 		.ascii	"resvd34\000"
 12841      64333400 
 12842              	.LASF284:
 12843 0d8a 6F74675F 		.ascii	"otg_ram_reset\000"
 12843      72616D5F 
 12843      72657365 
 12843      7400
 12844              	.LASF15:
 12845 0d98 75696E74 		.ascii	"uint32_t\000"
 12845      33325F74 
 12845      00
 12846              	.LASF133:
 12847 0da1 75736265 		.ascii	"usbep_t\000"
 12847      705F7400 
 12848              	.LASF228:
 12849 0da9 44564255 		.ascii	"DVBUSDIS\000"
 12849      53444953 
 12849      00
 12850              	.LASF47:
 12851 0db2 54687265 		.ascii	"ThreadsQueue\000"
 12851      61647351 
 12851      75657565 
 12851      00
 12852              	.LASF155:
 12853 0dbf 5553425F 		.ascii	"USB_EVENT_SUSPEND\000"
 12853      4556454E 
 12853      545F5355 
 12853      5350454E 
 12853      4400
 12854              	.LASF108:
 12855 0dd1 504C4C53 		.ascii	"PLLSAICFGR\000"
 12855      41494346 
 12855      475200
 12856              	.LASF321:
 12857 0ddc 6F74675F 		.ascii	"otg_epin_handler\000"
 12857      6570696E 
 12857      5F68616E 
 12857      646C6572 
 12857      00
 12858              	.LASF297:
 12859 0ded 6E746F67 		.ascii	"ntogo\000"
 12859      6F00
 12860              	.LASF64:
 12861 0df3 7264796D 		.ascii	"rdymsg\000"
 12861      736700
 12862              	.LASF4:
ARM GAS  C:\Users\Matuesz\AppData\Local\Temp\ccLA85Wr.s 			page 239


 12863 0dfa 73686F72 		.ascii	"short unsigned int\000"
 12863      7420756E 
 12863      7369676E 
 12863      65642069 
 12863      6E7400
 12864              	.LASF220:
 12865 0e0d 44535453 		.ascii	"DSTS\000"
 12865      00
 12866              	.LASF274:
 12867 0e12 6765745F 		.ascii	"get_descriptor_cb\000"
 12867      64657363 
 12867      72697074 
 12867      6F725F63 
 12867      6200
 12868              	.LASF308:
 12869 0e24 6F74675F 		.ascii	"otg_rxfifo_flush\000"
 12869      72786669 
 12869      666F5F66 
 12869      6C757368 
 12869      00
 12870              	.LASF79:
 12871 0e35 496E7075 		.ascii	"InputQueue\000"
 12871      74517565 
 12871      756500
 12872              	.LASF289:
 12873 0e40 6F746770 		.ascii	"otgp\000"
 12873      00
 12874              	.LASF118:
 12875 0e45 6F75745F 		.ascii	"out_params\000"
 12875      70617261 
 12875      6D7300
 12876              	.LASF140:
 12877 0e50 45505F53 		.ascii	"EP_STATUS_DISABLED\000"
 12877      54415455 
 12877      535F4449 
 12877      5341424C 
 12877      454400
 12878              	.LASF83:
 12879 0e63 41484231 		.ascii	"AHB1RSTR\000"
 12879      52535452 
 12879      00
 12880              	.LASF211:
 12881 0e6c 48505458 		.ascii	"HPTXSTS\000"
 12881      53545300 
 12882              	.LASF203:
 12883 0e74 72657376 		.ascii	"resvd58\000"
 12883      64353800 
 12884              	.LASF149:
 12885 0e7c 5553425F 		.ascii	"USB_EP0_SENDING_STS\000"
 12885      4550305F 
 12885      53454E44 
 12885      494E475F 
 12885      53545300 
 12886              	.LASF59:
 12887 0e90 52656164 		.ascii	"ReadyList\000"
 12887      794C6973 
 12887      7400
ARM GAS  C:\Users\Matuesz\AppData\Local\Temp\ccLA85Wr.s 			page 240


 12888              	.LASF208:
 12889 0e9a 48464952 		.ascii	"HFIR\000"
 12889      00
 12890              	.LASF147:
 12891 0e9f 5553425F 		.ascii	"USB_EP0_WAITING_STS\000"
 12891      4550305F 
 12891      57414954 
 12891      494E475F 
 12891      53545300 
 12892              	.LASF34:
 12893 0eb3 705F6E61 		.ascii	"p_name\000"
 12893      6D6500
 12894              	.LASF288:
 12895 0eba 6E657874 		.ascii	"next\000"
 12895      00
 12896              	.LASF63:
 12897 0ebf 6D5F6E65 		.ascii	"m_next\000"
 12897      787400
 12898              	.LASF281:
 12899 0ec6 6669666F 		.ascii	"fifo_remove\000"
 12899      5F72656D 
 12899      6F766500 
 12900              	.LASF128:
 12901 0ed2 706D6E65 		.ascii	"pmnext\000"
 12901      787400
 12902              	.LASF286:
 12903 0ed9 6F74675F 		.ascii	"otg_ram_alloc\000"
 12903      72616D5F 
 12903      616C6C6F 
 12903      6300
 12904              	.LASF250:
 12905 0ee7 74787175 		.ascii	"txqueued\000"
 12905      65756564 
 12905      00
 12906              	.LASF191:
 12907 0ef0 47555342 		.ascii	"GUSBCFG\000"
 12907      43464700 
 12908              	.LASF148:
 12909 0ef8 5553425F 		.ascii	"USB_EP0_RX\000"
 12909      4550305F 
 12909      525800
 12910              	.LASF206:
 12911 0f03 72657376 		.ascii	"resvd140\000"
 12911      64313430 
 12911      00
 12912              	.LASF290:
 12913 0f0c 6F74675F 		.ascii	"otg_disable_ep\000"
 12913      64697361 
 12913      626C655F 
 12913      657000
 12914              	.LASF42:
 12915 0f1b 705F6D73 		.ascii	"p_msg\000"
 12915      6700
 12916              	.LASF304:
 12917 0f21 6F74675F 		.ascii	"otg_core_reset\000"
 12917      636F7265 
 12917      5F726573 
ARM GAS  C:\Users\Matuesz\AppData\Local\Temp\ccLA85Wr.s 			page 241


 12917      657400
 12918              	.LASF35:
 12919 0f30 705F7374 		.ascii	"p_state\000"
 12919      61746500 
 12920              		.ident	"GCC: (GNU Tools for ARM Embedded Processors) 4.7.4 20140401 (release) [ARM/embedded-4_7-br
ARM GAS  C:\Users\Matuesz\AppData\Local\Temp\ccLA85Wr.s 			page 242


DEFINED SYMBOLS
                            *ABS*:00000000 usb_lld.c
C:\Users\Matuesz\AppData\Local\Temp\ccLA85Wr.s:19     .text.otg_disable_ep:00000000 $t
C:\Users\Matuesz\AppData\Local\Temp\ccLA85Wr.s:24     .text.otg_disable_ep:00000000 otg_disable_ep
C:\Users\Matuesz\AppData\Local\Temp\ccLA85Wr.s:131    .text.otg_epout_handler:00000000 $t
C:\Users\Matuesz\AppData\Local\Temp\ccLA85Wr.s:136    .text.otg_epout_handler:00000000 otg_epout_handler
C:\Users\Matuesz\AppData\Local\Temp\ccLA85Wr.s:213    .text.otg_txfifo_flush:00000000 $t
C:\Users\Matuesz\AppData\Local\Temp\ccLA85Wr.s:218    .text.otg_txfifo_flush:00000000 otg_txfifo_flush
C:\Users\Matuesz\AppData\Local\Temp\ccLA85Wr.s:250    .text.usb_lld_pump:00000000 $t
C:\Users\Matuesz\AppData\Local\Temp\ccLA85Wr.s:255    .text.usb_lld_pump:00000000 usb_lld_pump
C:\Users\Matuesz\AppData\Local\Temp\ccLA85Wr.s:849    .text.usb_lld_pump:0000025c $d
C:\Users\Matuesz\AppData\Local\Temp\ccLA85Wr.s:860    .text.usb_lld_pump:00000260 $t
C:\Users\Matuesz\AppData\Local\Temp\ccLA85Wr.s:1381   .text.usb_lld_init:00000000 $t
C:\Users\Matuesz\AppData\Local\Temp\ccLA85Wr.s:1387   .text.usb_lld_init:00000000 usb_lld_init
C:\Users\Matuesz\AppData\Local\Temp\ccLA85Wr.s:3210   .bss.USBD1:00000000 .LANCHOR0
C:\Users\Matuesz\AppData\Local\Temp\ccLA85Wr.s:3217   .bss.USBD2:00000000 .LANCHOR2
C:\Users\Matuesz\AppData\Local\Temp\ccLA85Wr.s:3201   .rodata.fsparams:00000000 .LANCHOR1
C:\Users\Matuesz\AppData\Local\Temp\ccLA85Wr.s:3224   .rodata.hsparams:00000000 .LANCHOR3
C:\Users\Matuesz\AppData\Local\Temp\ccLA85Wr.s:1453   .text.usb_lld_start:00000000 $t
C:\Users\Matuesz\AppData\Local\Temp\ccLA85Wr.s:1459   .text.usb_lld_start:00000000 usb_lld_start
C:\Users\Matuesz\AppData\Local\Temp\ccLA85Wr.s:1672   .text.usb_lld_start:00000114 $d
C:\Users\Matuesz\AppData\Local\Temp\ccLA85Wr.s:1679   .text.usb_lld_stop:00000000 $t
C:\Users\Matuesz\AppData\Local\Temp\ccLA85Wr.s:1685   .text.usb_lld_stop:00000000 usb_lld_stop
C:\Users\Matuesz\AppData\Local\Temp\ccLA85Wr.s:1728   .text.usb_lld_reset:00000000 $t
C:\Users\Matuesz\AppData\Local\Temp\ccLA85Wr.s:1734   .text.usb_lld_reset:00000000 usb_lld_reset
C:\Users\Matuesz\AppData\Local\Temp\ccLA85Wr.s:1952   .text.usb_lld_reset:00000128 $d
C:\Users\Matuesz\AppData\Local\Temp\ccLA85Wr.s:1957   .text.usb_lld_set_address:00000000 $t
C:\Users\Matuesz\AppData\Local\Temp\ccLA85Wr.s:1963   .text.usb_lld_set_address:00000000 usb_lld_set_address
C:\Users\Matuesz\AppData\Local\Temp\ccLA85Wr.s:1986   .text.usb_lld_init_endpoint:00000000 $t
C:\Users\Matuesz\AppData\Local\Temp\ccLA85Wr.s:1992   .text.usb_lld_init_endpoint:00000000 usb_lld_init_endpoint
C:\Users\Matuesz\AppData\Local\Temp\ccLA85Wr.s:2197   .text.usb_lld_disable_endpoints:00000000 $t
C:\Users\Matuesz\AppData\Local\Temp\ccLA85Wr.s:2203   .text.usb_lld_disable_endpoints:00000000 usb_lld_disable_endpoints
C:\Users\Matuesz\AppData\Local\Temp\ccLA85Wr.s:2227   .text.usb_lld_get_status_out:00000000 $t
C:\Users\Matuesz\AppData\Local\Temp\ccLA85Wr.s:2233   .text.usb_lld_get_status_out:00000000 usb_lld_get_status_out
C:\Users\Matuesz\AppData\Local\Temp\ccLA85Wr.s:2265   .text.usb_lld_get_status_in:00000000 $t
C:\Users\Matuesz\AppData\Local\Temp\ccLA85Wr.s:2271   .text.usb_lld_get_status_in:00000000 usb_lld_get_status_in
C:\Users\Matuesz\AppData\Local\Temp\ccLA85Wr.s:2303   .text.usb_lld_read_setup:00000000 $t
C:\Users\Matuesz\AppData\Local\Temp\ccLA85Wr.s:2309   .text.usb_lld_read_setup:00000000 usb_lld_read_setup
C:\Users\Matuesz\AppData\Local\Temp\ccLA85Wr.s:2332   .text.usb_lld_prepare_receive:00000000 $t
C:\Users\Matuesz\AppData\Local\Temp\ccLA85Wr.s:2338   .text.usb_lld_prepare_receive:00000000 usb_lld_prepare_receive
C:\Users\Matuesz\AppData\Local\Temp\ccLA85Wr.s:2384   .text.usb_lld_prepare_transmit:00000000 $t
C:\Users\Matuesz\AppData\Local\Temp\ccLA85Wr.s:2390   .text.usb_lld_prepare_transmit:00000000 usb_lld_prepare_transmit
C:\Users\Matuesz\AppData\Local\Temp\ccLA85Wr.s:2469   .text.otg_epin_handler:00000000 $t
C:\Users\Matuesz\AppData\Local\Temp\ccLA85Wr.s:2474   .text.otg_epin_handler:00000000 otg_epin_handler
C:\Users\Matuesz\AppData\Local\Temp\ccLA85Wr.s:2665   .text.usb_lld_serve_interrupt:00000000 $t
C:\Users\Matuesz\AppData\Local\Temp\ccLA85Wr.s:2670   .text.usb_lld_serve_interrupt:00000000 usb_lld_serve_interrupt
C:\Users\Matuesz\AppData\Local\Temp\ccLA85Wr.s:2962   .text.Vector174:00000000 $t
C:\Users\Matuesz\AppData\Local\Temp\ccLA85Wr.s:2968   .text.Vector174:00000000 Vector174
C:\Users\Matuesz\AppData\Local\Temp\ccLA85Wr.s:2993   .text.Vector14C:00000000 $t
C:\Users\Matuesz\AppData\Local\Temp\ccLA85Wr.s:2999   .text.Vector14C:00000000 Vector14C
C:\Users\Matuesz\AppData\Local\Temp\ccLA85Wr.s:3024   .text.usb_lld_start_out:00000000 $t
C:\Users\Matuesz\AppData\Local\Temp\ccLA85Wr.s:3030   .text.usb_lld_start_out:00000000 usb_lld_start_out
C:\Users\Matuesz\AppData\Local\Temp\ccLA85Wr.s:3052   .text.usb_lld_start_in:00000000 $t
C:\Users\Matuesz\AppData\Local\Temp\ccLA85Wr.s:3058   .text.usb_lld_start_in:00000000 usb_lld_start_in
C:\Users\Matuesz\AppData\Local\Temp\ccLA85Wr.s:3086   .text.usb_lld_stall_out:00000000 $t
C:\Users\Matuesz\AppData\Local\Temp\ccLA85Wr.s:3092   .text.usb_lld_stall_out:00000000 usb_lld_stall_out
C:\Users\Matuesz\AppData\Local\Temp\ccLA85Wr.s:3114   .text.usb_lld_stall_in:00000000 $t
ARM GAS  C:\Users\Matuesz\AppData\Local\Temp\ccLA85Wr.s 			page 243


C:\Users\Matuesz\AppData\Local\Temp\ccLA85Wr.s:3120   .text.usb_lld_stall_in:00000000 usb_lld_stall_in
C:\Users\Matuesz\AppData\Local\Temp\ccLA85Wr.s:3142   .text.usb_lld_clear_out:00000000 $t
C:\Users\Matuesz\AppData\Local\Temp\ccLA85Wr.s:3148   .text.usb_lld_clear_out:00000000 usb_lld_clear_out
C:\Users\Matuesz\AppData\Local\Temp\ccLA85Wr.s:3170   .text.usb_lld_clear_in:00000000 $t
C:\Users\Matuesz\AppData\Local\Temp\ccLA85Wr.s:3176   .text.usb_lld_clear_in:00000000 usb_lld_clear_in
C:\Users\Matuesz\AppData\Local\Temp\ccLA85Wr.s:3220   .bss.USBD2:00000000 USBD2
C:\Users\Matuesz\AppData\Local\Temp\ccLA85Wr.s:3213   .bss.USBD1:00000000 USBD1
C:\Users\Matuesz\AppData\Local\Temp\ccLA85Wr.s:3200   .rodata.fsparams:00000000 $d
C:\Users\Matuesz\AppData\Local\Temp\ccLA85Wr.s:3204   .rodata.fsparams:00000000 fsparams
C:\Users\Matuesz\AppData\Local\Temp\ccLA85Wr.s:3209   .bss.USBD1:00000000 $d
C:\Users\Matuesz\AppData\Local\Temp\ccLA85Wr.s:3216   .bss.USBD2:00000000 $d
C:\Users\Matuesz\AppData\Local\Temp\ccLA85Wr.s:3223   .rodata.hsparams:00000000 $d
C:\Users\Matuesz\AppData\Local\Temp\ccLA85Wr.s:3227   .rodata.hsparams:00000000 hsparams
C:\Users\Matuesz\AppData\Local\Temp\ccLA85Wr.s:3232   .rodata.str1.4:00000000 $d
C:\Users\Matuesz\AppData\Local\Temp\ccLA85Wr.s:3236   .rodata.ep0config:00000000 $d
C:\Users\Matuesz\AppData\Local\Temp\ccLA85Wr.s:3240   .rodata.ep0config:00000000 ep0config
C:\Users\Matuesz\AppData\Local\Temp\ccLA85Wr.s:3256   .bss.ep0_state:00000000 ep0_state
C:\Users\Matuesz\AppData\Local\Temp\ccLA85Wr.s:3262   .bss.ep0setup_buffer:00000000 ep0setup_buffer
C:\Users\Matuesz\AppData\Local\Temp\ccLA85Wr.s:3253   .bss.ep0_state:00000000 $d
C:\Users\Matuesz\AppData\Local\Temp\ccLA85Wr.s:3259   .bss.ep0setup_buffer:00000000 $d
                     .debug_frame:00000010 $d
C:\Users\Matuesz\AppData\Local\Temp\ccLA85Wr.s:1956   .text.usb_lld_reset:0000012c $t

UNDEFINED SYMBOLS
halPolledDelay
rlist
chSchGoSleepS
chSchReadyI
chSchRescheduleS
usbObjectInit
chThdCreateI
nvicEnableVector
_usb_reset
_port_irq_epilogue
_usb_ep0setup
_usb_ep0in
_usb_ep0out
