ARM GAS  C:\Users\Matuesz\AppData\Local\Temp\ccLA85Wr.s 			page 1


   1              		.syntax unified
   2              		.cpu cortex-m4
   3              		.fpu softvfp
   4              		.eabi_attribute 20, 1
   5              		.eabi_attribute 21, 1
   6              		.eabi_attribute 23, 3
   7              		.eabi_attribute 24, 1
   8              		.eabi_attribute 25, 1
   9              		.eabi_attribute 26, 1
  10              		.eabi_attribute 30, 2
  11              		.eabi_attribute 34, 1
  12              		.eabi_attribute 18, 4
  13              		.thumb
  14              		.file	"usb_lld.c"
  15              		.text
  16              	.Ltext0:
  17              		.cfi_sections	.debug_frame
  18              		.section	.text.otg_disable_ep,"ax",%progbits
  19              		.align	2
  20              		.p2align 4,,15
  21              		.thumb
  22              		.thumb_func
  23              		.type	otg_disable_ep, %function
  24              	otg_disable_ep:
  25              	.LFB120:
  26              		.file 1 "../../os/hal/platforms/STM32/OTGv1/usb_lld.c"
  27              		.loc 1 147 0
  28              		.cfi_startproc
  29              		@ args = 0, pretend = 0, frame = 0
  30              		@ frame_needed = 0, uses_anonymous_args = 0
  31              		@ link register save eliminated.
  32              	.LVL0:
  33 0000 C16E     		ldr	r1, [r0, #108]
  34              		.loc 1 148 0
  35 0002 836E     		ldr	r3, [r0, #104]
  36              	.LVL1:
  37              		.loc 1 151 0
  38 0004 0022     		movs	r2, #0
  39              		.loc 1 147 0
  40 0006 2DE9F001 		push	{r4, r5, r6, r7, r8}
  41              	.LCFI0:
  42              		.cfi_def_cfa_offset 20
  43              		.cfi_offset 4, -20
  44              		.cfi_offset 5, -16
  45              		.cfi_offset 6, -12
  46              		.cfi_offset 7, -8
  47              		.cfi_offset 8, -4
  48              		.loc 1 162 0
  49 000a 1046     		mov	r0, r2
  50              	.LVL2:
  51 000c 8F68     		ldr	r7, [r1, #8]
  52              		.loc 1 156 0
  53 000e 4FF0804C 		mov	ip, #1073741824
  54              		.loc 1 164 0
  55 0012 4FF0FF36 		mov	r6, #-1
  56 0016 17E0     		b	.L8
  57              	.LVL3:
ARM GAS  C:\Users\Matuesz\AppData\Local\Temp\ccLA85Wr.s 			page 2


  58              	.L2:
  59              		.loc 1 162 0
  60 0018 5850     		str	r0, [r3, r1]
  61 001a 5501     		lsls	r5, r2, #5
  62              	.L4:
  63              		.loc 1 163 0
  64 001c 5C19     		adds	r4, r3, r5
  65              		.loc 1 170 0
  66 001e 02F15801 		add	r1, r2, #88
  67 0022 4901     		lsls	r1, r1, #5
  68              		.loc 1 163 0
  69 0024 C4F81009 		str	r0, [r4, #2320]
  70              		.loc 1 164 0
  71 0028 C4F80869 		str	r6, [r4, #2312]
  72              		.loc 1 170 0
  73 002c 53F80180 		ldr	r8, [r3, r1]
  74 0030 B8F1000F 		cmp	r8, #0
  75 0034 17DB     		blt	.L19
  76              		.loc 1 177 0
  77 0036 5850     		str	r0, [r3, r1]
  78              	.L7:
  79              		.loc 1 178 0
  80 0038 5D19     		adds	r5, r3, r5
  81              		.loc 1 151 0
  82 003a 0132     		adds	r2, r2, #1
  83              	.LVL4:
  84 003c BA42     		cmp	r2, r7
  85              		.loc 1 178 0
  86 003e C5F8100B 		str	r0, [r5, #2832]
  87              		.loc 1 179 0
  88 0042 C5F8086B 		str	r6, [r5, #2824]
  89              		.loc 1 151 0
  90 0046 15D8     		bhi	.L20
  91              	.LVL5:
  92              	.L8:
  93              		.loc 1 155 0
  94 0048 02F14804 		add	r4, r2, #72
  95 004c 6101     		lsls	r1, r4, #5
  96 004e 5D58     		ldr	r5, [r3, r1]
  97 0050 002D     		cmp	r5, #0
  98 0052 E1DA     		bge	.L2
  99 0054 5501     		lsls	r5, r2, #5
 100              		.loc 1 156 0
 101 0056 43F801C0 		str	ip, [r3, r1]
 102              		.loc 1 158 0
 103 005a 5C19     		adds	r4, r3, r5
 104              	.L3:
 105              		.loc 1 158 0 is_stmt 0 discriminator 1
 106 005c D4F80819 		ldr	r1, [r4, #2312]
 107 0060 8907     		lsls	r1, r1, #30
 108 0062 FBD5     		bpl	.L3
 109 0064 DAE7     		b	.L4
 110              	.L19:
 111              		.loc 1 171 0 is_stmt 1
 112 0066 43F801C0 		str	ip, [r3, r1]
 113              	.L6:
 114              		.loc 1 173 0 discriminator 1
ARM GAS  C:\Users\Matuesz\AppData\Local\Temp\ccLA85Wr.s 			page 3


 115 006a D4F8081B 		ldr	r1, [r4, #2824]
 116 006e C906     		lsls	r1, r1, #27
 117 0070 FBD5     		bpl	.L6
 118 0072 E1E7     		b	.L7
 119              	.LVL6:
 120              	.L20:
 121              		.loc 1 181 0
 122 0074 4FF00110 		mov	r0, #65537
 123 0078 C3F81C08 		str	r0, [r3, #2076]
 124              		.loc 1 182 0
 125 007c BDE8F001 		pop	{r4, r5, r6, r7, r8}
 126 0080 7047     		bx	lr
 127              		.cfi_endproc
 128              	.LFE120:
 129              		.size	otg_disable_ep, .-otg_disable_ep
 130 0082 00BFAFF3 		.section	.text.otg_epout_handler,"ax",%progbits
 130      0080AFF3 
 130      0080AFF3 
 130      0080
 131              		.align	2
 132              		.p2align 4,,15
 133              		.thumb
 134              		.thumb_func
 135              		.type	otg_epout_handler, %function
 136              	otg_epout_handler:
 137              	.LFB134:
 138              		.loc 1 598 0
 139              		.cfi_startproc
 140              		@ args = 0, pretend = 0, frame = 0
 141              		@ frame_needed = 0, uses_anonymous_args = 0
 142              	.LVL7:
 143 0000 F8B5     		push	{r3, r4, r5, r6, r7, lr}
 144              	.LCFI1:
 145              		.cfi_def_cfa_offset 24
 146              		.cfi_offset 3, -24
 147              		.cfi_offset 4, -20
 148              		.cfi_offset 5, -16
 149              		.cfi_offset 6, -12
 150              		.cfi_offset 7, -8
 151              		.cfi_offset 14, -4
 152              		.loc 1 599 0
 153 0002 856E     		ldr	r5, [r0, #104]
 154              	.LVL8:
 155              		.loc 1 600 0
 156 0004 05EB4113 		add	r3, r5, r1, lsl #5
 157              		.loc 1 598 0
 158 0008 0646     		mov	r6, r0
 159              		.loc 1 600 0
 160 000a D3F8084B 		ldr	r4, [r3, #2824]
 161              	.LVL9:
 162              		.loc 1 605 0
 163 000e 2207     		lsls	r2, r4, #28
 164              		.loc 1 598 0
 165 0010 0F46     		mov	r7, r1
 166              		.loc 1 603 0
 167 0012 C3F8084B 		str	r4, [r3, #2824]
 168              		.loc 1 605 0
ARM GAS  C:\Users\Matuesz\AppData\Local\Temp\ccLA85Wr.s 			page 4


 169 0016 03D5     		bpl	.L22
 170              		.loc 1 605 0 is_stmt 0 discriminator 1
 171 0018 D5F81428 		ldr	r2, [r5, #2068]
 172 001c 1307     		lsls	r3, r2, #28
 173 001e 15D4     		bmi	.L36
 174              	.LVL10:
 175              	.L22:
 176              		.loc 1 611 0 is_stmt 1
 177 0020 E207     		lsls	r2, r4, #31
 178 0022 03D5     		bpl	.L21
 179              		.loc 1 611 0 is_stmt 0 discriminator 1
 180 0024 D5F81408 		ldr	r0, [r5, #2068]
 181 0028 C307     		lsls	r3, r0, #31
 182 002a 00D4     		bmi	.L37
 183              	.L21:
 184 002c F8BD     		pop	{r3, r4, r5, r6, r7, pc}
 185              	.L37:
 186              		.loc 1 613 0 is_stmt 1
 187 002e 06EB8702 		add	r2, r6, r7, lsl #2
 188 0032 7189     		ldrh	r1, [r6, #10]
 189 0034 D368     		ldr	r3, [r2, #12]
 190 0036 0120     		movs	r0, #1
 191 0038 00FA07F0 		lsl	r0, r0, r7
 192 003c 21EA0002 		bic	r2, r1, r0
 193 0040 7281     		strh	r2, [r6, #10]	@ movhi
 194 0042 DB68     		ldr	r3, [r3, #12]
 195 0044 3046     		mov	r0, r6
 196 0046 3946     		mov	r1, r7
 197 0048 9847     		blx	r3
 198              	.LVL11:
 199 004a F8BD     		pop	{r3, r4, r5, r6, r7, pc}
 200              	.LVL12:
 201              	.L36:
 202              		.loc 1 608 0
 203 004c 00EB8103 		add	r3, r0, r1, lsl #2
 204 0050 DA68     		ldr	r2, [r3, #12]
 205 0052 5368     		ldr	r3, [r2, #4]
 206 0054 9847     		blx	r3
 207              	.LVL13:
 208 0056 E3E7     		b	.L22
 209              		.cfi_endproc
 210              	.LFE134:
 211              		.size	otg_epout_handler, .-otg_epout_handler
 212 0058 AFF30080 		.section	.text.otg_txfifo_flush,"ax",%progbits
 212      AFF30080 
 213              		.align	2
 214              		.p2align 4,,15
 215              		.thumb
 216              		.thumb_func
 217              		.type	otg_txfifo_flush, %function
 218              	otg_txfifo_flush:
 219              	.LFB122:
 220              		.loc 1 194 0
 221              		.cfi_startproc
 222              		@ args = 0, pretend = 0, frame = 0
 223              		@ frame_needed = 0, uses_anonymous_args = 0
 224              		@ link register save eliminated.
ARM GAS  C:\Users\Matuesz\AppData\Local\Temp\ccLA85Wr.s 			page 5


 225              	.LVL14:
 226              		.loc 1 195 0
 227 0000 826E     		ldr	r2, [r0, #104]
 228              	.LVL15:
 229              		.loc 1 197 0
 230 0002 8901     		lsls	r1, r1, #6
 231              	.LVL16:
 232 0004 41F02003 		orr	r3, r1, #32
 233 0008 1361     		str	r3, [r2, #16]
 234              	.LVL17:
 235              	.L39:
 236              		.loc 1 198 0 discriminator 1
 237 000a 1069     		ldr	r0, [r2, #16]
 238 000c 8306     		lsls	r3, r0, #26
 239 000e FCD4     		bmi	.L39
 240              		.loc 1 201 0
 241 0010 0C20     		movs	r0, #12
 242              		.loc 1 202 0
 243              		.loc 1 201 0
 244 0012 FFF7FEBF 		b	halPolledDelay
 245              	.LVL18:
 246              		.cfi_endproc
 247              	.LFE122:
 248              		.size	otg_txfifo_flush, .-otg_txfifo_flush
 249 0016 00BFAFF3 		.section	.text.usb_lld_pump,"ax",%progbits
 249      0080AFF3 
 249      0080
 250              		.align	2
 251              		.p2align 4,,15
 252              		.thumb
 253              		.thumb_func
 254              		.type	usb_lld_pump, %function
 255              	usb_lld_pump:
 256              	.LFB136:
 257              		.loc 1 697 0
 258              		.cfi_startproc
 259              		@ args = 0, pretend = 0, frame = 24
 260              		@ frame_needed = 0, uses_anonymous_args = 0
 261              	.LVL19:
 262 0000 2DE9F04F 		push	{r4, r5, r6, r7, r8, r9, sl, fp, lr}
 263              	.LCFI2:
 264              		.cfi_def_cfa_offset 36
 265              		.cfi_offset 4, -36
 266              		.cfi_offset 5, -32
 267              		.cfi_offset 6, -28
 268              		.cfi_offset 7, -24
 269              		.cfi_offset 8, -20
 270              		.cfi_offset 9, -16
 271              		.cfi_offset 10, -12
 272              		.cfi_offset 11, -8
 273              		.cfi_offset 14, -4
 274              		.loc 1 701 0
 275 0004 40F20001 		movw	r1, #:lower16:rlist
 276 0008 C0F20001 		movt	r1, #:upper16:rlist
 277              		.loc 1 699 0
 278 000c D0F868A0 		ldr	sl, [r0, #104]
 279              		.loc 1 701 0
ARM GAS  C:\Users\Matuesz\AppData\Local\Temp\ccLA85Wr.s 			page 6


 280 0010 8A69     		ldr	r2, [r1, #24]
 281              		.loc 1 697 0
 282 0012 8346     		mov	fp, r0
 283              	.LVL20:
 284              		.loc 1 701 0
 285 0014 9148     		ldr	r0, .L225
 286              	.LVL21:
 287              		.loc 1 697 0
 288 0016 87B0     		sub	sp, sp, #28
 289              	.LCFI3:
 290              		.cfi_def_cfa_offset 64
 291              	.LBB90:
 292              		.loc 1 702 0
 293 0018 2023     		movs	r3, #32
 294              	.LVL22:
 295              	.LBE90:
 296              		.loc 1 701 0
 297 001a 9061     		str	r0, [r2, #24]
 298              	.LBB91:
 299              		.loc 1 702 0
 300              	@ 702 "../../os/hal/platforms/STM32/OTGv1/usb_lld.c" 1
 301 001c 83F31188 		msr     BASEPRI, r3
 302              	@ 0 "" 2
 303              	.LVL23:
 304              		.thumb
 305              	.LBE91:
 306              	.LBB92:
 307              	.LBB93:
 308              		.loc 1 714 0
 309 0020 4FF00008 		mov	r8, #0
 310              	.LVL24:
 311              	.L104:
 312              	.LBE93:
 313              		.loc 1 708 0
 314 0024 9BF80030 		ldrb	r3, [fp, #0]	@ zero_extendqisi2
 315              	.LVL25:
 316 0028 012B     		cmp	r3, #1
 317 002a 06D0     		beq	.L42
 318              		.loc 1 708 0 is_stmt 0 discriminator 1
 319 002c DBF87440 		ldr	r4, [fp, #116]
 320 0030 9CB9     		cbnz	r4, .L43
 321              		.loc 1 709 0 is_stmt 1
 322 0032 DAF81450 		ldr	r5, [sl, #20]
 323 0036 EB06     		lsls	r3, r5, #27
 324 0038 0FD4     		bmi	.L43
 325              	.L42:
 326              		.loc 1 711 0
 327 003a 40F20007 		movw	r7, #:lower16:rlist
 328 003e C0F20007 		movt	r7, #:upper16:rlist
 329              		.loc 1 710 0
 330 0042 DAF81860 		ldr	r6, [sl, #24]
 331              		.loc 1 711 0
 332 0046 B969     		ldr	r1, [r7, #24]
 333              		.loc 1 710 0
 334 0048 46F01002 		orr	r2, r6, #16
 335 004c CAF81820 		str	r2, [sl, #24]
 336              		.loc 1 712 0
ARM GAS  C:\Users\Matuesz\AppData\Local\Temp\ccLA85Wr.s 			page 7


 337 0050 0220     		movs	r0, #2
 338              		.loc 1 711 0
 339 0052 CBF87C10 		str	r1, [fp, #124]
 340              		.loc 1 712 0
 341 0056 FFF7FEFF 		bl	chSchGoSleepS
 342              	.LVL26:
 343              	.L43:
 344              	.LBB94:
 345              		.loc 1 714 0
 346 005a 0023     		movs	r3, #0
 347              	.LVL27:
 348              	@ 714 "../../os/hal/platforms/STM32/OTGv1/usb_lld.c" 1
 349 005c 83F31188 		msr     BASEPRI, r3
 350              	@ 0 "" 2
 351              	.LVL28:
 352              		.loc 1 717 0
 353              		.thumb
 354 0060 1C46     		mov	r4, r3
 355              	.LVL29:
 356              	.L197:
 357              	.LBE94:
 358              		.loc 1 720 0 discriminator 1
 359 0062 DAF81400 		ldr	r0, [sl, #20]
 360 0066 10F01007 		ands	r7, r0, #16
 361 006a 3AD0     		beq	.L221
 362              	.L69:
 363              	.LVL30:
 364              	.LBB95:
 365              	.LBB96:
 366              		.loc 1 454 0
 367 006c DBF86800 		ldr	r0, [fp, #104]
 368 0070 016A     		ldr	r1, [r0, #32]
 369              	.LVL31:
 370              		.loc 1 455 0
 371 0072 01F4F015 		and	r5, r1, #1966080
 372 0076 B5F5802F 		cmp	r5, #262144
 373 007a 47D0     		beq	.L46
 374 007c B5F5402F 		cmp	r5, #786432
 375 0080 EFD1     		bne	.L197
 376              	.LVL32:
 377              		.loc 1 460 0
 378 0082 01F00F07 		and	r7, r1, #15
 379              	.LVL33:
 380              		.loc 1 461 0
 381 0086 0BEB8702 		add	r2, fp, r7, lsl #2
 382              		.loc 1 459 0
 383 008a C1F30A16 		ubfx	r6, r1, #4, #11
 384              		.loc 1 461 0
 385 008e D368     		ldr	r3, [r2, #12]
 386              	.LVL34:
 387              	.LBB97:
 388              	.LBB98:
 389              		.loc 1 372 0
 390 0090 F11C     		adds	r1, r6, #3
 391              	.LVL35:
 392              		.loc 1 374 0
 393 0092 8D08     		lsrs	r5, r1, #2
ARM GAS  C:\Users\Matuesz\AppData\Local\Temp\ccLA85Wr.s 			page 8


 394              	.LBE98:
 395              	.LBE97:
 396              		.loc 1 461 0
 397 0094 1F6A     		ldr	r7, [r3, #32]
 398              	.LVL36:
 399              	.LBB105:
 400              	.LBB104:
 401              		.loc 1 374 0
 402 0096 E4D0     		beq	.L197
 403 0098 00F58050 		add	r0, r0, #4096
 404              	.LVL37:
 405 009c 6A1E     		subs	r2, r5, #1
 406              	.LBB99:
 407              		.loc 1 375 0
 408 009e 0368     		ldr	r3, [r0, #0]
 409              	.LVL38:
 410              	.LBE99:
 411              		.loc 1 374 0
 412 00a0 1146     		mov	r1, r2
 413              	.LBB100:
 414              		.loc 1 379 0
 415 00a2 47F8043B 		str	r3, [r7], #4
 416              	.LVL39:
 417 00a6 02F00106 		and	r6, r2, #1
 418              		.loc 1 381 0
 419 00aa 0123     		movs	r3, #1
 420              	.LVL40:
 421              	.LBE100:
 422              		.loc 1 374 0
 423 00ac 002A     		cmp	r2, #0
 424 00ae D8D0     		beq	.L197
 425 00b0 2EB1     		cbz	r6, .L48
 426              	.LBB101:
 427              		.loc 1 375 0
 428 00b2 0568     		ldr	r5, [r0, #0]
 429              	.LVL41:
 430              		.loc 1 381 0
 431 00b4 0023     		movs	r3, #0
 432              	.LVL42:
 433              	.LBE101:
 434              		.loc 1 374 0
 435 00b6 511E     		subs	r1, r2, #1
 436              	.LVL43:
 437              	.LBB102:
 438              		.loc 1 379 0
 439 00b8 47F8045B 		str	r5, [r7], #4
 440              	.LVL44:
 441              	.LBE102:
 442              		.loc 1 374 0
 443 00bc D1D0     		beq	.L197
 444              	.L48:
 445              	.LBB103:
 446              		.loc 1 375 0
 447 00be 0268     		ldr	r2, [r0, #0]
 448              		.loc 1 376 0
 449 00c0 13B1     		cbz	r3, .L50
 450              		.loc 1 379 0
ARM GAS  C:\Users\Matuesz\AppData\Local\Temp\ccLA85Wr.s 			page 9


 451 00c2 47F8042B 		str	r2, [r7], #4
 452              	.LVL45:
 453              		.loc 1 381 0
 454 00c6 013B     		subs	r3, r3, #1
 455              	.LVL46:
 456              	.L50:
 457              		.loc 1 383 0
 458 00c8 0139     		subs	r1, r1, #1
 459              		.loc 1 375 0
 460 00ca 0668     		ldr	r6, [r0, #0]
 461              		.loc 1 376 0
 462 00cc 13B1     		cbz	r3, .L158
 463              		.loc 1 379 0
 464 00ce 47F8046B 		str	r6, [r7], #4
 465              	.LVL47:
 466              		.loc 1 381 0
 467 00d2 013B     		subs	r3, r3, #1
 468              	.LVL48:
 469              	.L158:
 470              	.LBE103:
 471              		.loc 1 374 0
 472 00d4 0139     		subs	r1, r1, #1
 473 00d6 F2D1     		bne	.L48
 474              	.LBE104:
 475              	.LBE105:
 476              	.LBE96:
 477              	.LBE95:
 478              		.loc 1 720 0
 479 00d8 DAF81400 		ldr	r0, [sl, #20]
 480              	.LVL49:
 481 00dc 10F01007 		ands	r7, r0, #16
 482              	.LVL50:
 483 00e0 C4D1     		bne	.L69
 484              	.LVL51:
 485              	.L221:
 486              		.loc 1 724 0
 487 00e2 0125     		movs	r5, #1
 488              		.loc 1 725 0
 489 00e4 DBF87430 		ldr	r3, [fp, #116]
 490              	.LVL52:
 491              		.loc 1 724 0
 492 00e8 A540     		lsls	r5, r5, r4
 493              		.loc 1 725 0
 494 00ea 1D42     		tst	r5, r3
 495              		.loc 1 724 0
 496 00ec 0495     		str	r5, [sp, #16]
 497              	.LVL53:
 498              		.loc 1 725 0
 499 00ee 40F0B780 		bne	.L202
 500 00f2 0134     		adds	r4, r4, #1
 501 00f4 0594     		str	r4, [sp, #20]
 502              	.LVL54:
 503              	.L70:
 504              		.loc 1 717 0
 505 00f6 DBF86C20 		ldr	r2, [fp, #108]
 506 00fa 059B     		ldr	r3, [sp, #20]
 507              	.LVL55:
ARM GAS  C:\Users\Matuesz\AppData\Local\Temp\ccLA85Wr.s 			page 10


 508 00fc 9068     		ldr	r0, [r2, #8]
 509 00fe DCB2     		uxtb	r4, r3
 510              	.LVL56:
 511 0100 8442     		cmp	r4, r0
 512 0102 AED9     		bls	.L197
 513              	.LBB122:
 514              		.loc 1 749 0
 515 0104 2023     		movs	r3, #32
 516              	.LVL57:
 517              	@ 749 "../../os/hal/platforms/STM32/OTGv1/usb_lld.c" 1
 518 0106 83F31188 		msr     BASEPRI, r3
 519              	@ 0 "" 2
 520              	.LVL58:
 521              		.thumb
 522              	.LBE122:
 523              	.LBE92:
 524              		.loc 1 750 0
 525 010a 8BE7     		b	.L104
 526              	.LVL59:
 527              	.L46:
 528              	.LBB159:
 529              	.LBB123:
 530              	.LBB121:
 531              		.loc 1 466 0
 532 010c 01F00F07 		and	r7, r1, #15
 533              		.loc 1 467 0
 534 0110 0237     		adds	r7, r7, #2
 535 0112 0BEB8705 		add	r5, fp, r7, lsl #2
 536              		.loc 1 465 0
 537 0116 C1F30A16 		ubfx	r6, r1, #4, #11
 538              	.LVL60:
 539              		.loc 1 467 0
 540 011a 6A68     		ldr	r2, [r5, #4]
 541 011c 9169     		ldr	r1, [r2, #24]
 542              	.LVL61:
 543 011e 0B78     		ldrb	r3, [r1, #0]	@ zero_extendqisi2
 544              	.LVL62:
 545 0120 002B     		cmp	r3, #0
 546 0122 3BD1     		bne	.L222
 547              		.loc 1 474 0
 548 0124 0D1D     		adds	r5, r1, #4
 549 0126 2CCD     		ldmia	r5, {r2, r3, r5}
 550              	.LVL63:
 551 0128 0332     		adds	r2, r2, #3
 552              	.LVL64:
 553              	.LBB106:
 554              	.LBB107:
 555              		.loc 1 373 0
 556 012a D31A     		subs	r3, r2, r3
 557              		.loc 1 372 0
 558 012c F21C     		adds	r2, r6, #3
 559              	.LVL65:
 560              		.loc 1 373 0
 561 012e 9B08     		lsrs	r3, r3, #2
 562              	.LVL66:
 563              		.loc 1 374 0
 564 0130 9208     		lsrs	r2, r2, #2
ARM GAS  C:\Users\Matuesz\AppData\Local\Temp\ccLA85Wr.s 			page 11


 565              	.LVL67:
 566 0132 29D0     		beq	.L68
 567 0134 00F58050 		add	r0, r0, #4096
 568              	.LVL68:
 569 0138 02F1FF39 		add	r9, r2, #-1
 570 013c 09F0010C 		and	ip, r9, #1
 571 0140 AE46     		mov	lr, r5
 572              	.LBB108:
 573              		.loc 1 375 0
 574 0142 D0F80090 		ldr	r9, [r0, #0]
 575              	.LVL69:
 576              		.loc 1 376 0
 577 0146 1BB1     		cbz	r3, .L146
 578              		.loc 1 379 0
 579 0148 AE46     		mov	lr, r5
 580              		.loc 1 381 0
 581 014a 013B     		subs	r3, r3, #1
 582              	.LVL70:
 583              		.loc 1 379 0
 584 014c 4EF8049B 		str	r9, [lr], #4
 585              	.LVL71:
 586              	.L146:
 587              	.LBE108:
 588              		.loc 1 374 0
 589 0150 013A     		subs	r2, r2, #1
 590              	.LVL72:
 591 0152 19D0     		beq	.L68
 592 0154 BCF1000F 		cmp	ip, #0
 593 0158 07D0     		beq	.L214
 594              	.LBB109:
 595              		.loc 1 375 0
 596 015a D0F800C0 		ldr	ip, [r0, #0]
 597              	.LVL73:
 598              		.loc 1 376 0
 599 015e 13B1     		cbz	r3, .L148
 600              		.loc 1 379 0
 601 0160 4EF804CB 		str	ip, [lr], #4
 602              	.LVL74:
 603              		.loc 1 381 0
 604 0164 013B     		subs	r3, r3, #1
 605              	.LVL75:
 606              	.L148:
 607              	.LBE109:
 608              		.loc 1 374 0
 609 0166 013A     		subs	r2, r2, #1
 610 0168 0ED0     		beq	.L68
 611              	.L214:
 612 016a 8946     		mov	r9, r1
 613              	.L67:
 614              	.LBB110:
 615              		.loc 1 375 0
 616 016c 0168     		ldr	r1, [r0, #0]
 617              		.loc 1 376 0
 618 016e 13B1     		cbz	r3, .L66
 619              		.loc 1 379 0
 620 0170 4EF8041B 		str	r1, [lr], #4
 621              	.LVL76:
ARM GAS  C:\Users\Matuesz\AppData\Local\Temp\ccLA85Wr.s 			page 12


 622              		.loc 1 381 0
 623 0174 013B     		subs	r3, r3, #1
 624              	.LVL77:
 625              	.L66:
 626              		.loc 1 383 0
 627 0176 013A     		subs	r2, r2, #1
 628              		.loc 1 375 0
 629 0178 0168     		ldr	r1, [r0, #0]
 630              		.loc 1 376 0
 631 017a 13B1     		cbz	r3, .L151
 632              		.loc 1 379 0
 633 017c 4EF8041B 		str	r1, [lr], #4
 634              	.LVL78:
 635              		.loc 1 381 0
 636 0180 013B     		subs	r3, r3, #1
 637              	.LVL79:
 638              	.L151:
 639              	.LBE110:
 640              		.loc 1 374 0
 641 0182 013A     		subs	r2, r2, #1
 642 0184 F2D1     		bne	.L67
 643 0186 4946     		mov	r1, r9
 644              	.LVL80:
 645              	.L68:
 646              	.LBE107:
 647              	.LBE106:
 648              		.loc 1 479 0
 649 0188 AD19     		adds	r5, r5, r6
 650 018a CD60     		str	r5, [r1, #12]
 651              	.LVL81:
 652              	.L62:
 653              		.loc 1 481 0
 654 018c 0BEB8707 		add	r7, fp, r7, lsl #2
 655              	.LVL82:
 656 0190 7868     		ldr	r0, [r7, #4]
 657 0192 8569     		ldr	r5, [r0, #24]
 658 0194 A968     		ldr	r1, [r5, #8]
 659 0196 8E19     		adds	r6, r1, r6
 660              	.LVL83:
 661 0198 AE60     		str	r6, [r5, #8]
 662 019a 62E7     		b	.L197
 663              	.LVL84:
 664              	.L222:
 665              		.loc 1 469 0
 666 019c 00F58050 		add	r0, r0, #4096
 667 01a0 CD68     		ldr	r5, [r1, #12]
 668              	.LVL85:
 669              	.LBB111:
 670              	.LBB112:
 671              		.loc 1 402 0
 672 01a2 002E     		cmp	r6, #0
 673 01a4 40D0     		beq	.L53
 674 01a6 3346     		mov	r3, r6
 675 01a8 A446     		mov	ip, r4
 676              	.LVL86:
 677              	.L196:
 678              	.LBB113:
ARM GAS  C:\Users\Matuesz\AppData\Local\Temp\ccLA85Wr.s 			page 13


 679              		.loc 1 406 0
 680 01aa 032B     		cmp	r3, #3
 681              	.LBB114:
 682              		.loc 1 412 0
 683 01ac 6969     		ldr	r1, [r5, #20]
 684              	.LBE114:
 685              		.loc 1 406 0
 686 01ae 07D9     		bls	.L55
 687              	.LVL87:
 688              	.L199:
 689              	.LBB115:
 690              		.loc 1 412 0
 691 01b0 2C69     		ldr	r4, [r5, #16]
 692 01b2 A142     		cmp	r1, r4
 693 01b4 04D3     		bcc	.L55
 694              		.loc 1 413 0
 695 01b6 EC68     		ldr	r4, [r5, #12]
 696              	.LBE115:
 697              		.loc 1 406 0
 698 01b8 032B     		cmp	r3, #3
 699              	.LBB116:
 700              		.loc 1 413 0
 701 01ba 6C61     		str	r4, [r5, #20]
 702              	.LVL88:
 703              		.loc 1 412 0
 704 01bc 6969     		ldr	r1, [r5, #20]
 705              	.LBE116:
 706              		.loc 1 406 0
 707 01be F7D8     		bhi	.L199
 708              	.LVL89:
 709              	.L55:
 710              		.loc 1 424 0
 711 01c0 0268     		ldr	r2, [r0, #0]
 712              	.LVL90:
 713              		.loc 1 427 0
 714 01c2 01F8012B 		strb	r2, [r1], #1
 715              		.loc 1 428 0
 716 01c6 2C69     		ldr	r4, [r5, #16]
 717              		.loc 1 427 0
 718 01c8 6961     		str	r1, [r5, #20]
 719              		.loc 1 428 0
 720 01ca A142     		cmp	r1, r4
 721              		.loc 1 429 0
 722 01cc 24BF     		itt	cs
 723 01ce E968     		ldrcs	r1, [r5, #12]
 724 01d0 6961     		strcs	r1, [r5, #20]
 725              		.loc 1 426 0
 726 01d2 012B     		cmp	r3, #1
 727 01d4 27D0     		beq	.L208
 728              	.LVL91:
 729              		.loc 1 427 0
 730 01d6 D5F814E0 		ldr	lr, [r5, #20]
 731 01da 110A     		lsrs	r1, r2, #8
 732 01dc 0EF8011B 		strb	r1, [lr], #1
 733              		.loc 1 428 0
 734 01e0 2C69     		ldr	r4, [r5, #16]
 735              		.loc 1 427 0
ARM GAS  C:\Users\Matuesz\AppData\Local\Temp\ccLA85Wr.s 			page 14


 736 01e2 C5F814E0 		str	lr, [r5, #20]
 737              		.loc 1 428 0
 738 01e6 A645     		cmp	lr, r4
 739              		.loc 1 429 0
 740 01e8 24BF     		itt	cs
 741 01ea EC68     		ldrcs	r4, [r5, #12]
 742 01ec 6C61     		strcs	r4, [r5, #20]
 743              		.loc 1 426 0
 744 01ee 022B     		cmp	r3, #2
 745 01f0 19D0     		beq	.L208
 746              	.LVL92:
 747              		.loc 1 427 0
 748 01f2 D5F81490 		ldr	r9, [r5, #20]
 749 01f6 110C     		lsrs	r1, r2, #16
 750 01f8 09F8011B 		strb	r1, [r9], #1
 751              		.loc 1 428 0
 752 01fc 2C69     		ldr	r4, [r5, #16]
 753              		.loc 1 427 0
 754 01fe C5F81490 		str	r9, [r5, #20]
 755              		.loc 1 428 0
 756 0202 A145     		cmp	r9, r4
 757              		.loc 1 429 0
 758 0204 24BF     		itt	cs
 759 0206 EC68     		ldrcs	r4, [r5, #12]
 760 0208 6C61     		strcs	r4, [r5, #20]
 761              		.loc 1 426 0
 762 020a 032B     		cmp	r3, #3
 763 020c 0BD0     		beq	.L208
 764              	.LVL93:
 765              		.loc 1 427 0
 766 020e 6969     		ldr	r1, [r5, #20]
 767 0210 120E     		lsrs	r2, r2, #24
 768              	.LVL94:
 769 0212 01F8012B 		strb	r2, [r1], #1
 770              		.loc 1 428 0
 771 0216 2C69     		ldr	r4, [r5, #16]
 772              		.loc 1 427 0
 773 0218 6961     		str	r1, [r5, #20]
 774              		.loc 1 428 0
 775 021a A142     		cmp	r1, r4
 776              		.loc 1 429 0
 777 021c 24BF     		itt	cs
 778 021e EC68     		ldrcs	r4, [r5, #12]
 779 0220 6C61     		strcs	r4, [r5, #20]
 780              		.loc 1 426 0
 781 0222 043B     		subs	r3, r3, #4
 782              	.LVL95:
 783 0224 C1D1     		bne	.L196
 784              	.LVL96:
 785              	.L208:
 786 0226 6446     		mov	r4, ip
 787              	.L53:
 788              	.LBE113:
 789              	.LBB117:
 790              		.loc 1 436 0
 791 0228 2023     		movs	r3, #32
 792              	.LVL97:
ARM GAS  C:\Users\Matuesz\AppData\Local\Temp\ccLA85Wr.s 			page 15


 793              	@ 436 "../../os/hal/platforms/STM32/OTGv1/usb_lld.c" 1
 794 022a 83F31188 		msr     BASEPRI, r3
 795              	@ 0 "" 2
 796              	.LVL98:
 797              		.thumb
 798              	.LBE117:
 799              		.loc 1 437 0
 800 022e A968     		ldr	r1, [r5, #8]
 801              		.loc 1 438 0
 802 0230 2868     		ldr	r0, [r5, #0]
 803              	.LVL99:
 804              		.loc 1 437 0
 805 0232 8A19     		adds	r2, r1, r6
 806              		.loc 1 438 0
 807 0234 A842     		cmp	r0, r5
 808              		.loc 1 437 0
 809 0236 AA60     		str	r2, [r5, #8]
 810              		.loc 1 438 0
 811 0238 09D0     		beq	.L64
 812              	.LVL100:
 813              	.L137:
 814              	.LBB118:
 815              	.LBB119:
 816              		.file 2 "../../os/kernel/include/chinline.h"
 817              		.loc 2 62 0
 818 023a 0368     		ldr	r3, [r0, #0]
 819              	.LVL101:
 820 023c 2B60     		str	r3, [r5, #0]
 821 023e 5D60     		str	r5, [r3, #4]
 822              	.LBE119:
 823              	.LBE118:
 824              		.loc 1 439 0
 825 0240 FFF7FEFF 		bl	chSchReadyI
 826              	.LVL102:
 827 0244 C0F82480 		str	r8, [r0, #36]
 828              		.loc 1 438 0
 829 0248 2868     		ldr	r0, [r5, #0]
 830 024a A842     		cmp	r0, r5
 831 024c F5D1     		bne	.L137
 832              	.LVL103:
 833              	.L64:
 834              		.loc 1 440 0
 835 024e FFF7FEFF 		bl	chSchRescheduleS
 836              	.LVL104:
 837              	.LBB120:
 838              		.loc 1 441 0
 839 0252 0023     		movs	r3, #0
 840              	@ 441 "../../os/hal/platforms/STM32/OTGv1/usb_lld.c" 1
 841 0254 83F31188 		msr     BASEPRI, r3
 842              	@ 0 "" 2
 843              	.LVL105:
 844              		.thumb
 845 0258 98E7     		b	.L62
 846              	.L226:
 847 025a 00BF     		.align	2
 848              	.L225:
 849 025c 00000000 		.word	.LC0
ARM GAS  C:\Users\Matuesz\AppData\Local\Temp\ccLA85Wr.s 			page 16


 850              	.LVL106:
 851              	.L202:
 852              	.LBE120:
 853              	.LBE112:
 854              	.LBE111:
 855              	.LBE121:
 856              	.LBE123:
 857              	.LBB124:
 858              	.LBB125:
 859              		.loc 1 728 0
 860 0260 2023     		movs	r3, #32
 861              	.LVL107:
 862              	@ 728 "../../os/hal/platforms/STM32/OTGv1/usb_lld.c" 1
 863 0262 83F31188 		msr     BASEPRI, r3
 864              	@ 0 "" 2
 865              	.LVL108:
 866              		.thumb
 867              	.LBE125:
 868              		.loc 1 736 0
 869 0266 DAF80860 		ldr	r6, [sl, #8]
 870              		.loc 1 737 0
 871 026a DBF87410 		ldr	r1, [fp, #116]
 872 026e 0498     		ldr	r0, [sp, #16]
 873              		.loc 1 736 0
 874 0270 26F00102 		bic	r2, r6, #1
 875              		.loc 1 737 0
 876 0274 21EA0005 		bic	r5, r1, r0
 877              	.LVL109:
 878              		.loc 1 736 0
 879 0278 CAF80820 		str	r2, [sl, #8]
 880              	.LBB126:
 881              		.loc 1 738 0
 882 027c 3B46     		mov	r3, r7
 883              	.LVL110:
 884              	.LBE126:
 885              		.loc 1 737 0
 886 027e CBF87450 		str	r5, [fp, #116]
 887              	.LBB127:
 888              		.loc 1 738 0
 889              	@ 738 "../../os/hal/platforms/STM32/OTGv1/usb_lld.c" 1
 890 0282 83F31188 		msr     BASEPRI, r3
 891              	@ 0 "" 2
 892              	.LVL111:
 893              		.thumb
 894              	.LBE127:
 895              	.LBB128:
 896              	.LBB129:
 897              		.loc 1 505 0
 898 0286 A71C     		adds	r7, r4, #2
 899 0288 0BEB8703 		add	r3, fp, r7, lsl #2
 900              	.LVL112:
 901 028c 5D68     		ldr	r5, [r3, #4]
 902 028e 6869     		ldr	r0, [r5, #20]
 903 0290 8268     		ldr	r2, [r0, #8]
 904 0292 4668     		ldr	r6, [r0, #4]
 905 0294 9642     		cmp	r6, r2
 906 0296 40F2FA80 		bls	.L223
ARM GAS  C:\Users\Matuesz\AppData\Local\Temp\ccLA85Wr.s 			page 17


 907              		.loc 1 515 0
 908 029a DBF86810 		ldr	r1, [fp, #104]
 909              		.loc 1 510 0
 910 029e 2D8A     		ldrh	r5, [r5, #16]
 911              		.loc 1 515 0
 912 02a0 6701     		lsls	r7, r4, #5
 913 02a2 0297     		str	r7, [sp, #8]
 914 02a4 CF19     		adds	r7, r1, r7
 915              		.loc 1 509 0
 916 02a6 B61A     		subs	r6, r6, r2
 917              	.LVL113:
 918              		.loc 1 515 0
 919 02a8 D7F81829 		ldr	r2, [r7, #2328]
 920 02ac B542     		cmp	r5, r6
 921 02ae 28BF     		it	cs
 922 02b0 3546     		movcs	r5, r6
 923              	.LVL114:
 924 02b2 97B2     		uxth	r7, r2
 925 02b4 0134     		adds	r4, r4, #1
 926              	.LVL115:
 927 02b6 B5EB870F 		cmp	r5, r7, lsl #2
 928 02ba 0594     		str	r4, [sp, #20]
 929 02bc 47D8     		bhi	.L74
 930              		.loc 1 530 0
 931 02be 2603     		lsls	r6, r4, #12
 932 02c0 0196     		str	r6, [sp, #4]
 933              		.loc 1 535 0
 934 02c2 0393     		str	r3, [sp, #12]
 935              	.LVL116:
 936              	.L75:
 937              		.loc 1 522 0
 938 02c4 0378     		ldrb	r3, [r0, #0]	@ zero_extendqisi2
 939 02c6 002B     		cmp	r3, #0
 940 02c8 57D1     		bne	.L224
 941              		.loc 1 530 0
 942 02ca 019F     		ldr	r7, [sp, #4]
 943              	.LBB130:
 944              	.LBB131:
 945              		.loc 1 271 0
 946 02cc EA1C     		adds	r2, r5, #3
 947              	.LBB132:
 948              	.LBB133:
 949              		.loc 1 248 0
 950 02ce 5FEA920E 		lsrs	lr, r2, #2
 951              	.LBE133:
 952              	.LBE132:
 953              	.LBE131:
 954              	.LBE130:
 955              		.loc 1 530 0
 956 02d2 01EB0704 		add	r4, r1, r7
 957 02d6 C768     		ldr	r7, [r0, #12]
 958              	.LVL117:
 959              	.LBB140:
 960              	.LBB138:
 961              	.LBB136:
 962              	.LBB134:
 963              		.loc 1 248 0
ARM GAS  C:\Users\Matuesz\AppData\Local\Temp\ccLA85Wr.s 			page 18


 964 02d8 1ED0     		beq	.L98
 965              	.LBE134:
 966              	.LBE136:
 967              	.LBE138:
 968              	.LBE140:
 969              		.loc 1 697 0
 970 02da 3A46     		mov	r2, r7
 971 02dc 0EF1FF36 		add	r6, lr, #-1
 972              	.LBB141:
 973              	.LBB139:
 974              	.LBB137:
 975              	.LBB135:
 976              		.loc 1 251 0
 977 02e0 52F804CB 		ldr	ip, [r2], #4
 978              		.loc 1 248 0
 979 02e4 3346     		mov	r3, r6
 980 02e6 06F00109 		and	r9, r6, #1
 981              		.loc 1 251 0
 982 02ea 019E     		ldr	r6, [sp, #4]
 983 02ec 0432     		adds	r2, r2, #4
 984 02ee 41F806C0 		str	ip, [r1, r6]
 985              	.LVL118:
 986              		.loc 1 248 0
 987 02f2 8BB1     		cbz	r3, .L98
 988 02f4 B9F1000F 		cmp	r9, #0
 989 02f8 05D0     		beq	.L97
 990              		.loc 1 251 0
 991 02fa 52F8041C 		ldr	r1, [r2, #-4]
 992 02fe 0432     		adds	r2, r2, #4
 993              		.loc 1 248 0
 994 0300 013B     		subs	r3, r3, #1
 995              		.loc 1 251 0
 996 0302 2160     		str	r1, [r4, #0]
 997              	.LVL119:
 998              		.loc 1 248 0
 999 0304 08D0     		beq	.L98
 1000              	.L97:
 1001              		.loc 1 251 0
 1002 0306 52F8046C 		ldr	r6, [r2, #-4]
 1003 030a 2660     		str	r6, [r4, #0]
 1004 030c 52F8041B 		ldr	r1, [r2], #4
 1005 0310 0432     		adds	r2, r2, #4
 1006              		.loc 1 248 0
 1007 0312 023B     		subs	r3, r3, #2
 1008              		.loc 1 251 0
 1009 0314 2160     		str	r1, [r4, #0]
 1010              		.loc 1 248 0
 1011 0316 F6D1     		bne	.L97
 1012              	.L98:
 1013              	.LBE135:
 1014              	.LBE137:
 1015              	.LBE139:
 1016              	.LBE141:
 1017              		.loc 1 533 0
 1018 0318 7C19     		adds	r4, r7, r5
 1019              	.LVL120:
 1020 031a C460     		str	r4, [r0, #12]
ARM GAS  C:\Users\Matuesz\AppData\Local\Temp\ccLA85Wr.s 			page 19


 1021              	.LVL121:
 1022              	.L94:
 1023              		.loc 1 535 0
 1024 031c 0398     		ldr	r0, [sp, #12]
 1025 031e 4468     		ldr	r4, [r0, #4]
 1026 0320 6069     		ldr	r0, [r4, #20]
 1027 0322 8668     		ldr	r6, [r0, #8]
 1028              		.loc 1 505 0
 1029 0324 4268     		ldr	r2, [r0, #4]
 1030              		.loc 1 535 0
 1031 0326 AB19     		adds	r3, r5, r6
 1032              	.LVL122:
 1033              		.loc 1 505 0
 1034 0328 9A42     		cmp	r2, r3
 1035              		.loc 1 535 0
 1036 032a 8360     		str	r3, [r0, #8]
 1037              		.loc 1 505 0
 1038 032c 40F2B180 		bls	.L99
 1039              		.loc 1 515 0
 1040 0330 029D     		ldr	r5, [sp, #8]
 1041              	.LVL123:
 1042 0332 DBF86810 		ldr	r1, [fp, #104]
 1043              		.loc 1 510 0
 1044 0336 248A     		ldrh	r4, [r4, #16]
 1045              		.loc 1 515 0
 1046 0338 4F19     		adds	r7, r1, r5
 1047              		.loc 1 509 0
 1048 033a D51A     		subs	r5, r2, r3
 1049              	.LVL124:
 1050              		.loc 1 515 0
 1051 033c D7F81869 		ldr	r6, [r7, #2328]
 1052 0340 A542     		cmp	r5, r4
 1053 0342 28BF     		it	cs
 1054 0344 2546     		movcs	r5, r4
 1055              	.LVL125:
 1056 0346 B2B2     		uxth	r2, r6
 1057 0348 B5EB820F 		cmp	r5, r2, lsl #2
 1058 034c BAD9     		bls	.L75
 1059              	.L74:
 1060              	.LBB142:
 1061              	.LBB143:
 1062              		.loc 1 516 0
 1063 034e 0020     		movs	r0, #0
 1064              	.LVL126:
 1065              	.L72:
 1066              	.LBE143:
 1067              	.LBE142:
 1068              	.LBE129:
 1069              	.LBE128:
 1070              	.LBB156:
 1071              		.loc 1 742 0
 1072 0350 2023     		movs	r3, #32
 1073              	.LVL127:
 1074              	@ 742 "../../os/hal/platforms/STM32/OTGv1/usb_lld.c" 1
 1075 0352 83F31188 		msr     BASEPRI, r3
 1076              	@ 0 "" 2
 1077              	.LVL128:
ARM GAS  C:\Users\Matuesz\AppData\Local\Temp\ccLA85Wr.s 			page 20


 1078              		.thumb
 1079              	.LBE156:
 1080              		.loc 1 743 0
 1081 0356 DAF80810 		ldr	r1, [sl, #8]
 1082 035a 41F00104 		orr	r4, r1, #1
 1083 035e CAF80840 		str	r4, [sl, #8]
 1084              		.loc 1 744 0
 1085 0362 30B9     		cbnz	r0, .L101
 1086              		.loc 1 745 0
 1087 0364 DAF83458 		ldr	r5, [sl, #2100]
 1088 0368 049F     		ldr	r7, [sp, #16]
 1089 036a 47EA0506 		orr	r6, r7, r5
 1090 036e CAF83468 		str	r6, [sl, #2100]
 1091              	.L101:
 1092              	.LBB157:
 1093              		.loc 1 746 0
 1094 0372 0023     		movs	r3, #0
 1095              	.LVL129:
 1096              	@ 746 "../../os/hal/platforms/STM32/OTGv1/usb_lld.c" 1
 1097 0374 83F31188 		msr     BASEPRI, r3
 1098              	@ 0 "" 2
 1099              	.LVL130:
 1100              		.thumb
 1101 0378 BDE6     		b	.L70
 1102              	.LVL131:
 1103              	.L224:
 1104              	.LBE157:
 1105              	.LBB158:
 1106              	.LBB155:
 1107              		.loc 1 524 0
 1108 037a 019A     		ldr	r2, [sp, #4]
 1109 037c C468     		ldr	r4, [r0, #12]
 1110 037e 8918     		adds	r1, r1, r2
 1111              	.LVL132:
 1112              	.LBB154:
 1113              	.LBB153:
 1114              		.loc 1 289 0
 1115 0380 002D     		cmp	r5, #0
 1116 0382 35D0     		beq	.L86
 1117 0384 2069     		ldr	r0, [r4, #16]
 1118 0386 2A46     		mov	r2, r5
 1119 0388 AE46     		mov	lr, r5
 1120              	.LVL133:
 1121              	.L93:
 1122              	.LBB144:
 1123              		.loc 1 293 0
 1124 038a 9708     		lsrs	r7, r2, #2
 1125              	.LVL134:
 1126 038c 4BD0     		beq	.L80
 1127              	.LBB145:
 1128              		.loc 1 295 0
 1129 038e A569     		ldr	r5, [r4, #24]
 1130              	.LVL135:
 1131 0390 431B     		subs	r3, r0, r5
 1132 0392 48BF     		it	mi
 1133 0394 0333     		addmi	r3, r3, #3
 1134 0396 9B10     		asrs	r3, r3, #2
ARM GAS  C:\Users\Matuesz\AppData\Local\Temp\ccLA85Wr.s 			page 21


 1135              		.loc 1 297 0
 1136 0398 9F42     		cmp	r7, r3
 1137 039a 38BF     		it	cc
 1138 039c 3B46     		movcc	r3, r7
 1139              	.LVL136:
 1140 039e 4FEA830C 		lsl	ip, r3, #2
 1141 03a2 CCEB0202 		rsb	r2, ip, r2
 1142              	.LVL137:
 1143              	.LBB146:
 1144              	.LBB147:
 1145              		.loc 1 248 0
 1146 03a6 DBB1     		cbz	r3, .L82
 1147              		.loc 1 697 0
 1148 03a8 2E46     		mov	r6, r5
 1149 03aa 5F1E     		subs	r7, r3, #1
 1150              	.LVL138:
 1151              		.loc 1 251 0
 1152 03ac 56F8049B 		ldr	r9, [r6], #4
 1153              		.loc 1 248 0
 1154 03b0 3B46     		mov	r3, r7
 1155              	.LVL139:
 1156              		.loc 1 251 0
 1157 03b2 C1F80090 		str	r9, [r1, #0]
 1158              	.LVL140:
 1159 03b6 07F00107 		and	r7, r7, #1
 1160 03ba 0436     		adds	r6, r6, #4
 1161              		.loc 1 248 0
 1162 03bc 7BB1     		cbz	r3, .L204
 1163 03be 2FB1     		cbz	r7, .L83
 1164              		.loc 1 251 0
 1165 03c0 56F8047C 		ldr	r7, [r6, #-4]
 1166 03c4 0436     		adds	r6, r6, #4
 1167              		.loc 1 248 0
 1168 03c6 013B     		subs	r3, r3, #1
 1169              	.LVL141:
 1170              		.loc 1 251 0
 1171 03c8 0F60     		str	r7, [r1, #0]
 1172              	.LVL142:
 1173              		.loc 1 248 0
 1174 03ca 08D0     		beq	.L204
 1175              	.LVL143:
 1176              	.L83:
 1177              		.loc 1 251 0
 1178 03cc 56F8047C 		ldr	r7, [r6, #-4]
 1179 03d0 0F60     		str	r7, [r1, #0]
 1180 03d2 56F8047B 		ldr	r7, [r6], #4
 1181 03d6 0436     		adds	r6, r6, #4
 1182              		.loc 1 248 0
 1183 03d8 023B     		subs	r3, r3, #2
 1184              		.loc 1 251 0
 1185 03da 0F60     		str	r7, [r1, #0]
 1186              		.loc 1 248 0
 1187 03dc F6D1     		bne	.L83
 1188              	.L204:
 1189 03de 6544     		add	r5, r5, ip
 1190              	.LVL144:
 1191              	.L82:
ARM GAS  C:\Users\Matuesz\AppData\Local\Temp\ccLA85Wr.s 			page 22


 1192              	.LBE147:
 1193              	.LBE146:
 1194              		.loc 1 299 0
 1195 03e0 A842     		cmp	r0, r5
 1196              		.loc 1 298 0
 1197 03e2 A561     		str	r5, [r4, #24]
 1198              		.loc 1 299 0
 1199 03e4 1DD8     		bhi	.L84
 1200              		.loc 1 300 0
 1201 03e6 E668     		ldr	r6, [r4, #12]
 1202 03e8 A661     		str	r6, [r4, #24]
 1203              	.LBE145:
 1204              	.LBE144:
 1205              		.loc 1 289 0
 1206 03ea 002A     		cmp	r2, #0
 1207 03ec CDD1     		bne	.L93
 1208              	.LVL145:
 1209              	.L212:
 1210 03ee 7546     		mov	r5, lr
 1211              	.LVL146:
 1212              	.L86:
 1213              	.LBB148:
 1214              		.loc 1 324 0
 1215 03f0 2023     		movs	r3, #32
 1216              	.LVL147:
 1217              	@ 324 "../../os/hal/platforms/STM32/OTGv1/usb_lld.c" 1
 1218 03f2 83F31188 		msr     BASEPRI, r3
 1219              	@ 0 "" 2
 1220              	.LVL148:
 1221              		.thumb
 1222              	.LBE148:
 1223              		.loc 1 325 0
 1224 03f6 A168     		ldr	r1, [r4, #8]
 1225              	.LVL149:
 1226              		.loc 1 326 0
 1227 03f8 2068     		ldr	r0, [r4, #0]
 1228              		.loc 1 325 0
 1229 03fa 4F19     		adds	r7, r1, r5
 1230              		.loc 1 326 0
 1231 03fc A042     		cmp	r0, r4
 1232              		.loc 1 325 0
 1233 03fe A760     		str	r7, [r4, #8]
 1234              		.loc 1 326 0
 1235 0400 09D0     		beq	.L79
 1236              	.L138:
 1237              	.LVL150:
 1238              	.LBB149:
 1239              	.LBB150:
 1240              		.loc 2 62 0
 1241 0402 0368     		ldr	r3, [r0, #0]
 1242              	.LVL151:
 1243 0404 2360     		str	r3, [r4, #0]
 1244 0406 5C60     		str	r4, [r3, #4]
 1245              	.LBE150:
 1246              	.LBE149:
 1247              		.loc 1 327 0
 1248 0408 FFF7FEFF 		bl	chSchReadyI
ARM GAS  C:\Users\Matuesz\AppData\Local\Temp\ccLA85Wr.s 			page 23


 1249              	.LVL152:
 1250 040c C0F82480 		str	r8, [r0, #36]
 1251              		.loc 1 326 0
 1252 0410 2068     		ldr	r0, [r4, #0]
 1253 0412 A042     		cmp	r0, r4
 1254 0414 F5D1     		bne	.L138
 1255              	.LVL153:
 1256              	.L79:
 1257              		.loc 1 328 0
 1258 0416 FFF7FEFF 		bl	chSchRescheduleS
 1259              	.LVL154:
 1260              	.LBB151:
 1261              		.loc 1 329 0
 1262 041a 0023     		movs	r3, #0
 1263              	@ 329 "../../os/hal/platforms/STM32/OTGv1/usb_lld.c" 1
 1264 041c 83F31188 		msr     BASEPRI, r3
 1265              	@ 0 "" 2
 1266              	.LVL155:
 1267              		.thumb
 1268 0420 7CE7     		b	.L94
 1269              	.LVL156:
 1270              	.L84:
 1271              	.LBE151:
 1272              	.LBB152:
 1273              		.loc 1 307 0
 1274 0422 002A     		cmp	r2, #0
 1275 0424 E3D0     		beq	.L212
 1276              	.LVL157:
 1277              	.L80:
 1278              		.loc 1 314 0
 1279 0426 A669     		ldr	r6, [r4, #24]
 1280 0428 16F8013B 		ldrb	r3, [r6], #1	@ zero_extendqisi2
 1281              	.LVL158:
 1282              		.loc 1 315 0
 1283 042c B042     		cmp	r0, r6
 1284              		.loc 1 314 0
 1285 042e A661     		str	r6, [r4, #24]
 1286              		.loc 1 316 0
 1287 0430 9CBF     		itt	ls
 1288 0432 E668     		ldrls	r6, [r4, #12]
 1289 0434 A661     		strls	r6, [r4, #24]
 1290              		.loc 1 313 0
 1291 0436 012A     		cmp	r2, #1
 1292 0438 27D0     		beq	.L88
 1293              		.loc 1 314 0
 1294 043a A769     		ldr	r7, [r4, #24]
 1295 043c 17F8015B 		ldrb	r5, [r7], #1	@ zero_extendqisi2
 1296              		.loc 1 315 0
 1297 0440 B842     		cmp	r0, r7
 1298              		.loc 1 314 0
 1299 0442 A761     		str	r7, [r4, #24]
 1300              		.loc 1 316 0
 1301 0444 9CBF     		itt	ls
 1302 0446 E768     		ldrls	r7, [r4, #12]
 1303 0448 A761     		strls	r7, [r4, #24]
 1304              		.loc 1 313 0
 1305 044a 022A     		cmp	r2, #2
ARM GAS  C:\Users\Matuesz\AppData\Local\Temp\ccLA85Wr.s 			page 24


 1306              		.loc 1 314 0
 1307 044c 43EA0523 		orr	r3, r3, r5, lsl #8
 1308              	.LVL159:
 1309              		.loc 1 313 0
 1310 0450 1BD0     		beq	.L88
 1311              		.loc 1 314 0
 1312 0452 A769     		ldr	r7, [r4, #24]
 1313 0454 17F8016B 		ldrb	r6, [r7], #1	@ zero_extendqisi2
 1314              		.loc 1 315 0
 1315 0458 B842     		cmp	r0, r7
 1316              		.loc 1 314 0
 1317 045a A761     		str	r7, [r4, #24]
 1318              		.loc 1 316 0
 1319 045c 9CBF     		itt	ls
 1320 045e E768     		ldrls	r7, [r4, #12]
 1321 0460 A761     		strls	r7, [r4, #24]
 1322              		.loc 1 313 0
 1323 0462 032A     		cmp	r2, #3
 1324              		.loc 1 314 0
 1325 0464 43EA0643 		orr	r3, r3, r6, lsl #16
 1326              	.LVL160:
 1327              		.loc 1 313 0
 1328 0468 0FD0     		beq	.L88
 1329              		.loc 1 314 0
 1330 046a A569     		ldr	r5, [r4, #24]
 1331 046c 15F8017B 		ldrb	r7, [r5], #1	@ zero_extendqisi2
 1332              		.loc 1 315 0
 1333 0470 8542     		cmp	r5, r0
 1334              		.loc 1 314 0
 1335 0472 A561     		str	r5, [r4, #24]
 1336              		.loc 1 316 0
 1337 0474 24BF     		itt	cs
 1338 0476 E568     		ldrcs	r5, [r4, #12]
 1339 0478 A561     		strcs	r5, [r4, #24]
 1340              		.loc 1 313 0
 1341 047a 043A     		subs	r2, r2, #4
 1342              	.LVL161:
 1343              		.loc 1 314 0
 1344 047c 43EA0763 		orr	r3, r3, r7, lsl #24
 1345              	.LVL162:
 1346              		.loc 1 313 0
 1347 0480 03D0     		beq	.L88
 1348              	.LVL163:
 1349              	.L92:
 1350              		.loc 1 320 0
 1351 0482 0B60     		str	r3, [r1, #0]
 1352              	.LVL164:
 1353              	.LBE152:
 1354              		.loc 1 289 0
 1355 0484 002A     		cmp	r2, #0
 1356 0486 80D1     		bne	.L93
 1357 0488 B1E7     		b	.L212
 1358              	.LVL165:
 1359              	.L88:
 1360 048a 0022     		movs	r2, #0
 1361 048c F9E7     		b	.L92
 1362              	.LVL166:
ARM GAS  C:\Users\Matuesz\AppData\Local\Temp\ccLA85Wr.s 			page 25


 1363              	.L223:
 1364 048e 631C     		adds	r3, r4, #1
 1365 0490 0593     		str	r3, [sp, #20]
 1366              	.LVL167:
 1367              	.L99:
 1368              		.loc 1 506 0
 1369 0492 0120     		movs	r0, #1
 1370 0494 5CE7     		b	.L72
 1371              	.LBE153:
 1372              	.LBE154:
 1373              	.LBE155:
 1374              	.LBE158:
 1375              	.LBE124:
 1376              	.LBE159:
 1377              		.cfi_endproc
 1378              	.LFE136:
 1379              		.size	usb_lld_pump, .-usb_lld_pump
 1380 0496 00BFAFF3 		.section	.text.usb_lld_init,"ax",%progbits
 1380      0080AFF3 
 1380      0080
 1381              		.align	2
 1382              		.p2align 4,,15
 1383              		.global	usb_lld_init
 1384              		.thumb
 1385              		.thumb_func
 1386              		.type	usb_lld_init, %function
 1387              	usb_lld_init:
 1388              	.LFB139:
 1389              		.loc 1 802 0
 1390              		.cfi_startproc
 1391              		@ args = 0, pretend = 0, frame = 0
 1392              		@ frame_needed = 0, uses_anonymous_args = 0
 1393 0000 70B5     		push	{r4, r5, r6, lr}
 1394              	.LCFI4:
 1395              		.cfi_def_cfa_offset 16
 1396              		.cfi_offset 4, -16
 1397              		.cfi_offset 5, -12
 1398              		.cfi_offset 6, -8
 1399              		.cfi_offset 14, -4
 1400              		.loc 1 806 0
 1401 0002 40F20005 		movw	r5, #:lower16:.LANCHOR0
 1402 0006 C0F20005 		movt	r5, #:upper16:.LANCHOR0
 1403 000a 2846     		mov	r0, r5
 1404              		.loc 1 828 0
 1405 000c 40F20004 		movw	r4, #:lower16:.LANCHOR2
 1406              		.loc 1 806 0
 1407 0010 FFF7FEFF 		bl	usbObjectInit
 1408              	.LVL168:
 1409              		.loc 1 828 0
 1410 0014 C0F20004 		movt	r4, #:upper16:.LANCHOR2
 1411              		.loc 1 810 0
 1412 0018 40F20001 		movw	r1, #:lower16:.LANCHOR1
 1413              		.loc 1 807 0
 1414 001c 0026     		movs	r6, #0
 1415              		.loc 1 828 0
 1416 001e 2046     		mov	r0, r4
 1417              		.loc 1 809 0
ARM GAS  C:\Users\Matuesz\AppData\Local\Temp\ccLA85Wr.s 			page 26


 1418 0020 4FF0A043 		mov	r3, #1342177280
 1419              		.loc 1 810 0
 1420 0024 C0F20001 		movt	r1, #:upper16:.LANCHOR1
 1421              		.loc 1 807 0
 1422 0028 AE67     		str	r6, [r5, #120]
 1423              		.loc 1 808 0
 1424 002a EE67     		str	r6, [r5, #124]
 1425              		.loc 1 809 0
 1426 002c AB66     		str	r3, [r5, #104]
 1427              		.loc 1 810 0
 1428 002e E966     		str	r1, [r5, #108]
 1429              		.loc 1 828 0
 1430 0030 FFF7FEFF 		bl	usbObjectInit
 1431              	.LVL169:
 1432              		.loc 1 831 0
 1433 0034 3046     		mov	r0, r6
 1434              		.loc 1 832 0
 1435 0036 40F20002 		movw	r2, #:lower16:.LANCHOR3
 1436              		.loc 1 831 0
 1437 003a C4F20400 		movt	r0, 16388
 1438              		.loc 1 832 0
 1439 003e C0F20002 		movt	r2, #:upper16:.LANCHOR3
 1440              		.loc 1 829 0
 1441 0042 A667     		str	r6, [r4, #120]
 1442              		.loc 1 830 0
 1443 0044 E667     		str	r6, [r4, #124]
 1444              		.loc 1 831 0
 1445 0046 A066     		str	r0, [r4, #104]
 1446              		.loc 1 832 0
 1447 0048 E266     		str	r2, [r4, #108]
 1448 004a 70BD     		pop	{r4, r5, r6, pc}
 1449              		.cfi_endproc
 1450              	.LFE139:
 1451              		.size	usb_lld_init, .-usb_lld_init
 1452 004c AFF30080 		.section	.text.usb_lld_start,"ax",%progbits
 1453              		.align	2
 1454              		.p2align 4,,15
 1455              		.global	usb_lld_start
 1456              		.thumb
 1457              		.thumb_func
 1458              		.type	usb_lld_start, %function
 1459              	usb_lld_start:
 1460              	.LFB140:
 1461              		.loc 1 860 0
 1462              		.cfi_startproc
 1463              		@ args = 0, pretend = 0, frame = 0
 1464              		@ frame_needed = 0, uses_anonymous_args = 0
 1465              	.LVL170:
 1466 0000 70B5     		push	{r4, r5, r6, lr}
 1467              	.LCFI5:
 1468              		.cfi_def_cfa_offset 16
 1469              		.cfi_offset 4, -16
 1470              		.cfi_offset 5, -12
 1471              		.cfi_offset 6, -8
 1472              		.cfi_offset 14, -4
 1473              		.loc 1 863 0
 1474 0002 0378     		ldrb	r3, [r0, #0]	@ zero_extendqisi2
ARM GAS  C:\Users\Matuesz\AppData\Local\Temp\ccLA85Wr.s 			page 27


 1475              		.loc 1 861 0
 1476 0004 866E     		ldr	r6, [r0, #104]
 1477              	.LVL171:
 1478              		.loc 1 863 0
 1479 0006 012B     		cmp	r3, #1
 1480              		.loc 1 860 0
 1481 0008 82B0     		sub	sp, sp, #8
 1482              	.LCFI6:
 1483              		.cfi_def_cfa_offset 24
 1484              		.loc 1 860 0
 1485 000a 0546     		mov	r5, r0
 1486              		.loc 1 863 0
 1487 000c 01D0     		beq	.L239
 1488              	.LVL172:
 1489              	.L228:
 1490              		.loc 1 946 0
 1491 000e 02B0     		add	sp, sp, #8
 1492 0010 70BD     		pop	{r4, r5, r6, pc}
 1493              	.LVL173:
 1494              	.L239:
 1495              		.loc 1 866 0
 1496 0012 4048     		ldr	r0, .L244
 1497              	.LVL174:
 1498 0014 8542     		cmp	r5, r0
 1499 0016 4FD0     		beq	.L240
 1500              		.loc 1 877 0
 1501 0018 3F49     		ldr	r1, .L244+4
 1502 001a 8D42     		cmp	r5, r1
 1503 001c 5FD0     		beq	.L241
 1504              	.L231:
 1505              		.loc 1 895 0
 1506 001e AC6F     		ldr	r4, [r5, #120]
 1507              		.loc 1 894 0
 1508 0020 0020     		movs	r0, #0
 1509 0022 6867     		str	r0, [r5, #116]
 1510              		.loc 1 895 0
 1511 0024 002C     		cmp	r4, #0
 1512 0026 3BD0     		beq	.L242
 1513              	.L232:
 1514              		.loc 1 905 0
 1515 0028 4FF4A251 		mov	r1, #5184
 1516 002c C4F20001 		movt	r1, 16384
 1517              		.loc 1 908 0
 1518 0030 0322     		movs	r2, #3
 1519              		.loc 1 905 0
 1520 0032 F160     		str	r1, [r6, #12]
 1521              		.loc 1 908 0
 1522 0034 C0F22022 		movt	r2, 544
 1523              		.loc 1 911 0
 1524 0038 0023     		movs	r3, #0
 1525              		.loc 1 918 0
 1526 003a 4FF45021 		mov	r1, #851968
 1527              	.LBB162:
 1528              	.LBB163:
 1529              		.loc 1 131 0
 1530 003e AC6E     		ldr	r4, [r5, #104]
 1531              	.LBE163:
ARM GAS  C:\Users\Matuesz\AppData\Local\Temp\ccLA85Wr.s 			page 28


 1532              	.LBE162:
 1533              		.loc 1 908 0
 1534 0040 C6F80028 		str	r2, [r6, #2048]
 1535              	.LBB166:
 1536              	.LBB164:
 1537              		.loc 1 133 0
 1538 0044 2020     		movs	r0, #32
 1539              	.LBE164:
 1540              	.LBE166:
 1541              		.loc 1 911 0
 1542 0046 C6F8003E 		str	r3, [r6, #3584]
 1543              		.loc 1 918 0
 1544 004a B163     		str	r1, [r6, #56]
 1545              	.LVL175:
 1546              	.LBB167:
 1547              	.LBB165:
 1548              		.loc 1 133 0
 1549 004c FFF7FEFF 		bl	halPolledDelay
 1550              	.LVL176:
 1551              		.loc 1 136 0
 1552 0050 0120     		movs	r0, #1
 1553 0052 2061     		str	r0, [r4, #16]
 1554              	.L233:
 1555              		.loc 1 137 0
 1556 0054 2269     		ldr	r2, [r4, #16]
 1557 0056 D307     		lsls	r3, r2, #31
 1558 0058 FCD4     		bmi	.L233
 1559              		.loc 1 140 0
 1560 005a 0C20     		movs	r0, #12
 1561 005c FFF7FEFF 		bl	halPolledDelay
 1562              	.LVL177:
 1563              	.L234:
 1564              		.loc 1 143 0
 1565 0060 2369     		ldr	r3, [r4, #16]
 1566 0062 002B     		cmp	r3, #0
 1567 0064 FCDA     		bge	.L234
 1568              	.LBE165:
 1569              	.LBE167:
 1570              		.loc 1 925 0
 1571 0066 0024     		movs	r4, #0
 1572              	.LVL178:
 1573              		.loc 1 928 0
 1574 0068 2846     		mov	r0, r5
 1575              		.loc 1 925 0
 1576 006a B460     		str	r4, [r6, #8]
 1577              		.loc 1 928 0
 1578 006c FFF7FEFF 		bl	otg_disable_ep
 1579              	.LVL179:
 1580              		.loc 1 935 0
 1581 0070 6968     		ldr	r1, [r5, #4]
 1582              		.loc 1 932 0
 1583 0072 C6F81048 		str	r4, [r6, #2064]
 1584              		.loc 1 935 0
 1585 0076 C868     		ldr	r0, [r1, #12]
 1586              		.loc 1 933 0
 1587 0078 C6F81448 		str	r4, [r6, #2068]
 1588              		.loc 1 934 0
ARM GAS  C:\Users\Matuesz\AppData\Local\Temp\ccLA85Wr.s 			page 29


 1589 007c C6F81C48 		str	r4, [r6, #2076]
 1590              		.loc 1 935 0
 1591 0080 50B1     		cbz	r0, .L243
 1592              		.loc 1 939 0
 1593 0082 43F20802 		movw	r2, #12296
 1594 0086 B261     		str	r2, [r6, #24]
 1595              	.L236:
 1596              		.loc 1 941 0
 1597 0088 4FF0FF31 		mov	r1, #-1
 1598 008c 7161     		str	r1, [r6, #20]
 1599              		.loc 1 944 0
 1600 008e B068     		ldr	r0, [r6, #8]
 1601 0090 40F00102 		orr	r2, r0, #1
 1602 0094 B260     		str	r2, [r6, #8]
 1603 0096 BAE7     		b	.L228
 1604              	.L243:
 1605              		.loc 1 936 0
 1606 0098 4FF44053 		mov	r3, #12288
 1607 009c B361     		str	r3, [r6, #24]
 1608 009e F3E7     		b	.L236
 1609              	.LVL180:
 1610              	.L242:
 1611              		.loc 1 896 0
 1612 00a0 0095     		str	r5, [sp, #0]
 1613 00a2 05F18000 		add	r0, r5, #128
 1614 00a6 4FF4A871 		mov	r1, #336
 1615 00aa 0222     		movs	r2, #2
 1616 00ac 1B4B     		ldr	r3, .L244+8
 1617 00ae FFF7FEFF 		bl	chThdCreateI
 1618              	.LVL181:
 1619 00b2 E867     		str	r0, [r5, #124]
 1620 00b4 A867     		str	r0, [r5, #120]
 1621 00b6 B7E7     		b	.L232
 1622              	.L240:
 1623              		.loc 1 868 0
 1624 00b8 4FF46054 		mov	r4, #14336
 1625 00bc C4F20204 		movt	r4, 16386
 1626 00c0 636B     		ldr	r3, [r4, #52]
 1627 00c2 43F08000 		orr	r0, r3, #128
 1628 00c6 6063     		str	r0, [r4, #52]
 1629              		.loc 1 869 0
 1630 00c8 6169     		ldr	r1, [r4, #20]
 1631 00ca 0023     		movs	r3, #0
 1632 00cc 41F08002 		orr	r2, r1, #128
 1633 00d0 6261     		str	r2, [r4, #20]
 1634              		.loc 1 872 0
 1635 00d2 4320     		movs	r0, #67
 1636              		.loc 1 869 0
 1637 00d4 6361     		str	r3, [r4, #20]
 1638              		.loc 1 872 0
 1639 00d6 E021     		movs	r1, #224
 1640 00d8 FFF7FEFF 		bl	nvicEnableVector
 1641              	.LVL182:
 1642 00dc 9FE7     		b	.L231
 1643              	.L241:
 1644              		.loc 1 879 0
 1645 00de 4FF46054 		mov	r4, #14336
ARM GAS  C:\Users\Matuesz\AppData\Local\Temp\ccLA85Wr.s 			page 30


 1646 00e2 C4F20204 		movt	r4, 16386
 1647 00e6 226B     		ldr	r2, [r4, #48]
 1648 00e8 42F00053 		orr	r3, r2, #536870912
 1649 00ec 2363     		str	r3, [r4, #48]
 1650              		.loc 1 880 0
 1651 00ee 2069     		ldr	r0, [r4, #16]
 1652 00f0 0022     		movs	r2, #0
 1653 00f2 40F08051 		orr	r1, r0, #268435456
 1654 00f6 2161     		str	r1, [r4, #16]
 1655 00f8 2261     		str	r2, [r4, #16]
 1656              		.loc 1 884 0
 1657 00fa 236B     		ldr	r3, [r4, #48]
 1658 00fc 23F08040 		bic	r0, r3, #1073741824
 1659 0100 2063     		str	r0, [r4, #48]
 1660 0102 216D     		ldr	r1, [r4, #80]
 1661 0104 21F08042 		bic	r2, r1, #1073741824
 1662 0108 2265     		str	r2, [r4, #80]
 1663              		.loc 1 887 0
 1664 010a 4D20     		movs	r0, #77
 1665 010c E021     		movs	r1, #224
 1666 010e FFF7FEFF 		bl	nvicEnableVector
 1667              	.LVL183:
 1668 0112 84E7     		b	.L231
 1669              	.L245:
 1670              		.align	2
 1671              	.L244:
 1672 0114 00000000 		.word	.LANCHOR0
 1673 0118 00000000 		.word	.LANCHOR2
 1674 011c 00000000 		.word	usb_lld_pump
 1675              		.cfi_endproc
 1676              	.LFE140:
 1677              		.size	usb_lld_start, .-usb_lld_start
 1678              		.section	.text.usb_lld_stop,"ax",%progbits
 1679              		.align	2
 1680              		.p2align 4,,15
 1681              		.global	usb_lld_stop
 1682              		.thumb
 1683              		.thumb_func
 1684              		.type	usb_lld_stop, %function
 1685              	usb_lld_stop:
 1686              	.LFB141:
 1687              		.loc 1 955 0
 1688              		.cfi_startproc
 1689              		@ args = 0, pretend = 0, frame = 0
 1690              		@ frame_needed = 0, uses_anonymous_args = 0
 1691              	.LVL184:
 1692 0000 38B5     		push	{r3, r4, r5, lr}
 1693              	.LCFI7:
 1694              		.cfi_def_cfa_offset 16
 1695              		.cfi_offset 3, -16
 1696              		.cfi_offset 4, -12
 1697              		.cfi_offset 5, -8
 1698              		.cfi_offset 14, -4
 1699              		.loc 1 959 0
 1700 0002 0378     		ldrb	r3, [r0, #0]	@ zero_extendqisi2
 1701              		.loc 1 956 0
 1702 0004 856E     		ldr	r5, [r0, #104]
ARM GAS  C:\Users\Matuesz\AppData\Local\Temp\ccLA85Wr.s 			page 31


 1703              	.LVL185:
 1704              		.loc 1 959 0
 1705 0006 012B     		cmp	r3, #1
 1706              		.loc 1 955 0
 1707 0008 0446     		mov	r4, r0
 1708              		.loc 1 959 0
 1709 000a 07D0     		beq	.L246
 1710              		.loc 1 963 0
 1711 000c FFF7FEFF 		bl	otg_disable_ep
 1712              	.LVL186:
 1713              		.loc 1 965 0
 1714 0010 0020     		movs	r0, #0
 1715 0012 6067     		str	r0, [r4, #116]
 1716              		.loc 1 967 0
 1717 0014 C5F81C08 		str	r0, [r5, #2076]
 1718              		.loc 1 968 0
 1719 0018 A860     		str	r0, [r5, #8]
 1720              		.loc 1 969 0
 1721 001a A863     		str	r0, [r5, #56]
 1722              	.L246:
 1723 001c 38BD     		pop	{r3, r4, r5, pc}
 1724              		.cfi_endproc
 1725              	.LFE141:
 1726              		.size	usb_lld_stop, .-usb_lld_stop
 1727 001e 00BF     		.section	.text.usb_lld_reset,"ax",%progbits
 1728              		.align	2
 1729              		.p2align 4,,15
 1730              		.global	usb_lld_reset
 1731              		.thumb
 1732              		.thumb_func
 1733              		.type	usb_lld_reset, %function
 1734              	usb_lld_reset:
 1735              	.LFB142:
 1736              		.loc 1 994 0
 1737              		.cfi_startproc
 1738              		@ args = 0, pretend = 0, frame = 0
 1739              		@ frame_needed = 0, uses_anonymous_args = 0
 1740              	.LVL187:
 1741 0000 2DE9F84F 		push	{r3, r4, r5, r6, r7, r8, r9, sl, fp, lr}
 1742              	.LCFI8:
 1743              		.cfi_def_cfa_offset 40
 1744              		.cfi_offset 3, -40
 1745              		.cfi_offset 4, -36
 1746              		.cfi_offset 5, -32
 1747              		.cfi_offset 6, -28
 1748              		.cfi_offset 7, -24
 1749              		.cfi_offset 8, -20
 1750              		.cfi_offset 9, -16
 1751              		.cfi_offset 10, -12
 1752              		.cfi_offset 11, -8
 1753              		.cfi_offset 14, -4
 1754              		.loc 1 994 0
 1755 0004 8046     		mov	r8, r0
 1756              		.loc 1 999 0
 1757 0006 0021     		movs	r1, #0
 1758              		.loc 1 996 0
 1759 0008 846E     		ldr	r4, [r0, #104]
ARM GAS  C:\Users\Matuesz\AppData\Local\Temp\ccLA85Wr.s 			page 32


 1760              	.LVL188:
 1761              		.loc 1 999 0
 1762 000a FFF7FEFF 		bl	otg_txfifo_flush
 1763              	.LVL189:
 1764 000e D8F86CB0 		ldr	fp, [r8, #108]
 1765 0012 DBF808A0 		ldr	sl, [fp, #8]
 1766              		.loc 1 1003 0
 1767 0016 4FF00061 		mov	r1, #134217728
 1768              		.loc 1 1005 0
 1769 001a FF22     		movs	r2, #255
 1770              		.loc 1 1003 0
 1771 001c C4F80019 		str	r1, [r4, #2304]
 1772 0020 0AF00106 		and	r6, sl, #1
 1773              		.loc 1 1004 0
 1774 0024 C4F8001B 		str	r1, [r4, #2816]
 1775              		.loc 1 1002 0
 1776 0028 0123     		movs	r3, #1
 1777              		.loc 1 1005 0
 1778 002a C4F80829 		str	r2, [r4, #2312]
 1779              		.loc 1 1006 0
 1780 002e C4F8082B 		str	r2, [r4, #2824]
 1781              		.loc 1 1002 0
 1782 0032 BAF1000F 		cmp	sl, #0
 1783 0036 33D0     		beq	.L262
 1784 0038 66B1     		cbz	r6, .L252
 1785 003a 0223     		movs	r3, #2
 1786 003c 5345     		cmp	r3, sl
 1787              		.loc 1 1003 0
 1788 003e C4F82019 		str	r1, [r4, #2336]
 1789 0042 04F51267 		add	r7, r4, #2336
 1790              		.loc 1 1004 0
 1791 0046 C4F8201B 		str	r1, [r4, #2848]
 1792              		.loc 1 1005 0
 1793 004a C4F82829 		str	r2, [r4, #2344]
 1794              		.loc 1 1006 0
 1795 004e C4F8282B 		str	r2, [r4, #2856]
 1796              		.loc 1 1002 0
 1797 0052 25D8     		bhi	.L262
 1798              	.L252:
 1799              		.loc 1 1002 0 is_stmt 0 discriminator 2
 1800 0054 5F1C     		adds	r7, r3, #1
 1801              		.loc 1 1003 0 is_stmt 1 discriminator 2
 1802 0056 03F14809 		add	r9, r3, #72
 1803              		.loc 1 1004 0 discriminator 2
 1804 005a 03F15800 		add	r0, r3, #88
 1805              		.loc 1 1003 0 discriminator 2
 1806 005e 03F1490C 		add	ip, r3, #73
 1807              		.loc 1 1004 0 discriminator 2
 1808 0062 03F1590E 		add	lr, r3, #89
 1809              		.loc 1 1005 0 discriminator 2
 1810 0066 04EB4316 		add	r6, r4, r3, lsl #5
 1811 006a 04EB4715 		add	r5, r4, r7, lsl #5
 1812              		.loc 1 1004 0 discriminator 2
 1813 006e 4001     		lsls	r0, r0, #5
 1814              		.loc 1 1003 0 discriminator 2
 1815 0070 4FEA4919 		lsl	r9, r9, #5
 1816 0074 4FEA4C1C 		lsl	ip, ip, #5
ARM GAS  C:\Users\Matuesz\AppData\Local\Temp\ccLA85Wr.s 			page 33


 1817              		.loc 1 1004 0 discriminator 2
 1818 0078 4FEA4E1E 		lsl	lr, lr, #5
 1819              		.loc 1 1002 0 discriminator 2
 1820 007c 0233     		adds	r3, r3, #2
 1821 007e 5345     		cmp	r3, sl
 1822              		.loc 1 1003 0 discriminator 2
 1823 0080 44F80910 		str	r1, [r4, r9]
 1824              		.loc 1 1004 0 discriminator 2
 1825 0084 2150     		str	r1, [r4, r0]
 1826              		.loc 1 1005 0 discriminator 2
 1827 0086 C6F80829 		str	r2, [r6, #2312]
 1828              		.loc 1 1006 0 discriminator 2
 1829 008a C6F8082B 		str	r2, [r6, #2824]
 1830              		.loc 1 1003 0 discriminator 2
 1831 008e 44F80C10 		str	r1, [r4, ip]
 1832              		.loc 1 1004 0 discriminator 2
 1833 0092 44F80E10 		str	r1, [r4, lr]
 1834              		.loc 1 1005 0 discriminator 2
 1835 0096 C5F80829 		str	r2, [r5, #2312]
 1836              		.loc 1 1006 0 discriminator 2
 1837 009a C5F8082B 		str	r2, [r5, #2824]
 1838              		.loc 1 1002 0 discriminator 2
 1839 009e D9D9     		bls	.L252
 1840              	.L262:
 1841              	.LBB174:
 1842              	.LBB175:
 1843              		.loc 1 213 0
 1844 00a0 DBF80030 		ldr	r3, [fp, #0]
 1845              	.LBE175:
 1846              	.LBE174:
 1847              	.LBB177:
 1848              	.LBB178:
 1849              		.loc 1 185 0
 1850 00a4 D8F86820 		ldr	r2, [r8, #104]
 1851              	.LBE178:
 1852              	.LBE177:
 1853              		.loc 1 1010 0
 1854 00a8 4FF0FF31 		mov	r1, #-1
 1855              		.loc 1 1011 0
 1856 00ac 4FF00116 		mov	r6, #65537
 1857              	.LBB181:
 1858              	.LBB179:
 1859              		.loc 1 187 0
 1860 00b0 1025     		movs	r5, #16
 1861              	.LBE179:
 1862              	.LBE181:
 1863              		.loc 1 1010 0
 1864 00b2 C4F81818 		str	r1, [r4, #2072]
 1865              		.loc 1 1011 0
 1866 00b6 C4F81C68 		str	r6, [r4, #2076]
 1867              	.LVL190:
 1868              	.LBB182:
 1869              	.LBB176:
 1870              		.loc 1 213 0
 1871 00ba C8F87030 		str	r3, [r8, #112]
 1872              	.LBE176:
 1873              	.LBE182:
ARM GAS  C:\Users\Matuesz\AppData\Local\Temp\ccLA85Wr.s 			page 34


 1874              		.loc 1 1017 0
 1875 00be 6362     		str	r3, [r4, #36]
 1876              	.LVL191:
 1877              	.LBB183:
 1878              	.LBB180:
 1879              		.loc 1 187 0
 1880 00c0 1561     		str	r5, [r2, #16]
 1881              	.L253:
 1882              		.loc 1 188 0
 1883 00c2 1069     		ldr	r0, [r2, #16]
 1884 00c4 10F01005 		ands	r5, r0, #16
 1885 00c8 FBD1     		bne	.L253
 1886              		.loc 1 191 0
 1887 00ca 0C20     		movs	r0, #12
 1888 00cc FFF7FEFF 		bl	halPolledDelay
 1889              	.LVL192:
 1890              	.LBE180:
 1891              	.LBE183:
 1892              		.loc 1 1021 0
 1893 00d0 D4F80038 		ldr	r3, [r4, #2048]
 1894              	.LBB184:
 1895              	.LBB185:
 1896              		.loc 1 227 0
 1897 00d4 D8F87010 		ldr	r1, [r8, #112]
 1898              	.LBE185:
 1899              	.LBE184:
 1900              		.loc 1 1021 0
 1901 00d8 23F4FE62 		bic	r2, r3, #2032
 1902 00dc C4F80028 		str	r2, [r4, #2048]
 1903              		.loc 1 1024 0
 1904 00e0 A669     		ldr	r6, [r4, #24]
 1905 00e2 46F44020 		orr	r0, r6, #786432
 1906              		.loc 1 1025 0
 1907 00e6 0922     		movs	r2, #9
 1908              		.loc 1 1024 0
 1909 00e8 40F01006 		orr	r6, r0, #16
 1910 00ec A661     		str	r6, [r4, #24]
 1911              		.loc 1 1031 0
 1912 00ee 48F24003 		movw	r3, #32832
 1913              		.loc 1 1025 0
 1914 00f2 C4F81028 		str	r2, [r4, #2064]
 1915              		.loc 1 1026 0
 1916 00f6 C4F81428 		str	r2, [r4, #2068]
 1917              		.loc 1 1029 0
 1918 00fa 0B4A     		ldr	r2, .L263
 1919              		.loc 1 1031 0
 1920 00fc C1F20003 		movt	r3, 4096
 1921              	.LBB188:
 1922              	.LBB186:
 1923              		.loc 1 228 0
 1924 0100 01F11000 		add	r0, r1, #16
 1925              	.LBE186:
 1926              	.LBE188:
 1927              		.loc 1 1036 0
 1928 0104 41F48011 		orr	r1, r1, #1048576
 1929              		.loc 1 1029 0
 1930 0108 C8F80C20 		str	r2, [r8, #12]
ARM GAS  C:\Users\Matuesz\AppData\Local\Temp\ccLA85Wr.s 			page 35


 1931              		.loc 1 1030 0
 1932 010c C4F8105B 		str	r5, [r4, #2832]
 1933              		.loc 1 1031 0
 1934 0110 C4F8003B 		str	r3, [r4, #2816]
 1935              		.loc 1 1033 0
 1936 0114 C4F81059 		str	r5, [r4, #2320]
 1937              		.loc 1 1034 0
 1938 0118 C4F80039 		str	r3, [r4, #2304]
 1939              	.LVL193:
 1940              	.LBB189:
 1941              	.LBB187:
 1942              		.loc 1 228 0
 1943 011c C8F87000 		str	r0, [r8, #112]
 1944              	.LBE187:
 1945              	.LBE189:
 1946              		.loc 1 1036 0
 1947 0120 A162     		str	r1, [r4, #40]
 1948 0122 BDE8F88F 		pop	{r3, r4, r5, r6, r7, r8, r9, sl, fp, pc}
 1949              	.L264:
 1950 0126 00BF     		.align	2
 1951              	.L263:
 1952 0128 00000000 		.word	.LANCHOR4
 1953              		.cfi_endproc
 1954              	.LFE142:
 1955              		.size	usb_lld_reset, .-usb_lld_reset
 1956 012c AFF30080 		.section	.text.usb_lld_set_address,"ax",%progbits
 1957              		.align	2
 1958              		.p2align 4,,15
 1959              		.global	usb_lld_set_address
 1960              		.thumb
 1961              		.thumb_func
 1962              		.type	usb_lld_set_address, %function
 1963              	usb_lld_set_address:
 1964              	.LFB143:
 1965              		.loc 1 1048 0
 1966              		.cfi_startproc
 1967              		@ args = 0, pretend = 0, frame = 0
 1968              		@ frame_needed = 0, uses_anonymous_args = 0
 1969              		@ link register save eliminated.
 1970              	.LVL194:
 1971              		.loc 1 1049 0
 1972 0000 836E     		ldr	r3, [r0, #104]
 1973              	.LVL195:
 1974              		.loc 1 1051 0
 1975 0002 90F86610 		ldrb	r1, [r0, #102]	@ zero_extendqisi2
 1976 0006 D3F80028 		ldr	r2, [r3, #2048]
 1977 000a 22F4FE60 		bic	r0, r2, #2032
 1978              	.LVL196:
 1979 000e 40EA0111 		orr	r1, r0, r1, lsl #4
 1980 0012 C3F80018 		str	r1, [r3, #2048]
 1981 0016 7047     		bx	lr
 1982              		.cfi_endproc
 1983              	.LFE143:
 1984              		.size	usb_lld_set_address, .-usb_lld_set_address
 1985 0018 AFF30080 		.section	.text.usb_lld_init_endpoint,"ax",%progbits
 1985      AFF30080 
 1986              		.align	2
ARM GAS  C:\Users\Matuesz\AppData\Local\Temp\ccLA85Wr.s 			page 36


 1987              		.p2align 4,,15
 1988              		.global	usb_lld_init_endpoint
 1989              		.thumb
 1990              		.thumb_func
 1991              		.type	usb_lld_init_endpoint, %function
 1992              	usb_lld_init_endpoint:
 1993              	.LFB144:
 1994              		.loc 1 1062 0
 1995              		.cfi_startproc
 1996              		@ args = 0, pretend = 0, frame = 0
 1997              		@ frame_needed = 0, uses_anonymous_args = 0
 1998              	.LVL197:
 1999 0000 2DE9F041 		push	{r4, r5, r6, r7, r8, lr}
 2000              	.LCFI9:
 2001              		.cfi_def_cfa_offset 24
 2002              		.cfi_offset 4, -24
 2003              		.cfi_offset 5, -20
 2004              		.cfi_offset 6, -16
 2005              		.cfi_offset 7, -12
 2006              		.cfi_offset 8, -8
 2007              		.cfi_offset 14, -4
 2008              		.loc 1 1067 0
 2009 0004 8F1C     		adds	r7, r1, #2
 2010 0006 00EB8703 		add	r3, r0, r7, lsl #2
 2011              		.loc 1 1062 0
 2012 000a 0646     		mov	r6, r0
 2013              		.loc 1 1067 0
 2014 000c 5B68     		ldr	r3, [r3, #4]
 2015              		.loc 1 1064 0
 2016 000e 846E     		ldr	r4, [r0, #104]
 2017              	.LVL198:
 2018              		.loc 1 1067 0
 2019 0010 1A68     		ldr	r2, [r3, #0]
 2020 0012 02F00300 		and	r0, r2, #3
 2021              	.LVL199:
 2022 0016 0228     		cmp	r0, #2
 2023              		.loc 1 1062 0
 2024 0018 0D46     		mov	r5, r1
 2025              		.loc 1 1075 0
 2026 001a 4FF40048 		mov	r8, #32768
 2027              		.loc 1 1067 0
 2028 001e 54D0     		beq	.L269
 2029 0020 0328     		cmp	r0, #3
 2030 0022 55D0     		beq	.L270
 2031              		.loc 1 1069 0
 2032 0024 4146     		mov	r1, r8
 2033              	.LVL200:
 2034 0026 C1F20001 		movt	r1, 4096
 2035 002a C1F20408 		movt	r8, 4100
 2036 002e 0128     		cmp	r0, #1
 2037 0030 18BF     		it	ne
 2038 0032 8846     		movne	r8, r1
 2039              	.L268:
 2040              	.LVL201:
 2041              		.loc 1 1085 0
 2042 0034 6A01     		lsls	r2, r5, #5
 2043 0036 A018     		adds	r0, r4, r2
ARM GAS  C:\Users\Matuesz\AppData\Local\Temp\ccLA85Wr.s 			page 37


 2044 0038 0021     		movs	r1, #0
 2045 003a C0F8101B 		str	r1, [r0, #2832]
 2046              		.loc 1 1086 0
 2047 003e D868     		ldr	r0, [r3, #12]
 2048 0040 0028     		cmp	r0, #0
 2049 0042 48D0     		beq	.L271
 2050              		.loc 1 1087 0
 2051 0044 588A     		ldrh	r0, [r3, #18]
 2052 0046 05F15801 		add	r1, r5, #88
 2053 004a 4901     		lsls	r1, r1, #5
 2054 004c 48EA0000 		orr	r0, r8, r0
 2055 0050 6050     		str	r0, [r4, r1]
 2056              		.loc 1 1088 0
 2057 0052 4FF0010C 		mov	ip, #1
 2058 0056 D4F81C08 		ldr	r0, [r4, #2076]
 2059 005a 05F11001 		add	r1, r5, #16
 2060 005e 0CFA01F1 		lsl	r1, ip, r1
 2061 0062 0143     		orrs	r1, r1, r0
 2062 0064 C4F81C18 		str	r1, [r4, #2076]
 2063              	.L272:
 2064              		.loc 1 1096 0
 2065 0068 A218     		adds	r2, r4, r2
 2066              		.loc 1 1097 0
 2067 006a 9968     		ldr	r1, [r3, #8]
 2068              		.loc 1 1096 0
 2069 006c 0020     		movs	r0, #0
 2070 006e C2F81009 		str	r0, [r2, #2320]
 2071              		.loc 1 1097 0
 2072 0072 0029     		cmp	r1, #0
 2073 0074 42D0     		beq	.L273
 2074              		.loc 1 1100 0
 2075 0076 9A8B     		ldrh	r2, [r3, #28]
 2076              		.loc 1 1099 0
 2077 0078 198A     		ldrh	r1, [r3, #16]
 2078 007a 8B08     		lsrs	r3, r1, #2
 2079              	.LVL202:
 2080              		.loc 1 1100 0
 2081 007c 012A     		cmp	r2, #1
 2082              		.loc 1 1101 0
 2083 007e 88BF     		it	hi
 2084 0080 5343     		mulhi	r3, r2, r3
 2085              	.LVL203:
 2086              	.LBB190:
 2087              	.LBB191:
 2088              		.loc 1 227 0
 2089 0082 326F     		ldr	r2, [r6, #112]
 2090              	.LVL204:
 2091              	.LBE191:
 2092              	.LBE190:
 2093              		.loc 1 1102 0
 2094 0084 05F13F00 		add	r0, r5, #63
 2095 0088 04EB8001 		add	r1, r4, r0, lsl #2
 2096              	.LBB193:
 2097              	.LBB192:
 2098              		.loc 1 228 0
 2099 008c 9818     		adds	r0, r3, r2
 2100 008e 3067     		str	r0, [r6, #112]
ARM GAS  C:\Users\Matuesz\AppData\Local\Temp\ccLA85Wr.s 			page 38


 2101              	.LBE192:
 2102              	.LBE193:
 2103              		.loc 1 1102 0
 2104 0090 42EA0343 		orr	r3, r2, r3, lsl #16
 2105              	.LVL205:
 2106              		.loc 1 1104 0
 2107 0094 3046     		mov	r0, r6
 2108              		.loc 1 1108 0
 2109 0096 06EB8706 		add	r6, r6, r7, lsl #2
 2110              	.LVL206:
 2111              		.loc 1 1102 0
 2112 009a 4B60     		str	r3, [r1, #4]
 2113              		.loc 1 1104 0
 2114 009c 2946     		mov	r1, r5
 2115 009e FFF7FEFF 		bl	otg_txfifo_flush
 2116              	.LVL207:
 2117              		.loc 1 1108 0
 2118 00a2 7268     		ldr	r2, [r6, #4]
 2119              		.loc 1 1107 0
 2120 00a4 108A     		ldrh	r0, [r2, #16]
 2121              		.loc 1 1106 0
 2122 00a6 05F14801 		add	r1, r5, #72
 2123 00aa 4B01     		lsls	r3, r1, #5
 2124 00ac 40EA8551 		orr	r1, r0, r5, lsl #22
 2125              		.loc 1 1107 0
 2126 00b0 41EA0802 		orr	r2, r1, r8
 2127              		.loc 1 1106 0
 2128 00b4 E250     		str	r2, [r4, r3]
 2129              		.loc 1 1109 0
 2130 00b6 0123     		movs	r3, #1
 2131 00b8 D4F81C08 		ldr	r0, [r4, #2076]
 2132 00bc 03FA05F5 		lsl	r5, r3, r5
 2133 00c0 0543     		orrs	r5, r5, r0
 2134 00c2 C4F81C58 		str	r5, [r4, #2076]
 2135 00c6 BDE8F081 		pop	{r4, r5, r6, r7, r8, pc}
 2136              	.LVL208:
 2137              	.L269:
 2138              		.loc 1 1075 0
 2139 00ca C1F20808 		movt	r8, 4104
 2140              	.LVL209:
 2141              		.loc 1 1076 0
 2142 00ce B1E7     		b	.L268
 2143              	.L270:
 2144              	.LVL210:
 2145              		.loc 1 1078 0
 2146 00d0 C1F20C08 		movt	r8, 4108
 2147              	.LVL211:
 2148              		.loc 1 1079 0
 2149 00d4 AEE7     		b	.L268
 2150              	.LVL212:
 2151              	.L271:
 2152              		.loc 1 1091 0
 2153 00d6 05F15801 		add	r1, r5, #88
 2154 00da 4901     		lsls	r1, r1, #5
 2155              		.loc 1 1092 0
 2156 00dc 05F1100E 		add	lr, r5, #16
 2157              		.loc 1 1091 0
ARM GAS  C:\Users\Matuesz\AppData\Local\Temp\ccLA85Wr.s 			page 39


 2158 00e0 6058     		ldr	r0, [r4, r1]
 2159 00e2 20F40040 		bic	r0, r0, #32768
 2160 00e6 6050     		str	r0, [r4, r1]
 2161              		.loc 1 1092 0
 2162 00e8 0121     		movs	r1, #1
 2163 00ea D4F81C08 		ldr	r0, [r4, #2076]
 2164 00ee 01FA0EF1 		lsl	r1, r1, lr
 2165 00f2 20EA0100 		bic	r0, r0, r1
 2166 00f6 C4F81C08 		str	r0, [r4, #2076]
 2167 00fa B5E7     		b	.L272
 2168              	.L273:
 2169              		.loc 1 1112 0
 2170 00fc 05F13F03 		add	r3, r5, #63
 2171 0100 04EB8302 		add	r2, r4, r3, lsl #2
 2172 0104 4FF48061 		mov	r1, #1024
 2173 0108 C0F20021 		movt	r1, 512
 2174 010c 5160     		str	r1, [r2, #4]
 2175              		.loc 1 1113 0
 2176 010e 3046     		mov	r0, r6
 2177 0110 2946     		mov	r1, r5
 2178 0112 FFF7FEFF 		bl	otg_txfifo_flush
 2179              	.LVL213:
 2180              		.loc 1 1114 0
 2181 0116 05F14800 		add	r0, r5, #72
 2182 011a 4301     		lsls	r3, r0, #5
 2183 011c E258     		ldr	r2, [r4, r3]
 2184 011e 22F40041 		bic	r1, r2, #32768
 2185 0122 E150     		str	r1, [r4, r3]
 2186              		.loc 1 1115 0
 2187 0124 0123     		movs	r3, #1
 2188 0126 D4F81C08 		ldr	r0, [r4, #2076]
 2189 012a 03FA05F5 		lsl	r5, r3, r5
 2190 012e 20EA0505 		bic	r5, r0, r5
 2191 0132 C4F81C58 		str	r5, [r4, #2076]
 2192 0136 BDE8F081 		pop	{r4, r5, r6, r7, r8, pc}
 2193              		.cfi_endproc
 2194              	.LFE144:
 2195              		.size	usb_lld_init_endpoint, .-usb_lld_init_endpoint
 2196 013a 00BFAFF3 		.section	.text.usb_lld_disable_endpoints,"ax",%progbits
 2196      0080
 2197              		.align	2
 2198              		.p2align 4,,15
 2199              		.global	usb_lld_disable_endpoints
 2200              		.thumb
 2201              		.thumb_func
 2202              		.type	usb_lld_disable_endpoints, %function
 2203              	usb_lld_disable_endpoints:
 2204              	.LFB145:
 2205              		.loc 1 1126 0
 2206              		.cfi_startproc
 2207              		@ args = 0, pretend = 0, frame = 0
 2208              		@ frame_needed = 0, uses_anonymous_args = 0
 2209              		@ link register save eliminated.
 2210              	.LVL214:
 2211              	.LBB194:
 2212              	.LBB195:
 2213              		.loc 1 213 0
ARM GAS  C:\Users\Matuesz\AppData\Local\Temp\ccLA85Wr.s 			page 40


 2214 0000 C26E     		ldr	r2, [r0, #108]
 2215 0002 1168     		ldr	r1, [r2, #0]
 2216 0004 0167     		str	r1, [r0, #112]
 2217              	.LBE195:
 2218              	.LBE194:
 2219              		.loc 1 1133 0
 2220              		.loc 1 1132 0
 2221 0006 FFF7FEBF 		b	otg_disable_ep
 2222              	.LVL215:
 2223              		.cfi_endproc
 2224              	.LFE145:
 2225              		.size	usb_lld_disable_endpoints, .-usb_lld_disable_endpoints
 2226 000a 00BFAFF3 		.section	.text.usb_lld_get_status_out,"ax",%progbits
 2226      0080
 2227              		.align	2
 2228              		.p2align 4,,15
 2229              		.global	usb_lld_get_status_out
 2230              		.thumb
 2231              		.thumb_func
 2232              		.type	usb_lld_get_status_out, %function
 2233              	usb_lld_get_status_out:
 2234              	.LFB146:
 2235              		.loc 1 1147 0
 2236              		.cfi_startproc
 2237              		@ args = 0, pretend = 0, frame = 0
 2238              		@ frame_needed = 0, uses_anonymous_args = 0
 2239              		@ link register save eliminated.
 2240              	.LVL216:
 2241              		.loc 1 1152 0
 2242 0000 5831     		adds	r1, r1, #88
 2243              	.LVL217:
 2244 0002 836E     		ldr	r3, [r0, #104]
 2245 0004 4901     		lsls	r1, r1, #5
 2246 0006 5A58     		ldr	r2, [r3, r1]
 2247              	.LVL218:
 2248              		.loc 1 1153 0
 2249 0008 12F40040 		ands	r0, r2, #32768
 2250              	.LVL219:
 2251 000c 04D0     		beq	.L279
 2252              		.loc 1 1155 0
 2253 000e 12F4001F 		tst	r2, #2097152
 2254              		.loc 1 1156 0
 2255 0012 0CBF     		ite	eq
 2256 0014 0220     		moveq	r0, #2
 2257 0016 0120     		movne	r0, #1
 2258              	.L279:
 2259              		.loc 1 1158 0
 2260 0018 7047     		bx	lr
 2261              		.cfi_endproc
 2262              	.LFE146:
 2263              		.size	usb_lld_get_status_out, .-usb_lld_get_status_out
 2264 001a 00BFAFF3 		.section	.text.usb_lld_get_status_in,"ax",%progbits
 2264      0080
 2265              		.align	2
 2266              		.p2align 4,,15
 2267              		.global	usb_lld_get_status_in
 2268              		.thumb
ARM GAS  C:\Users\Matuesz\AppData\Local\Temp\ccLA85Wr.s 			page 41


 2269              		.thumb_func
 2270              		.type	usb_lld_get_status_in, %function
 2271              	usb_lld_get_status_in:
 2272              	.LFB147:
 2273              		.loc 1 1172 0
 2274              		.cfi_startproc
 2275              		@ args = 0, pretend = 0, frame = 0
 2276              		@ frame_needed = 0, uses_anonymous_args = 0
 2277              		@ link register save eliminated.
 2278              	.LVL220:
 2279              		.loc 1 1177 0
 2280 0000 4831     		adds	r1, r1, #72
 2281              	.LVL221:
 2282 0002 836E     		ldr	r3, [r0, #104]
 2283 0004 4901     		lsls	r1, r1, #5
 2284 0006 5A58     		ldr	r2, [r3, r1]
 2285              	.LVL222:
 2286              		.loc 1 1178 0
 2287 0008 12F40040 		ands	r0, r2, #32768
 2288              	.LVL223:
 2289 000c 04D0     		beq	.L283
 2290              		.loc 1 1180 0
 2291 000e 12F4001F 		tst	r2, #2097152
 2292              		.loc 1 1181 0
 2293 0012 0CBF     		ite	eq
 2294 0014 0220     		moveq	r0, #2
 2295 0016 0120     		movne	r0, #1
 2296              	.L283:
 2297              		.loc 1 1183 0
 2298 0018 7047     		bx	lr
 2299              		.cfi_endproc
 2300              	.LFE147:
 2301              		.size	usb_lld_get_status_in, .-usb_lld_get_status_in
 2302 001a 00BFAFF3 		.section	.text.usb_lld_read_setup,"ax",%progbits
 2302      0080
 2303              		.align	2
 2304              		.p2align 4,,15
 2305              		.global	usb_lld_read_setup
 2306              		.thumb
 2307              		.thumb_func
 2308              		.type	usb_lld_read_setup, %function
 2309              	usb_lld_read_setup:
 2310              	.LFB148:
 2311              		.loc 1 1199 0
 2312              		.cfi_startproc
 2313              		@ args = 0, pretend = 0, frame = 0
 2314              		@ frame_needed = 0, uses_anonymous_args = 0
 2315              		@ link register save eliminated.
 2316              	.LVL224:
 2317              		.loc 1 1201 0
 2318 0000 00EB8101 		add	r1, r0, r1, lsl #2
 2319              	.LVL225:
 2320 0004 CB68     		ldr	r3, [r1, #12]
 2321 0006 186A     		ldr	r0, [r3, #32]
 2322              	.LVL226:
 2323 0008 0168     		ldr	r1, [r0, #0]	@ unaligned
 2324 000a 4368     		ldr	r3, [r0, #4]	@ unaligned
ARM GAS  C:\Users\Matuesz\AppData\Local\Temp\ccLA85Wr.s 			page 42


 2325 000c 1160     		str	r1, [r2, #0]	@ unaligned
 2326 000e 5360     		str	r3, [r2, #4]	@ unaligned
 2327 0010 7047     		bx	lr
 2328              		.cfi_endproc
 2329              	.LFE148:
 2330              		.size	usb_lld_read_setup, .-usb_lld_read_setup
 2331 0012 00BFAFF3 		.section	.text.usb_lld_prepare_receive,"ax",%progbits
 2331      0080AFF3 
 2331      0080AFF3 
 2331      0080
 2332              		.align	2
 2333              		.p2align 4,,15
 2334              		.global	usb_lld_prepare_receive
 2335              		.thumb
 2336              		.thumb_func
 2337              		.type	usb_lld_prepare_receive, %function
 2338              	usb_lld_prepare_receive:
 2339              	.LFB149:
 2340              		.loc 1 1212 0
 2341              		.cfi_startproc
 2342              		@ args = 0, pretend = 0, frame = 0
 2343              		@ frame_needed = 0, uses_anonymous_args = 0
 2344              		@ link register save eliminated.
 2345              	.LVL227:
 2346              		.loc 1 1214 0
 2347 0000 00EB8103 		add	r3, r0, r1, lsl #2
 2348              		.loc 1 1212 0
 2349 0004 10B4     		push	{r4}
 2350              	.LCFI10:
 2351              		.cfi_def_cfa_offset 4
 2352              		.cfi_offset 4, -4
 2353              		.loc 1 1214 0
 2354 0006 DC68     		ldr	r4, [r3, #12]
 2355              	.LVL228:
 2356              		.loc 1 1219 0
 2357 0008 806E     		ldr	r0, [r0, #104]
 2358              	.LVL229:
 2359              		.loc 1 1217 0
 2360 000a A269     		ldr	r2, [r4, #24]
 2361 000c 638A     		ldrh	r3, [r4, #18]
 2362 000e 5268     		ldr	r2, [r2, #4]
 2363              	.LVL230:
 2364 0010 541E     		subs	r4, r2, #1
 2365              	.LVL231:
 2366 0012 E418     		adds	r4, r4, r3
 2367              		.loc 1 1219 0
 2368 0014 00EB4111 		add	r1, r0, r1, lsl #5
 2369              	.LVL232:
 2370 0018 42F0C042 		orr	r2, r2, #1610612736
 2371              	.LVL233:
 2372              		.loc 1 1217 0
 2373 001c B4FBF3F3 		udiv	r3, r4, r3
 2374              		.loc 1 1219 0
 2375 0020 42EAC340 		orr	r0, r2, r3, lsl #19
 2376 0024 C1F8100B 		str	r0, [r1, #2832]
 2377              		.loc 1 1222 0
 2378 0028 10BC     		pop	{r4}
ARM GAS  C:\Users\Matuesz\AppData\Local\Temp\ccLA85Wr.s 			page 43


 2379 002a 7047     		bx	lr
 2380              		.cfi_endproc
 2381              	.LFE149:
 2382              		.size	usb_lld_prepare_receive, .-usb_lld_prepare_receive
 2383 002c AFF30080 		.section	.text.usb_lld_prepare_transmit,"ax",%progbits
 2384              		.align	2
 2385              		.p2align 4,,15
 2386              		.global	usb_lld_prepare_transmit
 2387              		.thumb
 2388              		.thumb_func
 2389              		.type	usb_lld_prepare_transmit, %function
 2390              	usb_lld_prepare_transmit:
 2391              	.LFB150:
 2392              		.loc 1 1232 0
 2393              		.cfi_startproc
 2394              		@ args = 0, pretend = 0, frame = 0
 2395              		@ frame_needed = 0, uses_anonymous_args = 0
 2396              		@ link register save eliminated.
 2397              	.LVL234:
 2398              		.loc 1 1233 0
 2399 0000 00EB8103 		add	r3, r0, r1, lsl #2
 2400              		.loc 1 1232 0
 2401 0004 30B4     		push	{r4, r5}
 2402              	.LCFI11:
 2403              		.cfi_def_cfa_offset 8
 2404              		.cfi_offset 4, -8
 2405              		.cfi_offset 5, -4
 2406              		.loc 1 1233 0
 2407 0006 DC68     		ldr	r4, [r3, #12]
 2408 0008 6269     		ldr	r2, [r4, #20]
 2409              	.LVL235:
 2410              		.loc 1 1236 0
 2411 000a 5368     		ldr	r3, [r2, #4]
 2412 000c 1361     		str	r3, [r2, #16]
 2413              		.loc 1 1237 0
 2414 000e A3B1     		cbz	r3, .L295
 2415              	.LBB196:
 2416              		.loc 1 1242 0
 2417 0010 69B1     		cbz	r1, .L291
 2418              	.L294:
 2419 0012 5D1E     		subs	r5, r3, #1
 2420              	.L292:
 2421              		.loc 1 1246 0
 2422 0014 228A     		ldrh	r2, [r4, #16]
 2423              	.LVL236:
 2424              		.loc 1 1248 0
 2425 0016 806E     		ldr	r0, [r0, #104]
 2426              	.LVL237:
 2427              		.loc 1 1246 0
 2428 0018 AC18     		adds	r4, r5, r2
 2429              	.LVL238:
 2430 001a B4FBF2F2 		udiv	r2, r4, r2
 2431              	.LVL239:
 2432              		.loc 1 1248 0
 2433 001e 00EB4111 		add	r1, r0, r1, lsl #5
 2434              	.LVL240:
 2435 0022 43EAC243 		orr	r3, r3, r2, lsl #19
ARM GAS  C:\Users\Matuesz\AppData\Local\Temp\ccLA85Wr.s 			page 44


 2436 0026 C1F81039 		str	r3, [r1, #2320]
 2437              	.LVL241:
 2438              	.L288:
 2439              	.LBE196:
 2440              		.loc 1 1251 0
 2441 002a 30BC     		pop	{r4, r5}
 2442 002c 7047     		bx	lr
 2443              	.LVL242:
 2444              	.L291:
 2445              	.LBB197:
 2446              		.loc 1 1242 0 discriminator 1
 2447 002e 402B     		cmp	r3, #64
 2448 0030 EFD9     		bls	.L294
 2449              		.loc 1 1243 0
 2450 0032 4023     		movs	r3, #64
 2451 0034 5360     		str	r3, [r2, #4]
 2452 0036 3F25     		movs	r5, #63
 2453 0038 ECE7     		b	.L292
 2454              	.L295:
 2455              	.LBE197:
 2456              		.loc 1 1239 0
 2457 003a 806E     		ldr	r0, [r0, #104]
 2458              	.LVL243:
 2459 003c 00EB4112 		add	r2, r0, r1, lsl #5
 2460              	.LVL244:
 2461 0040 4FF40021 		mov	r1, #524288
 2462              	.LVL245:
 2463 0044 C2F81019 		str	r1, [r2, #2320]
 2464 0048 EFE7     		b	.L288
 2465              		.cfi_endproc
 2466              	.LFE150:
 2467              		.size	usb_lld_prepare_transmit, .-usb_lld_prepare_transmit
 2468 004a 00BFAFF3 		.section	.text.otg_epin_handler,"ax",%progbits
 2468      0080
 2469              		.align	2
 2470              		.p2align 4,,15
 2471              		.thumb
 2472              		.thumb_func
 2473              		.type	otg_epin_handler, %function
 2474              	otg_epin_handler:
 2475              	.LFB133:
 2476              		.loc 1 550 0
 2477              		.cfi_startproc
 2478              		@ args = 0, pretend = 0, frame = 0
 2479              		@ frame_needed = 0, uses_anonymous_args = 0
 2480              	.LVL246:
 2481 0000 2DE9F041 		push	{r4, r5, r6, r7, r8, lr}
 2482              	.LCFI12:
 2483              		.cfi_def_cfa_offset 24
 2484              		.cfi_offset 4, -24
 2485              		.cfi_offset 5, -20
 2486              		.cfi_offset 6, -16
 2487              		.cfi_offset 7, -12
 2488              		.cfi_offset 8, -8
 2489              		.cfi_offset 14, -4
 2490              		.loc 1 551 0
 2491 0004 856E     		ldr	r5, [r0, #104]
ARM GAS  C:\Users\Matuesz\AppData\Local\Temp\ccLA85Wr.s 			page 45


 2492              	.LVL247:
 2493              		.loc 1 552 0
 2494 0006 05EB4113 		add	r3, r5, r1, lsl #5
 2495              		.loc 1 550 0
 2496 000a 0646     		mov	r6, r0
 2497              		.loc 1 552 0
 2498 000c D3F80849 		ldr	r4, [r3, #2312]
 2499              	.LVL248:
 2500              		.loc 1 554 0
 2501 0010 C3F80849 		str	r4, [r3, #2312]
 2502              		.loc 1 559 0
 2503 0014 E307     		lsls	r3, r4, #31
 2504              		.loc 1 550 0
 2505 0016 0F46     		mov	r7, r1
 2506              		.loc 1 559 0
 2507 0018 03D5     		bpl	.L297
 2508              		.loc 1 559 0 is_stmt 0 discriminator 1
 2509 001a D5F81028 		ldr	r2, [r5, #2064]
 2510 001e D207     		lsls	r2, r2, #31
 2511 0020 0AD4     		bmi	.L316
 2512              	.LVL249:
 2513              	.L297:
 2514              		.loc 1 579 0 is_stmt 1
 2515 0022 2306     		lsls	r3, r4, #24
 2516              	.LVL250:
 2517 0024 06D5     		bpl	.L296
 2518              		.loc 1 580 0 discriminator 1
 2519 0026 0122     		movs	r2, #1
 2520 0028 D5F83408 		ldr	r0, [r5, #2100]
 2521 002c 02FA07F7 		lsl	r7, r2, r7
 2522              		.loc 1 579 0 discriminator 1
 2523 0030 0742     		tst	r7, r0
 2524 0032 2BD1     		bne	.L317
 2525              	.L296:
 2526 0034 BDE8F081 		pop	{r4, r5, r6, r7, r8, pc}
 2527              	.LVL251:
 2528              	.L316:
 2529              	.LBB207:
 2530              		.loc 1 561 0
 2531 0038 00EB8103 		add	r3, r0, r1, lsl #2
 2532 003c DB68     		ldr	r3, [r3, #12]
 2533 003e 5A69     		ldr	r2, [r3, #20]
 2534              	.LVL252:
 2535              		.loc 1 563 0
 2536 0040 D2F804E0 		ldr	lr, [r2, #4]
 2537 0044 D2F810C0 		ldr	ip, [r2, #16]
 2538 0048 E645     		cmp	lr, ip
 2539 004a 36D2     		bcs	.L298
 2540              		.loc 1 567 0
 2541 004c CEEB0C03 		rsb	r3, lr, ip
 2542              		.loc 1 568 0
 2543 0050 4FF00008 		mov	r8, #0
 2544              		.loc 1 567 0
 2545 0054 5360     		str	r3, [r2, #4]
 2546              		.loc 1 568 0
 2547 0056 C2F80880 		str	r8, [r2, #8]
 2548              		.loc 1 569 0
ARM GAS  C:\Users\Matuesz\AppData\Local\Temp\ccLA85Wr.s 			page 46


 2549 005a FFF7FEFF 		bl	usb_lld_prepare_transmit
 2550              	.LVL253:
 2551              	.LBB208:
 2552              		.loc 1 570 0
 2553 005e 2023     		movs	r3, #32
 2554              	.LVL254:
 2555              	@ 570 "../../os/hal/platforms/STM32/OTGv1/usb_lld.c" 1
 2556 0060 83F31188 		msr     BASEPRI, r3
 2557              	@ 0 "" 2
 2558              	.LVL255:
 2559              		.thumb
 2560              	.LBE208:
 2561              	.LBB209:
 2562              	.LBB210:
 2563              		.loc 1 1276 0
 2564 0064 07F14800 		add	r0, r7, #72
 2565 0068 B26E     		ldr	r2, [r6, #104]
 2566 006a 4301     		lsls	r3, r0, #5
 2567              	.LVL256:
 2568 006c D158     		ldr	r1, [r2, r3]
 2569 006e 41F00440 		orr	r0, r1, #-2080374784
 2570 0072 D050     		str	r0, [r2, r3]
 2571              		.loc 1 1277 0
 2572 0074 0123     		movs	r3, #1
 2573 0076 D2F83418 		ldr	r1, [r2, #2100]
 2574 007a 03FA07F3 		lsl	r3, r3, r7
 2575 007e 0B43     		orrs	r3, r3, r1
 2576 0080 C2F83438 		str	r3, [r2, #2100]
 2577              	.LBE210:
 2578              	.LBE209:
 2579              	.LBB211:
 2580              		.loc 1 572 0
 2581 0084 4346     		mov	r3, r8
 2582              	@ 572 "../../os/hal/platforms/STM32/OTGv1/usb_lld.c" 1
 2583 0086 83F31188 		msr     BASEPRI, r3
 2584              	@ 0 "" 2
 2585              	.LVL257:
 2586              		.thumb
 2587 008a CAE7     		b	.L297
 2588              	.LVL258:
 2589              	.L317:
 2590              	.LBE211:
 2591              	.LBE207:
 2592              	.LBB212:
 2593              		.loc 1 582 0
 2594 008c 2023     		movs	r3, #32
 2595              	.LVL259:
 2596              	@ 582 "../../os/hal/platforms/STM32/OTGv1/usb_lld.c" 1
 2597 008e 83F31188 		msr     BASEPRI, r3
 2598              	@ 0 "" 2
 2599              	.LVL260:
 2600              		.thumb
 2601              	.LBE212:
 2602              		.loc 1 583 0
 2603 0092 716F     		ldr	r1, [r6, #116]
 2604              		.loc 1 584 0
 2605 0094 D5F83438 		ldr	r3, [r5, #2100]
ARM GAS  C:\Users\Matuesz\AppData\Local\Temp\ccLA85Wr.s 			page 47


 2606              	.LVL261:
 2607              	.LBB213:
 2608              	.LBB214:
 2609              		.loc 1 124 0
 2610 0098 F06F     		ldr	r0, [r6, #124]
 2611              	.LBE214:
 2612              	.LBE213:
 2613              		.loc 1 583 0
 2614 009a 3943     		orrs	r1, r1, r7
 2615              		.loc 1 584 0
 2616 009c 23EA0707 		bic	r7, r3, r7
 2617              		.loc 1 583 0
 2618 00a0 7167     		str	r1, [r6, #116]
 2619              		.loc 1 584 0
 2620 00a2 C5F83478 		str	r7, [r5, #2100]
 2621              	.LVL262:
 2622              	.LBB216:
 2623              	.LBB215:
 2624              		.loc 1 124 0
 2625 00a6 18B1     		cbz	r0, .L300
 2626              		.loc 1 125 0
 2627 00a8 FFF7FEFF 		bl	chSchReadyI
 2628              	.LVL263:
 2629              		.loc 1 126 0
 2630 00ac 0020     		movs	r0, #0
 2631 00ae F067     		str	r0, [r6, #124]
 2632              	.L300:
 2633              	.LBE215:
 2634              	.LBE216:
 2635              	.LBB217:
 2636              		.loc 1 586 0
 2637 00b0 0023     		movs	r3, #0
 2638              	.LVL264:
 2639              	@ 586 "../../os/hal/platforms/STM32/OTGv1/usb_lld.c" 1
 2640 00b2 83F31188 		msr     BASEPRI, r3
 2641              	@ 0 "" 2
 2642              	.LVL265:
 2643              		.thumb
 2644 00b6 BDE8F081 		pop	{r4, r5, r6, r7, r8, pc}
 2645              	.LVL266:
 2646              	.L298:
 2647              	.LBE217:
 2648              	.LBB218:
 2649              		.loc 1 576 0
 2650 00ba B0F808E0 		ldrh	lr, [r0, #8]
 2651 00be 9B68     		ldr	r3, [r3, #8]
 2652 00c0 0122     		movs	r2, #1
 2653              	.LVL267:
 2654 00c2 02FA01F2 		lsl	r2, r2, r1
 2655 00c6 2EEA0202 		bic	r2, lr, r2
 2656 00ca 0281     		strh	r2, [r0, #8]	@ movhi
 2657 00cc 9847     		blx	r3
 2658              	.LVL268:
 2659 00ce A8E7     		b	.L297
 2660              	.LBE218:
 2661              		.cfi_endproc
 2662              	.LFE133:
ARM GAS  C:\Users\Matuesz\AppData\Local\Temp\ccLA85Wr.s 			page 48


 2663              		.size	otg_epin_handler, .-otg_epin_handler
 2664              		.section	.text.usb_lld_serve_interrupt,"ax",%progbits
 2665              		.align	2
 2666              		.p2align 4,,15
 2667              		.thumb
 2668              		.thumb_func
 2669              		.type	usb_lld_serve_interrupt, %function
 2670              	usb_lld_serve_interrupt:
 2671              	.LFB135:
 2672              		.loc 1 624 0
 2673              		.cfi_startproc
 2674              		@ args = 0, pretend = 0, frame = 0
 2675              		@ frame_needed = 0, uses_anonymous_args = 0
 2676              	.LVL269:
 2677 0000 70B5     		push	{r4, r5, r6, lr}
 2678              	.LCFI13:
 2679              		.cfi_def_cfa_offset 16
 2680              		.cfi_offset 4, -16
 2681              		.cfi_offset 5, -12
 2682              		.cfi_offset 6, -8
 2683              		.cfi_offset 14, -4
 2684              		.loc 1 625 0
 2685 0002 856E     		ldr	r5, [r0, #104]
 2686              	.LVL270:
 2687              		.loc 1 628 0
 2688 0004 6B69     		ldr	r3, [r5, #20]
 2689 0006 AC69     		ldr	r4, [r5, #24]
 2690 0008 1C40     		ands	r4, r4, r3
 2691              	.LVL271:
 2692              		.loc 1 632 0
 2693 000a E204     		lsls	r2, r4, #19
 2694              		.loc 1 624 0
 2695 000c 0646     		mov	r6, r0
 2696              		.loc 1 629 0
 2697 000e 6C61     		str	r4, [r5, #20]
 2698              		.loc 1 632 0
 2699 0010 31D4     		bmi	.L396
 2700              	.LVL272:
 2701              	.L320:
 2702              		.loc 1 638 0
 2703 0012 A104     		lsls	r1, r4, #18
 2704              		.loc 1 639 0
 2705 0014 48BF     		it	mi
 2706 0016 D5F80818 		ldrmi	r1, [r5, #2056]
 2707              		.loc 1 643 0
 2708 001a 2007     		lsls	r0, r4, #28
 2709 001c 04D5     		bpl	.L323
 2710              		.loc 1 644 0
 2711 001e 7368     		ldr	r3, [r6, #4]
 2712 0020 DA68     		ldr	r2, [r3, #12]
 2713 0022 0AB1     		cbz	r2, .L323
 2714              		.loc 1 644 0 is_stmt 0 discriminator 1
 2715 0024 3046     		mov	r0, r6
 2716 0026 9047     		blx	r2
 2717              	.LVL273:
 2718              	.L323:
 2719              		.loc 1 648 0 is_stmt 1
ARM GAS  C:\Users\Matuesz\AppData\Local\Temp\ccLA85Wr.s 			page 49


 2720 0028 E106     		lsls	r1, r4, #27
 2721 002a 2ED4     		bmi	.L397
 2722              	.LVL274:
 2723              	.L324:
 2724              		.loc 1 659 0
 2725 002c 6203     		lsls	r2, r4, #13
 2726              		.loc 1 658 0
 2727 002e D5F81858 		ldr	r5, [r5, #2072]
 2728              	.LVL275:
 2729              		.loc 1 659 0
 2730 0032 0BD5     		bpl	.L327
 2731              		.loc 1 660 0
 2732 0034 EB07     		lsls	r3, r5, #31
 2733              	.LVL276:
 2734 0036 59D4     		bmi	.L398
 2735              		.loc 1 662 0
 2736 0038 A807     		lsls	r0, r5, #30
 2737 003a 5DD4     		bmi	.L399
 2738              	.L329:
 2739              		.loc 1 664 0
 2740 003c 6907     		lsls	r1, r5, #29
 2741 003e 61D4     		bmi	.L400
 2742              	.L330:
 2743              		.loc 1 666 0
 2744 0040 2A07     		lsls	r2, r5, #28
 2745 0042 65D4     		bmi	.L401
 2746              	.L331:
 2747              		.loc 1 669 0
 2748 0044 EB06     		lsls	r3, r5, #27
 2749 0046 69D4     		bmi	.L402
 2750              	.L332:
 2751              		.loc 1 671 0
 2752 0048 A806     		lsls	r0, r5, #26
 2753 004a 6DD4     		bmi	.L403
 2754              	.LVL277:
 2755              	.L327:
 2756              		.loc 1 675 0
 2757 004c 2103     		lsls	r1, r4, #12
 2758 004e 0BD5     		bpl	.L318
 2759              		.loc 1 676 0
 2760 0050 EA03     		lsls	r2, r5, #15
 2761 0052 32D4     		bmi	.L404
 2762              		.loc 1 678 0
 2763 0054 AB03     		lsls	r3, r5, #14
 2764              	.LVL278:
 2765 0056 36D4     		bmi	.L405
 2766              	.L337:
 2767              		.loc 1 680 0
 2768 0058 6803     		lsls	r0, r5, #13
 2769 005a 3AD4     		bmi	.L406
 2770              	.L338:
 2771              		.loc 1 682 0
 2772 005c 2903     		lsls	r1, r5, #12
 2773 005e 3ED4     		bmi	.L407
 2774              	.L339:
 2775              		.loc 1 685 0
 2776 0060 EA02     		lsls	r2, r5, #11
ARM GAS  C:\Users\Matuesz\AppData\Local\Temp\ccLA85Wr.s 			page 50


 2777 0062 23D4     		bmi	.L408
 2778              	.L340:
 2779              		.loc 1 687 0
 2780 0064 AB02     		lsls	r3, r5, #10
 2781 0066 00D4     		bmi	.L409
 2782              	.LVL279:
 2783              	.L318:
 2784 0068 70BD     		pop	{r4, r5, r6, pc}
 2785              	.LVL280:
 2786              	.L409:
 2787              		.loc 1 688 0
 2788 006a 3046     		mov	r0, r6
 2789 006c 0521     		movs	r1, #5
 2790              		.loc 1 691 0
 2791 006e BDE87040 		pop	{r4, r5, r6, lr}
 2792              		.loc 1 688 0
 2793 0072 FFF7FEBF 		b	otg_epout_handler
 2794              	.LVL281:
 2795              	.L396:
 2796              		.loc 1 633 0
 2797 0076 FFF7FEFF 		bl	_usb_reset
 2798              	.LVL282:
 2799              		.loc 1 634 0
 2800 007a 7068     		ldr	r0, [r6, #4]
 2801 007c 0268     		ldr	r2, [r0, #0]
 2802 007e 002A     		cmp	r2, #0
 2803 0080 C7D0     		beq	.L320
 2804              		.loc 1 634 0 is_stmt 0 discriminator 1
 2805 0082 3046     		mov	r0, r6
 2806 0084 0021     		movs	r1, #0
 2807 0086 9047     		blx	r2
 2808              	.LVL283:
 2809 0088 C3E7     		b	.L320
 2810              	.L397:
 2811              	.LBB223:
 2812              		.loc 1 651 0 is_stmt 1
 2813 008a 2023     		movs	r3, #32
 2814              	.LVL284:
 2815              	@ 651 "../../os/hal/platforms/STM32/OTGv1/usb_lld.c" 1
 2816 008c 83F31188 		msr     BASEPRI, r3
 2817              	@ 0 "" 2
 2818              	.LVL285:
 2819              		.thumb
 2820              	.LBE223:
 2821              		.loc 1 652 0
 2822 0090 A969     		ldr	r1, [r5, #24]
 2823              	.LBB224:
 2824              	.LBB225:
 2825              		.loc 1 124 0
 2826 0092 F06F     		ldr	r0, [r6, #124]
 2827              	.LBE225:
 2828              	.LBE224:
 2829              		.loc 1 652 0
 2830 0094 21F01003 		bic	r3, r1, #16
 2831              	.LVL286:
 2832 0098 AB61     		str	r3, [r5, #24]
 2833              	.LVL287:
ARM GAS  C:\Users\Matuesz\AppData\Local\Temp\ccLA85Wr.s 			page 51


 2834              	.LBB227:
 2835              	.LBB226:
 2836              		.loc 1 124 0
 2837 009a 18B1     		cbz	r0, .L325
 2838              		.loc 1 125 0
 2839 009c FFF7FEFF 		bl	chSchReadyI
 2840              	.LVL288:
 2841              		.loc 1 126 0
 2842 00a0 0020     		movs	r0, #0
 2843 00a2 F067     		str	r0, [r6, #124]
 2844              	.L325:
 2845              	.LBE226:
 2846              	.LBE227:
 2847              	.LBB228:
 2848              		.loc 1 654 0
 2849 00a4 0023     		movs	r3, #0
 2850              	@ 654 "../../os/hal/platforms/STM32/OTGv1/usb_lld.c" 1
 2851 00a6 83F31188 		msr     BASEPRI, r3
 2852              	@ 0 "" 2
 2853              	.LVL289:
 2854              		.thumb
 2855 00aa BFE7     		b	.L324
 2856              	.LVL290:
 2857              	.L408:
 2858              	.LBE228:
 2859              		.loc 1 686 0
 2860 00ac 0421     		movs	r1, #4
 2861 00ae 3046     		mov	r0, r6
 2862 00b0 FFF7FEFF 		bl	otg_epout_handler
 2863              	.LVL291:
 2864              		.loc 1 687 0
 2865 00b4 AB02     		lsls	r3, r5, #10
 2866 00b6 D7D5     		bpl	.L318
 2867 00b8 D7E7     		b	.L409
 2868              	.LVL292:
 2869              	.L404:
 2870              		.loc 1 677 0
 2871 00ba 0021     		movs	r1, #0
 2872 00bc 3046     		mov	r0, r6
 2873 00be FFF7FEFF 		bl	otg_epout_handler
 2874              	.LVL293:
 2875              		.loc 1 678 0
 2876 00c2 AB03     		lsls	r3, r5, #14
 2877 00c4 C8D5     		bpl	.L337
 2878              	.L405:
 2879              		.loc 1 679 0
 2880 00c6 3046     		mov	r0, r6
 2881 00c8 0121     		movs	r1, #1
 2882 00ca FFF7FEFF 		bl	otg_epout_handler
 2883              	.LVL294:
 2884              		.loc 1 680 0
 2885 00ce 6803     		lsls	r0, r5, #13
 2886 00d0 C4D5     		bpl	.L338
 2887              	.L406:
 2888              		.loc 1 681 0
 2889 00d2 0221     		movs	r1, #2
 2890 00d4 3046     		mov	r0, r6
ARM GAS  C:\Users\Matuesz\AppData\Local\Temp\ccLA85Wr.s 			page 52


 2891 00d6 FFF7FEFF 		bl	otg_epout_handler
 2892              	.LVL295:
 2893              		.loc 1 682 0
 2894 00da 2903     		lsls	r1, r5, #12
 2895 00dc C0D5     		bpl	.L339
 2896              	.L407:
 2897              		.loc 1 683 0
 2898 00de 0321     		movs	r1, #3
 2899 00e0 3046     		mov	r0, r6
 2900 00e2 FFF7FEFF 		bl	otg_epout_handler
 2901              	.LVL296:
 2902              		.loc 1 685 0
 2903 00e6 EA02     		lsls	r2, r5, #11
 2904 00e8 BCD5     		bpl	.L340
 2905 00ea DFE7     		b	.L408
 2906              	.L398:
 2907              		.loc 1 661 0
 2908 00ec 3046     		mov	r0, r6
 2909 00ee 0021     		movs	r1, #0
 2910 00f0 FFF7FEFF 		bl	otg_epin_handler
 2911              	.LVL297:
 2912              		.loc 1 662 0
 2913 00f4 A807     		lsls	r0, r5, #30
 2914 00f6 A1D5     		bpl	.L329
 2915              	.L399:
 2916              		.loc 1 663 0
 2917 00f8 0121     		movs	r1, #1
 2918 00fa 3046     		mov	r0, r6
 2919 00fc FFF7FEFF 		bl	otg_epin_handler
 2920              	.LVL298:
 2921              		.loc 1 664 0
 2922 0100 6907     		lsls	r1, r5, #29
 2923 0102 9DD5     		bpl	.L330
 2924              	.L400:
 2925              		.loc 1 665 0
 2926 0104 0221     		movs	r1, #2
 2927 0106 3046     		mov	r0, r6
 2928 0108 FFF7FEFF 		bl	otg_epin_handler
 2929              	.LVL299:
 2930              		.loc 1 666 0
 2931 010c 2A07     		lsls	r2, r5, #28
 2932 010e 99D5     		bpl	.L331
 2933              	.L401:
 2934              		.loc 1 667 0
 2935 0110 0321     		movs	r1, #3
 2936 0112 3046     		mov	r0, r6
 2937 0114 FFF7FEFF 		bl	otg_epin_handler
 2938              	.LVL300:
 2939              		.loc 1 669 0
 2940 0118 EB06     		lsls	r3, r5, #27
 2941 011a 95D5     		bpl	.L332
 2942              	.L402:
 2943              		.loc 1 670 0
 2944 011c 3046     		mov	r0, r6
 2945 011e 0421     		movs	r1, #4
 2946 0120 FFF7FEFF 		bl	otg_epin_handler
 2947              	.LVL301:
ARM GAS  C:\Users\Matuesz\AppData\Local\Temp\ccLA85Wr.s 			page 53


 2948              		.loc 1 671 0
 2949 0124 A806     		lsls	r0, r5, #26
 2950 0126 91D5     		bpl	.L327
 2951              	.L403:
 2952              		.loc 1 672 0
 2953 0128 3046     		mov	r0, r6
 2954 012a 0521     		movs	r1, #5
 2955 012c FFF7FEFF 		bl	otg_epin_handler
 2956              	.LVL302:
 2957 0130 8CE7     		b	.L327
 2958              		.cfi_endproc
 2959              	.LFE135:
 2960              		.size	usb_lld_serve_interrupt, .-usb_lld_serve_interrupt
 2961 0132 00BFAFF3 		.section	.text.Vector174,"ax",%progbits
 2961      0080AFF3 
 2961      0080AFF3 
 2961      0080
 2962              		.align	2
 2963              		.p2align 4,,15
 2964              		.global	Vector174
 2965              		.thumb
 2966              		.thumb_func
 2967              		.type	Vector174, %function
 2968              	Vector174:
 2969              	.LFB138:
 2970              		.loc 1 783 0
 2971              		.cfi_startproc
 2972              		@ args = 0, pretend = 0, frame = 0
 2973              		@ frame_needed = 0, uses_anonymous_args = 0
 2974 0000 08B5     		push	{r3, lr}
 2975              	.LCFI14:
 2976              		.cfi_def_cfa_offset 8
 2977              		.cfi_offset 3, -8
 2978              		.cfi_offset 14, -4
 2979              		.loc 1 787 0
 2980 0002 40F20000 		movw	r0, #:lower16:.LANCHOR2
 2981 0006 C0F20000 		movt	r0, #:upper16:.LANCHOR2
 2982 000a FFF7FEFF 		bl	usb_lld_serve_interrupt
 2983              	.LVL303:
 2984              		.loc 1 790 0
 2985 000e BDE80840 		pop	{r3, lr}
 2986              		.loc 1 789 0
 2987 0012 FFF7FEBF 		b	_port_irq_epilogue
 2988              	.LVL304:
 2989              		.cfi_endproc
 2990              	.LFE138:
 2991              		.size	Vector174, .-Vector174
 2992 0016 00BFAFF3 		.section	.text.Vector14C,"ax",%progbits
 2992      0080AFF3 
 2992      0080
 2993              		.align	2
 2994              		.p2align 4,,15
 2995              		.global	Vector14C
 2996              		.thumb
 2997              		.thumb_func
 2998              		.type	Vector14C, %function
 2999              	Vector14C:
ARM GAS  C:\Users\Matuesz\AppData\Local\Temp\ccLA85Wr.s 			page 54


 3000              	.LFB137:
 3001              		.loc 1 764 0
 3002              		.cfi_startproc
 3003              		@ args = 0, pretend = 0, frame = 0
 3004              		@ frame_needed = 0, uses_anonymous_args = 0
 3005 0000 08B5     		push	{r3, lr}
 3006              	.LCFI15:
 3007              		.cfi_def_cfa_offset 8
 3008              		.cfi_offset 3, -8
 3009              		.cfi_offset 14, -4
 3010              		.loc 1 768 0
 3011 0002 40F20000 		movw	r0, #:lower16:.LANCHOR0
 3012 0006 C0F20000 		movt	r0, #:upper16:.LANCHOR0
 3013 000a FFF7FEFF 		bl	usb_lld_serve_interrupt
 3014              	.LVL305:
 3015              		.loc 1 771 0
 3016 000e BDE80840 		pop	{r3, lr}
 3017              		.loc 1 770 0
 3018 0012 FFF7FEBF 		b	_port_irq_epilogue
 3019              	.LVL306:
 3020              		.cfi_endproc
 3021              	.LFE137:
 3022              		.size	Vector14C, .-Vector14C
 3023 0016 00BFAFF3 		.section	.text.usb_lld_start_out,"ax",%progbits
 3023      0080AFF3 
 3023      0080
 3024              		.align	2
 3025              		.p2align 4,,15
 3026              		.global	usb_lld_start_out
 3027              		.thumb
 3028              		.thumb_func
 3029              		.type	usb_lld_start_out, %function
 3030              	usb_lld_start_out:
 3031              	.LFB151:
 3032              		.loc 1 1261 0
 3033              		.cfi_startproc
 3034              		@ args = 0, pretend = 0, frame = 0
 3035              		@ frame_needed = 0, uses_anonymous_args = 0
 3036              		@ link register save eliminated.
 3037              	.LVL307:
 3038              		.loc 1 1263 0
 3039 0000 5831     		adds	r1, r1, #88
 3040              	.LVL308:
 3041 0002 836E     		ldr	r3, [r0, #104]
 3042 0004 4901     		lsls	r1, r1, #5
 3043 0006 5A58     		ldr	r2, [r3, r1]
 3044 0008 42F08060 		orr	r0, r2, #67108864
 3045              	.LVL309:
 3046 000c 5850     		str	r0, [r3, r1]
 3047 000e 7047     		bx	lr
 3048              		.cfi_endproc
 3049              	.LFE151:
 3050              		.size	usb_lld_start_out, .-usb_lld_start_out
 3051              		.section	.text.usb_lld_start_in,"ax",%progbits
 3052              		.align	2
 3053              		.p2align 4,,15
 3054              		.global	usb_lld_start_in
ARM GAS  C:\Users\Matuesz\AppData\Local\Temp\ccLA85Wr.s 			page 55


 3055              		.thumb
 3056              		.thumb_func
 3057              		.type	usb_lld_start_in, %function
 3058              	usb_lld_start_in:
 3059              	.LFB152:
 3060              		.loc 1 1274 0
 3061              		.cfi_startproc
 3062              		@ args = 0, pretend = 0, frame = 0
 3063              		@ frame_needed = 0, uses_anonymous_args = 0
 3064              		@ link register save eliminated.
 3065              	.LVL310:
 3066              		.loc 1 1276 0
 3067 0000 01F14802 		add	r2, r1, #72
 3068 0004 836E     		ldr	r3, [r0, #104]
 3069 0006 5201     		lsls	r2, r2, #5
 3070 0008 9858     		ldr	r0, [r3, r2]
 3071              	.LVL311:
 3072 000a 40F00440 		orr	r0, r0, #-2080374784
 3073 000e 9850     		str	r0, [r3, r2]
 3074              		.loc 1 1277 0
 3075 0010 0120     		movs	r0, #1
 3076 0012 D3F83428 		ldr	r2, [r3, #2100]
 3077 0016 00FA01F1 		lsl	r1, r0, r1
 3078              	.LVL312:
 3079 001a 1143     		orrs	r1, r1, r2
 3080 001c C3F83418 		str	r1, [r3, #2100]
 3081 0020 7047     		bx	lr
 3082              		.cfi_endproc
 3083              	.LFE152:
 3084              		.size	usb_lld_start_in, .-usb_lld_start_in
 3085 0022 00BFAFF3 		.section	.text.usb_lld_stall_out,"ax",%progbits
 3085      0080AFF3 
 3085      0080AFF3 
 3085      0080
 3086              		.align	2
 3087              		.p2align 4,,15
 3088              		.global	usb_lld_stall_out
 3089              		.thumb
 3090              		.thumb_func
 3091              		.type	usb_lld_stall_out, %function
 3092              	usb_lld_stall_out:
 3093              	.LFB153:
 3094              		.loc 1 1288 0
 3095              		.cfi_startproc
 3096              		@ args = 0, pretend = 0, frame = 0
 3097              		@ frame_needed = 0, uses_anonymous_args = 0
 3098              		@ link register save eliminated.
 3099              	.LVL313:
 3100              		.loc 1 1290 0
 3101 0000 5831     		adds	r1, r1, #88
 3102              	.LVL314:
 3103 0002 836E     		ldr	r3, [r0, #104]
 3104 0004 4901     		lsls	r1, r1, #5
 3105 0006 5A58     		ldr	r2, [r3, r1]
 3106 0008 42F40010 		orr	r0, r2, #2097152
 3107              	.LVL315:
 3108 000c 5850     		str	r0, [r3, r1]
ARM GAS  C:\Users\Matuesz\AppData\Local\Temp\ccLA85Wr.s 			page 56


 3109 000e 7047     		bx	lr
 3110              		.cfi_endproc
 3111              	.LFE153:
 3112              		.size	usb_lld_stall_out, .-usb_lld_stall_out
 3113              		.section	.text.usb_lld_stall_in,"ax",%progbits
 3114              		.align	2
 3115              		.p2align 4,,15
 3116              		.global	usb_lld_stall_in
 3117              		.thumb
 3118              		.thumb_func
 3119              		.type	usb_lld_stall_in, %function
 3120              	usb_lld_stall_in:
 3121              	.LFB154:
 3122              		.loc 1 1301 0
 3123              		.cfi_startproc
 3124              		@ args = 0, pretend = 0, frame = 0
 3125              		@ frame_needed = 0, uses_anonymous_args = 0
 3126              		@ link register save eliminated.
 3127              	.LVL316:
 3128              		.loc 1 1303 0
 3129 0000 4831     		adds	r1, r1, #72
 3130              	.LVL317:
 3131 0002 836E     		ldr	r3, [r0, #104]
 3132 0004 4901     		lsls	r1, r1, #5
 3133 0006 5A58     		ldr	r2, [r3, r1]
 3134 0008 42F40010 		orr	r0, r2, #2097152
 3135              	.LVL318:
 3136 000c 5850     		str	r0, [r3, r1]
 3137 000e 7047     		bx	lr
 3138              		.cfi_endproc
 3139              	.LFE154:
 3140              		.size	usb_lld_stall_in, .-usb_lld_stall_in
 3141              		.section	.text.usb_lld_clear_out,"ax",%progbits
 3142              		.align	2
 3143              		.p2align 4,,15
 3144              		.global	usb_lld_clear_out
 3145              		.thumb
 3146              		.thumb_func
 3147              		.type	usb_lld_clear_out, %function
 3148              	usb_lld_clear_out:
 3149              	.LFB155:
 3150              		.loc 1 1314 0
 3151              		.cfi_startproc
 3152              		@ args = 0, pretend = 0, frame = 0
 3153              		@ frame_needed = 0, uses_anonymous_args = 0
 3154              		@ link register save eliminated.
 3155              	.LVL319:
 3156              		.loc 1 1316 0
 3157 0000 5831     		adds	r1, r1, #88
 3158              	.LVL320:
 3159 0002 836E     		ldr	r3, [r0, #104]
 3160 0004 4901     		lsls	r1, r1, #5
 3161 0006 5A58     		ldr	r2, [r3, r1]
 3162 0008 22F40010 		bic	r0, r2, #2097152
 3163              	.LVL321:
 3164 000c 5850     		str	r0, [r3, r1]
 3165 000e 7047     		bx	lr
ARM GAS  C:\Users\Matuesz\AppData\Local\Temp\ccLA85Wr.s 			page 57


 3166              		.cfi_endproc
 3167              	.LFE155:
 3168              		.size	usb_lld_clear_out, .-usb_lld_clear_out
 3169              		.section	.text.usb_lld_clear_in,"ax",%progbits
 3170              		.align	2
 3171              		.p2align 4,,15
 3172              		.global	usb_lld_clear_in
 3173              		.thumb
 3174              		.thumb_func
 3175              		.type	usb_lld_clear_in, %function
 3176              	usb_lld_clear_in:
 3177              	.LFB156:
 3178              		.loc 1 1327 0
 3179              		.cfi_startproc
 3180              		@ args = 0, pretend = 0, frame = 0
 3181              		@ frame_needed = 0, uses_anonymous_args = 0
 3182              		@ link register save eliminated.
 3183              	.LVL322:
 3184              		.loc 1 1329 0
 3185 0000 4831     		adds	r1, r1, #72
 3186              	.LVL323:
 3187 0002 836E     		ldr	r3, [r0, #104]
 3188 0004 4901     		lsls	r1, r1, #5
 3189 0006 5A58     		ldr	r2, [r3, r1]
 3190 0008 22F40010 		bic	r0, r2, #2097152
 3191              	.LVL324:
 3192 000c 5850     		str	r0, [r3, r1]
 3193 000e 7047     		bx	lr
 3194              		.cfi_endproc
 3195              	.LFE156:
 3196              		.size	usb_lld_clear_in, .-usb_lld_clear_in
 3197              		.global	USBD2
 3198              		.global	USBD1
 3199              		.section	.rodata.fsparams,"a",%progbits
 3200              		.align	2
 3201              		.set	.LANCHOR1,. + 0
 3202              		.type	fsparams, %object
 3203              		.size	fsparams, 12
 3204              	fsparams:
 3205 0000 80000000 		.word	128
 3206 0004 40010000 		.word	320
 3207 0008 03000000 		.word	3
 3208              		.section	.bss.USBD1,"aw",%nobits
 3209              		.align	3
 3210              		.set	.LANCHOR0,. + 0
 3211              		.type	USBD1, %object
 3212              		.size	USBD1, 464
 3213              	USBD1:
 3214 0000 00000000 		.space	464
 3214      00000000 
 3214      00000000 
 3214      00000000 
 3214      00000000 
 3215              		.section	.bss.USBD2,"aw",%nobits
 3216              		.align	3
 3217              		.set	.LANCHOR2,. + 0
 3218              		.type	USBD2, %object
ARM GAS  C:\Users\Matuesz\AppData\Local\Temp\ccLA85Wr.s 			page 58


 3219              		.size	USBD2, 464
 3220              	USBD2:
 3221 0000 00000000 		.space	464
 3221      00000000 
 3221      00000000 
 3221      00000000 
 3221      00000000 
 3222              		.section	.rodata.hsparams,"a",%progbits
 3223              		.align	2
 3224              		.set	.LANCHOR3,. + 0
 3225              		.type	hsparams, %object
 3226              		.size	hsparams, 12
 3227              	hsparams:
 3228 0000 00010000 		.word	256
 3229 0004 00040000 		.word	1024
 3230 0008 05000000 		.word	5
 3231              		.section	.rodata.str1.4,"aMS",%progbits,1
 3232              		.align	2
 3233              	.LC0:
 3234 0000 7573625F 		.ascii	"usb_lld_pump\000"
 3234      6C6C645F 
 3234      70756D70 
 3234      00
 3235 000d 000000   		.section	.rodata.ep0config,"a",%progbits
 3236              		.align	2
 3237              		.set	.LANCHOR4,. + 0
 3238              		.type	ep0config, %object
 3239              		.size	ep0config, 36
 3240              	ep0config:
 3241 0000 00000000 		.word	0
 3242 0004 00000000 		.word	_usb_ep0setup
 3243 0008 00000000 		.word	_usb_ep0in
 3244 000c 00000000 		.word	_usb_ep0out
 3245 0010 4000     		.short	64
 3246 0012 4000     		.short	64
 3247 0014 00000000 		.word	ep0_state
 3248 0018 00000000 		.word	ep0_state
 3249 001c 0100     		.short	1
 3250 001e 0000     		.space	2
 3251 0020 00000000 		.word	ep0setup_buffer
 3252              		.section	.bss.ep0_state,"aw",%nobits
 3253              		.align	2
 3254              		.type	ep0_state, %object
 3255              		.size	ep0_state, 20
 3256              	ep0_state:
 3257 0000 00000000 		.space	20
 3257      00000000 
 3257      00000000 
 3257      00000000 
 3257      00000000 
 3258              		.section	.bss.ep0setup_buffer,"aw",%nobits
 3259              		.align	2
 3260              		.type	ep0setup_buffer, %object
 3261              		.size	ep0setup_buffer, 8
 3262              	ep0setup_buffer:
 3263 0000 00000000 		.space	8
 3263      00000000 
ARM GAS  C:\Users\Matuesz\AppData\Local\Temp\ccLA85Wr.s 			page 59


 3264              		.text
 3265              	.Letext0:
 3266              		.file 3 "c:\\chibistudio\\tools\\gnu tools arm embedded\\4.7 2014q2\\bin\\../lib/gcc/arm-none-eabi
 3267              		.file 4 "c:\\chibistudio\\tools\\gnu tools arm embedded\\4.7 2014q2\\bin\\../lib/gcc/arm-none-eabi
 3268              		.file 5 "../../os/ports/GCC/ARMCMx/chtypes.h"
 3269              		.file 6 "../../os/kernel/include/chlists.h"
 3270              		.file 7 "../../os/kernel/include/chthreads.h"
 3271              		.file 8 "../../os/ports/GCC/ARMCMx/chcore_v7m.h"
 3272              		.file 9 "../../os/kernel/include/chschd.h"
 3273              		.file 10 "../../os/kernel/include/chmtx.h"
 3274              		.file 11 "../../os/kernel/include/chqueues.h"
 3275              		.file 12 "../../os/hal/platforms/STM32F4xx/stm32f4xx.h"
 3276              		.file 13 "../../os/hal/platforms/STM32F4xx/hal_lld.h"
 3277              		.file 14 "../../os/hal/include/usb.h"
 3278              		.file 15 "../../os/hal/platforms/STM32/OTGv1/usb_lld.h"
 3279              		.file 16 "../../os/hal/platforms/STM32/OTGv1/stm32_otg.h"
 3280              		.file 17 "../../os/ports/common/ARMCMx/CMSIS/include/core_cm4.h"
 3281              		.file 18 "../../os/hal/include/hal.h"
 3282              		.file 19 "../../os/ports/common/ARMCMx/nvic.h"